
SparrowRV_APP.elf:     file format elf32-littleriscv
SparrowRV_APP.elf
architecture: riscv:rv32, flags 0x00000112:
EXEC_P, HAS_SYMS, D_PAGED
start address 0x00000000

Program Header:
0x70000003 off    0x00011f3e vaddr 0x00000000 paddr 0x00000000 align 2**0
         filesz 0x0000002a memsz 0x00000000 flags r--
    LOAD off    0x00001000 vaddr 0x00000000 paddr 0x00000000 align 2**12
         filesz 0x00002bcc memsz 0x00002bcc flags r-x
    LOAD off    0x00004000 vaddr 0x20000000 paddr 0x00002bcc align 2**12
         filesz 0x00000310 memsz 0x00000310 flags r--
    LOAD off    0x00000310 vaddr 0x20000310 paddr 0x20000310 align 2**12
         filesz 0x00000000 memsz 0x00000028 flags rw-
    LOAD off    0x00000000 vaddr 0x2003c000 paddr 0x20000338 align 2**12
         filesz 0x00000000 memsz 0x00004000 flags rw-

Sections:
Idx Name              Size      VMA       LMA       File off  Algn  Flags
  0 .init             000000b0  00000000  00000000  00001000  2**0  CONTENTS, ALLOC, LOAD, READONLY, CODE
  1 .text             00002b1c  000000b0  000000b0  000010b0  2**2  CONTENTS, ALLOC, LOAD, READONLY, CODE
  2 .lalign           00000000  00002bcc  00002bcc  00004310  2**0  CONTENTS
  3 .dalign           00000000  20000000  20000000  00004310  2**0  CONTENTS
  4 .data             00000310  20000000  00002bcc  00004000  2**2  CONTENTS, ALLOC, LOAD, READONLY, DATA
  5 .bss              00000028  20000310  20000310  00004310  2**2  ALLOC
  6 .stack            00004000  2003c000  20000338  00005000  2**0  ALLOC
  7 .debug_info       0000326b  00000000  00000000  00004310  2**0  CONTENTS, READONLY, DEBUGGING, OCTETS
  8 .debug_abbrev     00000cbd  00000000  00000000  0000757b  2**0  CONTENTS, READONLY, DEBUGGING, OCTETS
  9 .debug_loclists   000037b8  00000000  00000000  00008238  2**0  CONTENTS, READONLY, DEBUGGING, OCTETS
 10 .debug_aranges    000002c0  00000000  00000000  0000b9f0  2**3  CONTENTS, READONLY, DEBUGGING, OCTETS
 11 .debug_rnglists   00000b05  00000000  00000000  0000bcb0  2**0  CONTENTS, READONLY, DEBUGGING, OCTETS
 12 .debug_line       00004b10  00000000  00000000  0000c7b5  2**0  CONTENTS, READONLY, DEBUGGING, OCTETS
 13 .debug_str        000008ab  00000000  00000000  000112c5  2**0  CONTENTS, READONLY, DEBUGGING, OCTETS
 14 .debug_line_str   0000039d  00000000  00000000  00011b70  2**0  CONTENTS, READONLY, DEBUGGING, OCTETS
 15 .comment          00000031  00000000  00000000  00011f0d  2**0  CONTENTS, READONLY
 16 .riscv.attributes 0000002a  00000000  00000000  00011f3e  2**0  CONTENTS, READONLY
 17 .debug_frame      00000900  00000000  00000000  00011f68  2**2  CONTENTS, READONLY, DEBUGGING, OCTETS
SYMBOL TABLE:
00000000 l    d  .init	00000000 .init
000000b0 l    d  .text	00000000 .text
00002bcc l    d  .lalign	00000000 .lalign
20000000 l    d  .dalign	00000000 .dalign
20000000 l    d  .data	00000000 .data
20000310 l    d  .bss	00000000 .bss
2003c000 l    d  .stack	00000000 .stack
00000000 l    d  .debug_info	00000000 .debug_info
00000000 l    d  .debug_abbrev	00000000 .debug_abbrev
00000000 l    d  .debug_loclists	00000000 .debug_loclists
00000000 l    d  .debug_aranges	00000000 .debug_aranges
00000000 l    d  .debug_rnglists	00000000 .debug_rnglists
00000000 l    d  .debug_line	00000000 .debug_line
00000000 l    d  .debug_str	00000000 .debug_str
00000000 l    d  .debug_line_str	00000000 .debug_line_str
00000000 l    d  .comment	00000000 .comment
00000000 l    d  .riscv.attributes	00000000 .riscv.attributes
00000000 l    d  .debug_frame	00000000 .debug_frame
00000000 l    df *ABS*	00000000 startup.o
0000006c l       .init	00000000 loop
00000000 l    df *ABS*	00000000 main.c
20000334 l     O .bss	00000004 g_box_x0
20000330 l     O .bss	00000004 g_box_y0
2000032c l     O .bss	00000004 g_box_x1
20000328 l     O .bss	00000004 g_box_y1
20000324 l     O .bss	00000004 g_box_area
00000000 l    df *ABS*	00000000 init.c
00000000 l    df *ABS*	00000000 core.c
00000000 l    df *ABS*	00000000 fpioa.c
00000000 l    df *ABS*	00000000 uart.c
00000000 l    df *ABS*	00000000 printf.c
000002f0 l     F .text	00000004 _out_null
000002f4 l     F .text	000004d8 _ntoa_format
000007cc l     F .text	00000020 _out_char
000007ec l     F .text	00000d8c _vsnprintf
00000000 l    df *ABS*	00000000 trap_handler.c
00000000 l    df *ABS*	00000000 _udivdi3.o
00000000 l    df *ABS*	00000000 _umoddi3.o
20000b10 g       .data	00000000 __global_pointer$
00040000 g       *ABS*	00000000 _app_prog_size
00001ca8 g     F .text	00000004 HardFault_Handler
00001ca4 g     F .text	00000004 SysTick_Handler
00001cac g     F .text	00000098 PLIC1_FPIOA_ELI0_Handler
00004000 g       *ABS*	00000000 __stack_size
00001d44 g     F .text	00000098 PLIC2_FPIOA_ELI1_Handler
00000264  w      .text	00000000 PLIC0_Handler
00000000 g       *ABS*	00000000 _app_base_addr
20000314 g     O .bss	00000004 system_sram_size
00040000 g       *ABS*	00000000 _cpu_sram_size
00002754 g     F .text	00000478 .hidden __umoddi3
0000229c g     F .text	000004b8 .hidden __udivdi3
00001fa4 g     F .text	00000098 PLIC6_UART0_RX_Handler
00001578 g     F .text	0000003c init_uart0_printf
000001f0 g     F .text	00000068 sparrowrv_system_init
00000000 g       *ABS*	00000000 _use_sd_iap
000002a8 g     F .text	00000014 fpioa_perips_out_set
20000000 g       *ABS*	00000000 _sram_base_addr
20040000 g       .stack	00000000 _sp
2000031c g     O .bss	00000004 system_cpu_freqM
00001604 g     F .text	000006a0 find_plate
00000000 g     F .init	00000000 _start
0000216c g     F .text	00000098 PLIC9_TIMER0_OF_Handler
0000203c g     F .text	00000098 PLIC7_UART1_TX_Handler
20000310 g     O .bss	00000004 system_vendorid
000002e0 g     F .text	00000010 uart_band_ctrl
00000070 g       .init	00000000 trap_vector_tab
00040000 g       *ABS*	00000000 _cpu_iram_size
20000310 g       .bss	00000000 __bss_start
000000b0 g     F .text	00000140 main
20000320 g     O .bss	00000004 system_cpu_freq
00000290 g     F .text	00000018 csr_msprint_string
20000210 g     O .data	00000100 .hidden __clz_tab
000020d4 g     F .text	00000098 PLIC8_UART1_RX_Handler
00004000 g       *ABS*	00000000 _cpu_stack_size
000002bc g     F .text	00000024 uart_enable_ctrl
00001ddc g     F .text	00000098 PLIC3_FPIOA_ELI2_Handler
20000000 g       .dalign	00000000 _data
00001f0c g     F .text	00000098 PLIC5_UART0_TX_Handler
0000025c  w      .text	00000000 SW_Handler
000015b4 g     F .text	00000050 printf_
20000310 g       .bss	00000000 _edata
20000338 g       .bss	00000000 _end
00002bcc g       .lalign	00000000 _data_lma
00000000 g       *ABS*	00000000 _iap_prog_size
00002204 g     F .text	00000098 PLIC10_SPI0_END_Handler
20000318 g     O .bss	00000004 system_iram_size
00001e74 g     F .text	00000098 PLIC4_FPIOA_ELI3_Handler



Disassembly of section .init:

00000000 <_start>:
_start():
d:\PDS\SparrowRV-master\bsp\bsp_app\obj/../lib/startup/startup.S:10
   0:	00000013          	nop
d:\PDS\SparrowRV-master\bsp\bsp_app\obj/../lib/startup/startup.S:11
   4:	20001197          	auipc	gp,0x20001
   8:	b0c18193          	addi	gp,gp,-1268 # 20000b10 <__global_pointer$>
d:\PDS\SparrowRV-master\bsp\bsp_app\obj/../lib/startup/startup.S:13
   c:	20040117          	auipc	sp,0x20040
  10:	ff410113          	addi	sp,sp,-12 # 20040000 <_sp>
d:\PDS\SparrowRV-master\bsp\bsp_app\obj/../lib/startup/startup.S:16
  14:	00003517          	auipc	a0,0x3
  18:	bb850513          	addi	a0,a0,-1096 # 2bcc <_data_lma>
d:\PDS\SparrowRV-master\bsp\bsp_app\obj/../lib/startup/startup.S:17
  1c:	20000597          	auipc	a1,0x20000
  20:	fe458593          	addi	a1,a1,-28 # 20000000 <_data>
d:\PDS\SparrowRV-master\bsp\bsp_app\obj/../lib/startup/startup.S:18
  24:	20000617          	auipc	a2,0x20000
  28:	2ec60613          	addi	a2,a2,748 # 20000310 <system_vendorid>
d:\PDS\SparrowRV-master\bsp\bsp_app\obj/../lib/startup/startup.S:19
  2c:	00c5fc63          	bgeu	a1,a2,44 <_start+0x44>
d:\PDS\SparrowRV-master\bsp\bsp_app\obj/../lib/startup/startup.S:21
  30:	00052283          	lw	t0,0(a0)
d:\PDS\SparrowRV-master\bsp\bsp_app\obj/../lib/startup/startup.S:22
  34:	0055a023          	sw	t0,0(a1)
d:\PDS\SparrowRV-master\bsp\bsp_app\obj/../lib/startup/startup.S:23
  38:	00450513          	addi	a0,a0,4
d:\PDS\SparrowRV-master\bsp\bsp_app\obj/../lib/startup/startup.S:24
  3c:	00458593          	addi	a1,a1,4
d:\PDS\SparrowRV-master\bsp\bsp_app\obj/../lib/startup/startup.S:25
  40:	fec5e8e3          	bltu	a1,a2,30 <_start+0x30>
d:\PDS\SparrowRV-master\bsp\bsp_app\obj/../lib/startup/startup.S:30
  44:	20000517          	auipc	a0,0x20000
  48:	2cc50513          	addi	a0,a0,716 # 20000310 <system_vendorid>
d:\PDS\SparrowRV-master\bsp\bsp_app\obj/../lib/startup/startup.S:31
  4c:	82818593          	addi	a1,gp,-2008 # 20000338 <_end>
d:\PDS\SparrowRV-master\bsp\bsp_app\obj/../lib/startup/startup.S:32
  50:	00b57863          	bgeu	a0,a1,60 <_start+0x60>
d:\PDS\SparrowRV-master\bsp\bsp_app\obj/../lib/startup/startup.S:34
  54:	00052023          	sw	zero,0(a0)
d:\PDS\SparrowRV-master\bsp\bsp_app\obj/../lib/startup/startup.S:35
  58:	00450513          	addi	a0,a0,4
d:\PDS\SparrowRV-master\bsp\bsp_app\obj/../lib/startup/startup.S:36
  5c:	feb56ce3          	bltu	a0,a1,54 <_start+0x54>
d:\PDS\SparrowRV-master\bsp\bsp_app\obj/../lib/startup/startup.S:40
  60:	190000ef          	jal	ra,1f0 <sparrowrv_system_init>
d:\PDS\SparrowRV-master\bsp\bsp_app\obj/../lib/startup/startup.S:41
  64:	04c000ef          	jal	ra,b0 <main>
d:\PDS\SparrowRV-master\bsp\bsp_app\obj/../lib/startup/startup.S:43
  68:	3470d073          	csrwi	0x347,1

0000006c <loop>:
loop():
d:\PDS\SparrowRV-master\bsp\bsp_app\obj/../lib/startup/startup.S:45
  6c:	0000006f          	j	6c <loop>

00000070 <trap_vector_tab>:
trap_vector_tab():
d:\PDS\SparrowRV-master\bsp\bsp_app\obj/../lib/startup/startup.S:54
  70:	f91ff06f          	j	0 <_start>
d:\PDS\SparrowRV-master\bsp\bsp_app\obj/../lib/startup/startup.S:55
  74:	4350106f          	j	1ca8 <HardFault_Handler>
d:\PDS\SparrowRV-master\bsp\bsp_app\obj/../lib/startup/startup.S:56
  78:	1e40006f          	j	25c <SW_Handler>
d:\PDS\SparrowRV-master\bsp\bsp_app\obj/../lib/startup/startup.S:57
  7c:	4290106f          	j	1ca4 <SysTick_Handler>
d:\PDS\SparrowRV-master\bsp\bsp_app\obj/../lib/startup/startup.S:58
  80:	1e40006f          	j	264 <PLIC0_Handler>
d:\PDS\SparrowRV-master\bsp\bsp_app\obj/../lib/startup/startup.S:59
  84:	4290106f          	j	1cac <PLIC1_FPIOA_ELI0_Handler>
d:\PDS\SparrowRV-master\bsp\bsp_app\obj/../lib/startup/startup.S:60
  88:	4bd0106f          	j	1d44 <PLIC2_FPIOA_ELI1_Handler>
d:\PDS\SparrowRV-master\bsp\bsp_app\obj/../lib/startup/startup.S:61
  8c:	5510106f          	j	1ddc <PLIC3_FPIOA_ELI2_Handler>
d:\PDS\SparrowRV-master\bsp\bsp_app\obj/../lib/startup/startup.S:62
  90:	5e50106f          	j	1e74 <PLIC4_FPIOA_ELI3_Handler>
d:\PDS\SparrowRV-master\bsp\bsp_app\obj/../lib/startup/startup.S:63
  94:	6790106f          	j	1f0c <PLIC5_UART0_TX_Handler>
d:\PDS\SparrowRV-master\bsp\bsp_app\obj/../lib/startup/startup.S:64
  98:	70d0106f          	j	1fa4 <PLIC6_UART0_RX_Handler>
d:\PDS\SparrowRV-master\bsp\bsp_app\obj/../lib/startup/startup.S:65
  9c:	7a10106f          	j	203c <PLIC7_UART1_TX_Handler>
d:\PDS\SparrowRV-master\bsp\bsp_app\obj/../lib/startup/startup.S:66
  a0:	0340206f          	j	20d4 <PLIC8_UART1_RX_Handler>
d:\PDS\SparrowRV-master\bsp\bsp_app\obj/../lib/startup/startup.S:67
  a4:	0c80206f          	j	216c <PLIC9_TIMER0_OF_Handler>
d:\PDS\SparrowRV-master\bsp\bsp_app\obj/../lib/startup/startup.S:68
  a8:	15c0206f          	j	2204 <PLIC10_SPI0_END_Handler>
  ac:	00000000          	.word	0x00000000

Disassembly of section .text:

000000b0 <main>:
main():
d:\PDS\test\Sparrow_RISC-V\MRS\obj/../app/main.c:181
    uart_byte(0x55);uart_byte(0xAA);
    printf(" raw ok\r\n");
}

int main(void){
    init_uart0_printf(115200,0);
      b0:	0001c537          	lui	a0,0x1c
d:\PDS\test\Sparrow_RISC-V\MRS\obj/../app/main.c:180
int main(void){
      b4:	fc010113          	addi	sp,sp,-64
d:\PDS\test\Sparrow_RISC-V\MRS\obj/../app/main.c:181
    init_uart0_printf(115200,0);
      b8:	00000593          	li	a1,0
      bc:	20050513          	addi	a0,a0,512 # 1c200 <__stack_size+0x18200>
d:\PDS\test\Sparrow_RISC-V\MRS\obj/../app/main.c:180
int main(void){
      c0:	02112e23          	sw	ra,60(sp)
      c4:	02812c23          	sw	s0,56(sp)
      c8:	02912a23          	sw	s1,52(sp)
      cc:	03212823          	sw	s2,48(sp)
      d0:	03312623          	sw	s3,44(sp)
      d4:	03412423          	sw	s4,40(sp)
      d8:	03512223          	sw	s5,36(sp)
d:\PDS\test\Sparrow_RISC-V\MRS\obj/../app/main.c:181
    init_uart0_printf(115200,0);
      dc:	49c010ef          	jal	ra,1578 <init_uart0_printf>
unfreeze():
d:\PDS\test\Sparrow_RISC-V\MRS\obj/../app/main.c:34
static inline void unfreeze(void){*(volatile uint32_t*)FRAME_FREEZE_ADDR=0;}
      e0:	400007b7          	lui	a5,0x40000
      e4:	4007a023          	sw	zero,1024(a5) # 40000400 <_sp+0x1ffc0400>
delay():
d:\PDS\test\Sparrow_RISC-V\MRS\obj/../app/main.c:32
void delay(uint32_t c){for(volatile uint32_t i=0;i<c;i++);}
      e8:	00012a23          	sw	zero,20(sp)
      ec:	01412783          	lw	a5,20(sp)
      f0:	0007a737          	lui	a4,0x7a
      f4:	11f70713          	addi	a4,a4,287 # 7a11f <_app_prog_size+0x3a11f>
      f8:	00f76c63          	bltu	a4,a5,110 <main+0x60>
      fc:	01412783          	lw	a5,20(sp)
     100:	00178793          	addi	a5,a5,1
     104:	00f12a23          	sw	a5,20(sp)
     108:	01412783          	lw	a5,20(sp)
     10c:	fef778e3          	bgeu	a4,a5,fc <main+0x4c>
freeze():
d:\PDS\test\Sparrow_RISC-V\MRS\obj/../app/main.c:33
static inline void freeze(void){*(volatile uint32_t*)FRAME_FREEZE_ADDR=1;}
     110:	400007b7          	lui	a5,0x40000
     114:	00100713          	li	a4,1
     118:	40e7a023          	sw	a4,1024(a5) # 40000400 <_sp+0x1ffc0400>
delay():
d:\PDS\test\Sparrow_RISC-V\MRS\obj/../app/main.c:32
void delay(uint32_t c){for(volatile uint32_t i=0;i<c;i++);}
     11c:	00012823          	sw	zero,16(sp)
     120:	01012783          	lw	a5,16(sp)
     124:	0007a737          	lui	a4,0x7a
     128:	11f70713          	addi	a4,a4,287 # 7a11f <_app_prog_size+0x3a11f>
     12c:	00f76c63          	bltu	a4,a5,144 <main+0x94>
     130:	01012783          	lw	a5,16(sp)
     134:	00178793          	addi	a5,a5,1
     138:	00f12823          	sw	a5,16(sp)
     13c:	01012783          	lw	a5,16(sp)
     140:	fef778e3          	bgeu	a4,a5,130 <main+0x80>
unfreeze():
d:\PDS\test\Sparrow_RISC-V\MRS\obj/../app/main.c:34
static inline void unfreeze(void){*(volatile uint32_t*)FRAME_FREEZE_ADDR=0;}
     144:	400007b7          	lui	a5,0x40000
     148:	4007a023          	sw	zero,1024(a5) # 40000400 <_sp+0x1ffc0400>
delay():
d:\PDS\test\Sparrow_RISC-V\MRS\obj/../app/main.c:32
void delay(uint32_t c){for(volatile uint32_t i=0;i<c;i++);}
     14c:	00012623          	sw	zero,12(sp)
     150:	00c12783          	lw	a5,12(sp)
     154:	001e8737          	lui	a4,0x1e8
     158:	47f70713          	addi	a4,a4,1151 # 1e847f <_app_prog_size+0x1a847f>
     15c:	00f76c63          	bltu	a4,a5,174 <main+0xc4>
     160:	00c12783          	lw	a5,12(sp)
     164:	00178793          	addi	a5,a5,1
     168:	00f12623          	sw	a5,12(sp)
     16c:	00c12783          	lw	a5,12(sp)
     170:	fef778e3          	bgeu	a4,a5,160 <main+0xb0>
     174:	002dc437          	lui	s0,0x2dc
main():
d:\PDS\test\Sparrow_RISC-V\MRS\obj/../app/main.c:185
    unfreeze();delay(500000);
    freeze();delay(500000);
    unfreeze();delay(2000000);
    int loop=0;
     178:	00000493          	li	s1,0
     17c:	20000a37          	lui	s4,0x20000
freeze():
d:\PDS\test\Sparrow_RISC-V\MRS\obj/../app/main.c:33
static inline void freeze(void){*(volatile uint32_t*)FRAME_FREEZE_ADDR=1;}
     180:	40000937          	lui	s2,0x40000
     184:	00100993          	li	s3,1
delay():
d:\PDS\test\Sparrow_RISC-V\MRS\obj/../app/main.c:32
void delay(uint32_t c){for(volatile uint32_t i=0;i<c;i++);}
     188:	03100a93          	li	s5,49
     18c:	6bf40413          	addi	s0,s0,1727 # 2dc6bf <_app_prog_size+0x29c6bf>
main():
d:\PDS\test\Sparrow_RISC-V\MRS\obj/../app/main.c:187 (discriminator 1)
    while(1){
        printf("--- loop %d ---\r\n",++loop);
     190:	00148493          	addi	s1,s1,1
     194:	00048593          	mv	a1,s1
     198:	15ca0513          	addi	a0,s4,348 # 2000015c <_data+0x15c>
     19c:	418010ef          	jal	ra,15b4 <printf_>
freeze():
d:\PDS\test\Sparrow_RISC-V\MRS\obj/../app/main.c:33 (discriminator 1)
static inline void freeze(void){*(volatile uint32_t*)FRAME_FREEZE_ADDR=1;}
     1a0:	41392023          	sw	s3,1024(s2) # 40000400 <_sp+0x1ffc0400>
delay():
d:\PDS\test\Sparrow_RISC-V\MRS\obj/../app/main.c:32 (discriminator 1)
void delay(uint32_t c){for(volatile uint32_t i=0;i<c;i++);}
     1a4:	00012e23          	sw	zero,28(sp)
     1a8:	01c12783          	lw	a5,28(sp)
     1ac:	00faec63          	bltu	s5,a5,1c4 <main+0x114>
d:\PDS\test\Sparrow_RISC-V\MRS\obj/../app/main.c:32
     1b0:	01c12783          	lw	a5,28(sp)
     1b4:	00178793          	addi	a5,a5,1
     1b8:	00f12e23          	sw	a5,28(sp)
     1bc:	01c12783          	lw	a5,28(sp)
     1c0:	fefaf8e3          	bgeu	s5,a5,1b0 <main+0x100>
main():
d:\PDS\test\Sparrow_RISC-V\MRS\obj/../app/main.c:189
        freeze();delay(50);
        find_plate();
     1c4:	440010ef          	jal	ra,1604 <find_plate>
unfreeze():
d:\PDS\test\Sparrow_RISC-V\MRS\obj/../app/main.c:34
static inline void unfreeze(void){*(volatile uint32_t*)FRAME_FREEZE_ADDR=0;}
     1c8:	40092023          	sw	zero,1024(s2)
delay():
d:\PDS\test\Sparrow_RISC-V\MRS\obj/../app/main.c:32
void delay(uint32_t c){for(volatile uint32_t i=0;i<c;i++);}
     1cc:	00012c23          	sw	zero,24(sp)
     1d0:	01812783          	lw	a5,24(sp)
     1d4:	faf46ee3          	bltu	s0,a5,190 <main+0xe0>
     1d8:	01812783          	lw	a5,24(sp)
     1dc:	00178793          	addi	a5,a5,1
     1e0:	00f12c23          	sw	a5,24(sp)
     1e4:	01812783          	lw	a5,24(sp)
     1e8:	fef478e3          	bgeu	s0,a5,1d8 <main+0x128>
     1ec:	fa5ff06f          	j	190 <main+0xe0>

000001f0 <sparrowrv_system_init>:
sparrowrv_system_init():
d:\PDS\SparrowRV-master\bsp\bsp_app\obj/../lib/startup/init.c:28
     1f0:	07000793          	li	a5,112
     1f4:	30579073          	csrw	mtvec,a5
d:\PDS\SparrowRV-master\bsp\bsp_app\obj/../lib/startup/init.c:30
     1f8:	f13027f3          	csrr	a5,mimpid
d:\PDS\SparrowRV-master\bsp\bsp_app\obj/../lib/startup/init.c:31
     1fc:	000026b7          	lui	a3,0x2
     200:	01179713          	slli	a4,a5,0x11
     204:	71068693          	addi	a3,a3,1808 # 2710 <__udivdi3+0x474>
     208:	01175713          	srli	a4,a4,0x11
     20c:	02d70733          	mul	a4,a4,a3
d:\PDS\SparrowRV-master\bsp\bsp_app\obj/../lib/startup/init.c:32
     210:	000f46b7          	lui	a3,0xf4
     214:	24068693          	addi	a3,a3,576 # f4240 <_app_prog_size+0xb4240>
d:\PDS\SparrowRV-master\bsp\bsp_app\obj/../lib/startup/init.c:33
     218:	0107d613          	srli	a2,a5,0x10
     21c:	0ff67613          	zext.b	a2,a2
     220:	00a61613          	slli	a2,a2,0xa
d:\PDS\SparrowRV-master\bsp\bsp_app\obj/../lib/startup/init.c:34
     224:	0187d793          	srli	a5,a5,0x18
     228:	00a79793          	slli	a5,a5,0xa
d:\PDS\SparrowRV-master\bsp\bsp_app\obj/../lib/startup/init.c:32
     22c:	02d756b3          	divu	a3,a4,a3
d:\PDS\SparrowRV-master\bsp\bsp_app\obj/../lib/startup/init.c:31
     230:	80e1a823          	sw	a4,-2032(gp) # 20000320 <system_cpu_freq>
d:\PDS\SparrowRV-master\bsp\bsp_app\obj/../lib/startup/init.c:33
     234:	20000737          	lui	a4,0x20000
     238:	30c72c23          	sw	a2,792(a4) # 20000318 <system_iram_size>
d:\PDS\SparrowRV-master\bsp\bsp_app\obj/../lib/startup/init.c:34
     23c:	20000737          	lui	a4,0x20000
     240:	30f72a23          	sw	a5,788(a4) # 20000314 <system_sram_size>
d:\PDS\SparrowRV-master\bsp\bsp_app\obj/../lib/startup/init.c:32
     244:	80d1a623          	sw	a3,-2036(gp) # 2000031c <system_cpu_freqM>
d:\PDS\SparrowRV-master\bsp\bsp_app\obj/../lib/startup/init.c:35
     248:	f1102773          	csrr	a4,mvendorid
     24c:	200007b7          	lui	a5,0x20000
     250:	30e7a823          	sw	a4,784(a5) # 20000310 <system_vendorid>
d:\PDS\SparrowRV-master\bsp\bsp_app\obj/../lib/startup/init.c:38
     254:	00008067          	ret
d:\PDS\SparrowRV-master\bsp\bsp_app\obj/../lib/startup/startup.S:88
     258:	0000006f          	j	258 <sparrowrv_system_init+0x68>

0000025c <SW_Handler>:
SW_Handler():
d:\PDS\SparrowRV-master\bsp\bsp_app\obj/../lib/startup/startup.S:89
     25c:	0000006f          	j	25c <SW_Handler>
d:\PDS\SparrowRV-master\bsp\bsp_app\obj/../lib/startup/startup.S:90
     260:	0000006f          	j	260 <SW_Handler+0x4>

00000264 <PLIC0_Handler>:
PLIC0_Handler():
d:\PDS\SparrowRV-master\bsp\bsp_app\obj/../lib/startup/startup.S:91
     264:	0000006f          	j	264 <PLIC0_Handler>
d:\PDS\SparrowRV-master\bsp\bsp_app\obj/../lib/startup/startup.S:92
     268:	0000006f          	j	268 <PLIC0_Handler+0x4>
d:\PDS\SparrowRV-master\bsp\bsp_app\obj/../lib/startup/startup.S:93
     26c:	0000006f          	j	26c <PLIC0_Handler+0x8>
d:\PDS\SparrowRV-master\bsp\bsp_app\obj/../lib/startup/startup.S:94
     270:	0000006f          	j	270 <PLIC0_Handler+0xc>
d:\PDS\SparrowRV-master\bsp\bsp_app\obj/../lib/startup/startup.S:95
     274:	0000006f          	j	274 <PLIC0_Handler+0x10>
d:\PDS\SparrowRV-master\bsp\bsp_app\obj/../lib/startup/startup.S:96
     278:	0000006f          	j	278 <PLIC0_Handler+0x14>
d:\PDS\SparrowRV-master\bsp\bsp_app\obj/../lib/startup/startup.S:97
     27c:	0000006f          	j	27c <PLIC0_Handler+0x18>
d:\PDS\SparrowRV-master\bsp\bsp_app\obj/../lib/startup/startup.S:98
     280:	0000006f          	j	280 <PLIC0_Handler+0x1c>
d:\PDS\SparrowRV-master\bsp\bsp_app\obj/../lib/startup/startup.S:99
     284:	0000006f          	j	284 <PLIC0_Handler+0x20>
d:\PDS\SparrowRV-master\bsp\bsp_app\obj/../lib/startup/startup.S:100
     288:	0000006f          	j	288 <PLIC0_Handler+0x24>
d:\PDS\SparrowRV-master\bsp\bsp_app\obj/../lib/startup/startup.S:101
     28c:	0000006f          	j	28c <PLIC0_Handler+0x28>

00000290 <csr_msprint_string>:
csr_msprint_string():
d:\PDS\test\Sparrow_RISC-V\MRS\obj/../lib/perip/src/core.c:211
 *
 * @return  无
 */
void csr_msprint_string(uint8_t *str)
{
    while (*str)//检测字符串结束标志
     290:	00c0006f          	j	29c <csr_msprint_string+0xc>
d:\PDS\test\Sparrow_RISC-V\MRS\obj/../lib/perip/src/core.c:213 (discriminator 2)
    {
        write_csr(msprint, *str++);//msprint打印当前字符
     294:	00150513          	addi	a0,a0,1
     298:	34679073          	csrw	0x346,a5
d:\PDS\test\Sparrow_RISC-V\MRS\obj/../lib/perip/src/core.c:211 (discriminator 2)
    while (*str)//检测字符串结束标志
     29c:	00054783          	lbu	a5,0(a0)
     2a0:	fe079ae3          	bnez	a5,294 <csr_msprint_string+0x4>
d:\PDS\test\Sparrow_RISC-V\MRS\obj/../lib/perip/src/core.c:215
    }
     2a4:	00008067          	ret

000002a8 <fpioa_perips_out_set>:
fpioa_perips_out_set():
d:\PDS\test\Sparrow_RISC-V\MRS\obj/../lib/perip/src/fpioa.c:15
 *
 * @return  无
 */
void fpioa_perips_out_set(uint8_t fpioa_perips_o, uint8_t FPIOAx)
{
    SYS_RWMEM_B(FPIOA_OT_BASE + FPIOAx) = fpioa_perips_o;
     2a8:	400017b7          	lui	a5,0x40001
     2ac:	f0078793          	addi	a5,a5,-256 # 40000f00 <_sp+0x1ffc0f00>
     2b0:	00f585b3          	add	a1,a1,a5
     2b4:	00a58023          	sb	a0,0(a1)
d:\PDS\test\Sparrow_RISC-V\MRS\obj/../lib/perip/src/fpioa.c:16
}
     2b8:	00008067          	ret

000002bc <uart_enable_ctrl>:
uart_enable_ctrl():
d:\PDS\test\Sparrow_RISC-V\MRS\obj/../lib/perip/src/uart.c:19
 * @return  无
 */
void uart_enable_ctrl(uint32_t UARTx, uint32_t uart_en)
{
    uint32_t tmp;
    tmp = SYS_RWMEM_W(UART_CTRL(UARTx));
     2bc:	00052783          	lw	a5,0(a0)
d:\PDS\test\Sparrow_RISC-V\MRS\obj/../lib/perip/src/uart.c:20
    if(uart_en == ENABLE)
     2c0:	00100713          	li	a4,1
     2c4:	00e58863          	beq	a1,a4,2d4 <uart_enable_ctrl+0x18>
d:\PDS\test\Sparrow_RISC-V\MRS\obj/../lib/perip/src/uart.c:26
    {
        SYS_RWMEM_W(UART_CTRL(UARTx)) = tmp | 0b0011;
    }
    else
    {
        SYS_RWMEM_W(UART_CTRL(UARTx)) = tmp & 0b1100;
     2c8:	00c7f793          	andi	a5,a5,12
     2cc:	00f52023          	sw	a5,0(a0)
d:\PDS\test\Sparrow_RISC-V\MRS\obj/../lib/perip/src/uart.c:28
    }
}
     2d0:	00008067          	ret
d:\PDS\test\Sparrow_RISC-V\MRS\obj/../lib/perip/src/uart.c:22
        SYS_RWMEM_W(UART_CTRL(UARTx)) = tmp | 0b0011;
     2d4:	0037e793          	ori	a5,a5,3
     2d8:	00f52023          	sw	a5,0(a0)
     2dc:	00008067          	ret

000002e0 <uart_band_ctrl>:
uart_band_ctrl():
d:\PDS\test\Sparrow_RISC-V\MRS\obj/../lib/perip/src/uart.c:43
 *
 * @return  无
 */
void uart_band_ctrl(uint32_t UARTx, uint32_t uart_band)
{
    SYS_RWMEM_W(UART_BAUD(UARTx)) = system_cpu_freq / uart_band ; //计算出分频器的值
     2e0:	8101a783          	lw	a5,-2032(gp) # 20000320 <system_cpu_freq>
     2e4:	02b7d7b3          	divu	a5,a5,a1
     2e8:	00f52423          	sw	a5,8(a0)
d:\PDS\test\Sparrow_RISC-V\MRS\obj/../lib/perip/src/uart.c:44
}
     2ec:	00008067          	ret

000002f0 <_out_null>:
_out_null():
d:\PDS\test\Sparrow_RISC-V\MRS\obj/../lib/driver/src/printf.c:169

// internal null output
static inline void _out_null(char character, void* buffer, size_t idx, size_t maxlen)
{
  (void)character; (void)buffer; (void)idx; (void)maxlen;
}
     2f0:	00008067          	ret

000002f4 <_ntoa_format>:
_ntoa_format():
d:\PDS\test\Sparrow_RISC-V\MRS\obj/../lib/driver/src/printf.c:252
}


// internal itoa format
static size_t _ntoa_format(out_fct_type out, char* buffer, size_t idx, size_t maxlen, char* buf, size_t len, bool negative, unsigned int base, unsigned int prec, unsigned int width, unsigned int flags)
{
     2f4:	fd010113          	addi	sp,sp,-48
     2f8:	03812303          	lw	t1,56(sp)
     2fc:	02812423          	sw	s0,40(sp)
     300:	03212023          	sw	s2,32(sp)
     304:	01312e23          	sw	s3,28(sp)
     308:	01412c23          	sw	s4,24(sp)
     30c:	01512a23          	sw	s5,20(sp)
     310:	01612823          	sw	s6,16(sp)
     314:	01712623          	sw	s7,12(sp)
     318:	01812423          	sw	s8,8(sp)
     31c:	02112623          	sw	ra,44(sp)
     320:	02912223          	sw	s1,36(sp)
     324:	01912223          	sw	s9,4(sp)
d:\PDS\test\Sparrow_RISC-V\MRS\obj/../lib/driver/src/printf.c:254
  // pad leading zeros
  if (!(flags & FLAGS_LEFT)) {
     328:	00237c13          	andi	s8,t1,2
d:\PDS\test\Sparrow_RISC-V\MRS\obj/../lib/driver/src/printf.c:252
{
     32c:	03012e03          	lw	t3,48(sp)
     330:	03412b83          	lw	s7,52(sp)
     334:	00050993          	mv	s3,a0
     338:	00058a13          	mv	s4,a1
     33c:	00060b13          	mv	s6,a2
     340:	00068a93          	mv	s5,a3
     344:	00070913          	mv	s2,a4
     348:	00078413          	mv	s0,a5
d:\PDS\test\Sparrow_RISC-V\MRS\obj/../lib/driver/src/printf.c:254
  if (!(flags & FLAGS_LEFT)) {
     34c:	060c1463          	bnez	s8,3b4 <_ntoa_format+0xc0>
d:\PDS\test\Sparrow_RISC-V\MRS\obj/../lib/driver/src/printf.c:255
    if (width && (flags & FLAGS_ZEROPAD) && (negative || (flags & (FLAGS_PLUS | FLAGS_SPACE)))) {
     350:	160b9463          	bnez	s7,4b8 <_ntoa_format+0x1c4>
d:\PDS\test\Sparrow_RISC-V\MRS\obj/../lib/driver/src/printf.c:258
      width--;
    }
    while ((len < prec) && (len < PRINTF_NTOA_BUFFER_SIZE)) {
     354:	07c7f063          	bgeu	a5,t3,3b4 <_ntoa_format+0xc0>
     358:	02000793          	li	a5,32
d:\PDS\test\Sparrow_RISC-V\MRS\obj/../lib/driver/src/printf.c:255
    if (width && (flags & FLAGS_ZEROPAD) && (negative || (flags & (FLAGS_PLUS | FLAGS_SPACE)))) {
     35c:	00137613          	andi	a2,t1,1
d:\PDS\test\Sparrow_RISC-V\MRS\obj/../lib/driver/src/printf.c:258
    while ((len < prec) && (len < PRINTF_NTOA_BUFFER_SIZE)) {
     360:	3cf40e63          	beq	s0,a5,73c <_ntoa_format+0x448>
d:\PDS\test\Sparrow_RISC-V\MRS\obj/../lib/driver/src/printf.c:259
      buf[len++] = '0';
     364:	03000713          	li	a4,48
d:\PDS\test\Sparrow_RISC-V\MRS\obj/../lib/driver/src/printf.c:258
    while ((len < prec) && (len < PRINTF_NTOA_BUFFER_SIZE)) {
     368:	02000693          	li	a3,32
     36c:	0080006f          	j	374 <_ntoa_format+0x80>
d:\PDS\test\Sparrow_RISC-V\MRS\obj/../lib/driver/src/printf.c:258 (discriminator 1)
     370:	20d40a63          	beq	s0,a3,584 <_ntoa_format+0x290>
d:\PDS\test\Sparrow_RISC-V\MRS\obj/../lib/driver/src/printf.c:259
      buf[len++] = '0';
     374:	00140413          	addi	s0,s0,1
     378:	008907b3          	add	a5,s2,s0
     37c:	fee78fa3          	sb	a4,-1(a5)
d:\PDS\test\Sparrow_RISC-V\MRS\obj/../lib/driver/src/printf.c:258
    while ((len < prec) && (len < PRINTF_NTOA_BUFFER_SIZE)) {
     380:	ffc468e3          	bltu	s0,t3,370 <_ntoa_format+0x7c>
d:\PDS\test\Sparrow_RISC-V\MRS\obj/../lib/driver/src/printf.c:261
    }
    while ((flags & FLAGS_ZEROPAD) && (len < width) && (len < PRINTF_NTOA_BUFFER_SIZE)) {
     384:	02060863          	beqz	a2,3b4 <_ntoa_format+0xc0>
     388:	03747663          	bgeu	s0,s7,3b4 <_ntoa_format+0xc0>
     38c:	02000793          	li	a5,32
d:\PDS\test\Sparrow_RISC-V\MRS\obj/../lib/driver/src/printf.c:262
      buf[len++] = '0';
     390:	03000713          	li	a4,48
d:\PDS\test\Sparrow_RISC-V\MRS\obj/../lib/driver/src/printf.c:261
    while ((flags & FLAGS_ZEROPAD) && (len < width) && (len < PRINTF_NTOA_BUFFER_SIZE)) {
     394:	02000693          	li	a3,32
     398:	00f41663          	bne	s0,a5,3a4 <_ntoa_format+0xb0>
     39c:	1f00006f          	j	58c <_ntoa_format+0x298>
d:\PDS\test\Sparrow_RISC-V\MRS\obj/../lib/driver/src/printf.c:261 (discriminator 2)
     3a0:	14d40863          	beq	s0,a3,4f0 <_ntoa_format+0x1fc>
d:\PDS\test\Sparrow_RISC-V\MRS\obj/../lib/driver/src/printf.c:262
      buf[len++] = '0';
     3a4:	00140413          	addi	s0,s0,1
     3a8:	008907b3          	add	a5,s2,s0
     3ac:	fee78fa3          	sb	a4,-1(a5)
d:\PDS\test\Sparrow_RISC-V\MRS\obj/../lib/driver/src/printf.c:261
    while ((flags & FLAGS_ZEROPAD) && (len < width) && (len < PRINTF_NTOA_BUFFER_SIZE)) {
     3b0:	ff7418e3          	bne	s0,s7,3a0 <_ntoa_format+0xac>
d:\PDS\test\Sparrow_RISC-V\MRS\obj/../lib/driver/src/printf.c:267
    }
  }

  // handle hash
  if (flags & FLAGS_HASH) {
     3b4:	01037793          	andi	a5,t1,16
     3b8:	0e078263          	beqz	a5,49c <_ntoa_format+0x1a8>
d:\PDS\test\Sparrow_RISC-V\MRS\obj/../lib/driver/src/printf.c:268
    if (!(flags & FLAGS_PRECISION) && len && ((len == prec) || (len == width))) {
     3bc:	40037793          	andi	a5,t1,1024
     3c0:	14079663          	bnez	a5,50c <_ntoa_format+0x218>
d:\PDS\test\Sparrow_RISC-V\MRS\obj/../lib/driver/src/printf.c:268 (discriminator 1)
     3c4:	14041063          	bnez	s0,504 <_ntoa_format+0x210>
d:\PDS\test\Sparrow_RISC-V\MRS\obj/../lib/driver/src/printf.c:274
      len--;
      if (len && (base == 16U)) {
        len--;
      }
    }
    if ((base == 16U) && !(flags & FLAGS_UPPERCASE) && (len < PRINTF_NTOA_BUFFER_SIZE)) {
     3c8:	01000793          	li	a5,16
     3cc:	2cf88263          	beq	a7,a5,690 <_ntoa_format+0x39c>
d:\PDS\test\Sparrow_RISC-V\MRS\obj/../lib/driver/src/printf.c:280
      buf[len++] = 'x';
    }
    else if ((base == 16U) && (flags & FLAGS_UPPERCASE) && (len < PRINTF_NTOA_BUFFER_SIZE)) {
      buf[len++] = 'X';
    }
    else if ((base == 2U) && (len < PRINTF_NTOA_BUFFER_SIZE)) {
     3d0:	00200793          	li	a5,2
     3d4:	36f88063          	beq	a7,a5,734 <_ntoa_format+0x440>
d:\PDS\test\Sparrow_RISC-V\MRS\obj/../lib/driver/src/printf.c:284
      buf[len++] = 'b';
    }
    if (len < PRINTF_NTOA_BUFFER_SIZE) {
      buf[len++] = '0';
     3d8:	03000793          	li	a5,48
     3dc:	00f90023          	sb	a5,0(s2)
     3e0:	00100413          	li	s0,1
     3e4:	00337793          	andi	a5,t1,3
d:\PDS\test\Sparrow_RISC-V\MRS\obj/../lib/driver/src/printf.c:289
    }
  }

  if (len < PRINTF_NTOA_BUFFER_SIZE) {
    if (negative) {
     3e8:	1e081a63          	bnez	a6,5dc <_ntoa_format+0x2e8>
d:\PDS\test\Sparrow_RISC-V\MRS\obj/../lib/driver/src/printf.c:292
      buf[len++] = '-';
    }
    else if (flags & FLAGS_PLUS) {
     3ec:	00437713          	andi	a4,t1,4
     3f0:	28070263          	beqz	a4,674 <_ntoa_format+0x380>
d:\PDS\test\Sparrow_RISC-V\MRS\obj/../lib/driver/src/printf.c:293
      buf[len++] = '+';  // ignore the space if the '+' exists
     3f4:	00890733          	add	a4,s2,s0
     3f8:	02b00693          	li	a3,43
     3fc:	00d70023          	sb	a3,0(a4)
     400:	00140413          	addi	s0,s0,1
_out_rev():
d:\PDS\test\Sparrow_RISC-V\MRS\obj/../lib/driver/src/printf.c:228
  if (!(flags & FLAGS_LEFT) && !(flags & FLAGS_ZEROPAD)) {
     404:	000b0493          	mv	s1,s6
     408:	00079463          	bnez	a5,410 <_ntoa_format+0x11c>
d:\PDS\test\Sparrow_RISC-V\MRS\obj/../lib/driver/src/printf.c:229
    for (size_t i = len; i < width; i++) {
     40c:	13746663          	bltu	s0,s7,538 <_ntoa_format+0x244>
     410:	00940cb3          	add	s9,s0,s1
     414:	408c8633          	sub	a2,s9,s0
d:\PDS\test\Sparrow_RISC-V\MRS\obj/../lib/driver/src/printf.c:236
    out(buf[--len], buffer, idx++, maxlen);
     418:	fff40413          	addi	s0,s0,-1
     41c:	008907b3          	add	a5,s2,s0
     420:	0007c503          	lbu	a0,0(a5)
     424:	000a8693          	mv	a3,s5
     428:	000a0593          	mv	a1,s4
     42c:	000c8493          	mv	s1,s9
     430:	000980e7          	jalr	s3
d:\PDS\test\Sparrow_RISC-V\MRS\obj/../lib/driver/src/printf.c:235
  while (len) {
     434:	fe0410e3          	bnez	s0,414 <_ntoa_format+0x120>
d:\PDS\test\Sparrow_RISC-V\MRS\obj/../lib/driver/src/printf.c:240
  if (flags & FLAGS_LEFT) {
     438:	020c0663          	beqz	s8,464 <_ntoa_format+0x170>
d:\PDS\test\Sparrow_RISC-V\MRS\obj/../lib/driver/src/printf.c:241
    while (idx - start_idx < width) {
     43c:	41648b33          	sub	s6,s1,s6
     440:	037b7263          	bgeu	s6,s7,464 <_ntoa_format+0x170>
d:\PDS\test\Sparrow_RISC-V\MRS\obj/../lib/driver/src/printf.c:242
      out(' ', buffer, idx++, maxlen);
     444:	00048613          	mv	a2,s1
d:\PDS\test\Sparrow_RISC-V\MRS\obj/../lib/driver/src/printf.c:241
    while (idx - start_idx < width) {
     448:	001b0b13          	addi	s6,s6,1
d:\PDS\test\Sparrow_RISC-V\MRS\obj/../lib/driver/src/printf.c:242
      out(' ', buffer, idx++, maxlen);
     44c:	000a8693          	mv	a3,s5
     450:	000a0593          	mv	a1,s4
     454:	02000513          	li	a0,32
     458:	00148493          	addi	s1,s1,1
     45c:	000980e7          	jalr	s3
d:\PDS\test\Sparrow_RISC-V\MRS\obj/../lib/driver/src/printf.c:241
    while (idx - start_idx < width) {
     460:	ff7b62e3          	bltu	s6,s7,444 <_ntoa_format+0x150>
_ntoa_format():
d:\PDS\test\Sparrow_RISC-V\MRS\obj/../lib/driver/src/printf.c:301
      buf[len++] = ' ';
    }
  }

  return _out_rev(out, buffer, idx, maxlen, buf, len, width, flags);
}
     464:	02c12083          	lw	ra,44(sp)
     468:	02812403          	lw	s0,40(sp)
     46c:	02012903          	lw	s2,32(sp)
     470:	01c12983          	lw	s3,28(sp)
     474:	01812a03          	lw	s4,24(sp)
     478:	01412a83          	lw	s5,20(sp)
     47c:	01012b03          	lw	s6,16(sp)
     480:	00c12b83          	lw	s7,12(sp)
     484:	00812c03          	lw	s8,8(sp)
     488:	00412c83          	lw	s9,4(sp)
     48c:	00048513          	mv	a0,s1
     490:	02412483          	lw	s1,36(sp)
     494:	03010113          	addi	sp,sp,48
     498:	00008067          	ret
     49c:	00337793          	andi	a5,t1,3
d:\PDS\test\Sparrow_RISC-V\MRS\obj/../lib/driver/src/printf.c:288
  if (len < PRINTF_NTOA_BUFFER_SIZE) {
     4a0:	02000713          	li	a4,32
     4a4:	f4e412e3          	bne	s0,a4,3e8 <_ntoa_format+0xf4>
_out_rev():
d:\PDS\test\Sparrow_RISC-V\MRS\obj/../lib/driver/src/printf.c:228
  if (!(flags & FLAGS_LEFT) && !(flags & FLAGS_ZEROPAD)) {
     4a8:	00079463          	bnez	a5,4b0 <_ntoa_format+0x1bc>
d:\PDS\test\Sparrow_RISC-V\MRS\obj/../lib/driver/src/printf.c:229
    for (size_t i = len; i < width; i++) {
     4ac:	09746663          	bltu	s0,s7,538 <_ntoa_format+0x244>
d:\PDS\test\Sparrow_RISC-V\MRS\obj/../lib/driver/src/printf.c:228
  if (!(flags & FLAGS_LEFT) && !(flags & FLAGS_ZEROPAD)) {
     4b0:	000b0493          	mv	s1,s6
     4b4:	f5dff06f          	j	410 <_ntoa_format+0x11c>
_ntoa_format():
d:\PDS\test\Sparrow_RISC-V\MRS\obj/../lib/driver/src/printf.c:255 (discriminator 1)
    if (width && (flags & FLAGS_ZEROPAD) && (negative || (flags & (FLAGS_PLUS | FLAGS_SPACE)))) {
     4b8:	00137613          	andi	a2,t1,1
     4bc:	12060a63          	beqz	a2,5f0 <_ntoa_format+0x2fc>
d:\PDS\test\Sparrow_RISC-V\MRS\obj/../lib/driver/src/printf.c:255 (discriminator 2)
     4c0:	16081663          	bnez	a6,62c <_ntoa_format+0x338>
d:\PDS\test\Sparrow_RISC-V\MRS\obj/../lib/driver/src/printf.c:255 (discriminator 3)
     4c4:	00c37793          	andi	a5,t1,12
     4c8:	16079263          	bnez	a5,62c <_ntoa_format+0x338>
d:\PDS\test\Sparrow_RISC-V\MRS\obj/../lib/driver/src/printf.c:258
    while ((len < prec) && (len < PRINTF_NTOA_BUFFER_SIZE)) {
     4cc:	ebc47ee3          	bgeu	s0,t3,388 <_ntoa_format+0x94>
     4d0:	02000793          	li	a5,32
     4d4:	e8f418e3          	bne	s0,a5,364 <_ntoa_format+0x70>
d:\PDS\test\Sparrow_RISC-V\MRS\obj/../lib/driver/src/printf.c:267
  if (flags & FLAGS_HASH) {
     4d8:	01037793          	andi	a5,t1,16
d:\PDS\test\Sparrow_RISC-V\MRS\obj/../lib/driver/src/printf.c:261
    while ((flags & FLAGS_ZEROPAD) && (len < width) && (len < PRINTF_NTOA_BUFFER_SIZE)) {
     4dc:	0b746863          	bltu	s0,s7,58c <_ntoa_format+0x298>
d:\PDS\test\Sparrow_RISC-V\MRS\obj/../lib/driver/src/printf.c:267
  if (flags & FLAGS_HASH) {
     4e0:	ec079ee3          	bnez	a5,3bc <_ntoa_format+0xc8>
     4e4:	00337793          	andi	a5,t1,3
_out_rev():
d:\PDS\test\Sparrow_RISC-V\MRS\obj/../lib/driver/src/printf.c:228
  if (!(flags & FLAGS_LEFT) && !(flags & FLAGS_ZEROPAD)) {
     4e8:	fc0794e3          	bnez	a5,4b0 <_ntoa_format+0x1bc>
     4ec:	fc1ff06f          	j	4ac <_ntoa_format+0x1b8>
_ntoa_format():
d:\PDS\test\Sparrow_RISC-V\MRS\obj/../lib/driver/src/printf.c:267
  if (flags & FLAGS_HASH) {
     4f0:	01037793          	andi	a5,t1,16
     4f4:	14078663          	beqz	a5,640 <_ntoa_format+0x34c>
d:\PDS\test\Sparrow_RISC-V\MRS\obj/../lib/driver/src/printf.c:268
    if (!(flags & FLAGS_PRECISION) && len && ((len == prec) || (len == width))) {
     4f8:	40037793          	andi	a5,t1,1024
     4fc:	02000413          	li	s0,32
     500:	00079663          	bnez	a5,50c <_ntoa_format+0x218>
d:\PDS\test\Sparrow_RISC-V\MRS\obj/../lib/driver/src/printf.c:268 (discriminator 2)
     504:	128e0863          	beq	t3,s0,634 <_ntoa_format+0x340>
d:\PDS\test\Sparrow_RISC-V\MRS\obj/../lib/driver/src/printf.c:268 (discriminator 3)
     508:	13740663          	beq	s0,s7,634 <_ntoa_format+0x340>
d:\PDS\test\Sparrow_RISC-V\MRS\obj/../lib/driver/src/printf.c:274
    if ((base == 16U) && !(flags & FLAGS_UPPERCASE) && (len < PRINTF_NTOA_BUFFER_SIZE)) {
     50c:	01000793          	li	a5,16
     510:	12f88e63          	beq	a7,a5,64c <_ntoa_format+0x358>
d:\PDS\test\Sparrow_RISC-V\MRS\obj/../lib/driver/src/printf.c:280
    else if ((base == 2U) && (len < PRINTF_NTOA_BUFFER_SIZE)) {
     514:	00200793          	li	a5,2
     518:	0ef88c63          	beq	a7,a5,610 <_ntoa_format+0x31c>
_out_rev():
d:\PDS\test\Sparrow_RISC-V\MRS\obj/../lib/driver/src/printf.c:228
  if (!(flags & FLAGS_LEFT) && !(flags & FLAGS_ZEROPAD)) {
     51c:	00337793          	andi	a5,t1,3
_ntoa_format():
d:\PDS\test\Sparrow_RISC-V\MRS\obj/../lib/driver/src/printf.c:283
    if (len < PRINTF_NTOA_BUFFER_SIZE) {
     520:	02000693          	li	a3,32
_out_rev():
d:\PDS\test\Sparrow_RISC-V\MRS\obj/../lib/driver/src/printf.c:228
  if (!(flags & FLAGS_LEFT) && !(flags & FLAGS_ZEROPAD)) {
     524:	00078713          	mv	a4,a5
_ntoa_format():
d:\PDS\test\Sparrow_RISC-V\MRS\obj/../lib/driver/src/printf.c:283
    if (len < PRINTF_NTOA_BUFFER_SIZE) {
     528:	1ed41463          	bne	s0,a3,710 <_ntoa_format+0x41c>
_out_rev():
d:\PDS\test\Sparrow_RISC-V\MRS\obj/../lib/driver/src/printf.c:228
  if (!(flags & FLAGS_LEFT) && !(flags & FLAGS_ZEROPAD)) {
     52c:	0e071a63          	bnez	a4,620 <_ntoa_format+0x32c>
d:\PDS\test\Sparrow_RISC-V\MRS\obj/../lib/driver/src/printf.c:229
    for (size_t i = len; i < width; i++) {
     530:	02000413          	li	s0,32
     534:	f7747ee3          	bgeu	s0,s7,4b0 <_ntoa_format+0x1bc>
     538:	000b0493          	mv	s1,s6
     53c:	41640cb3          	sub	s9,s0,s6
d:\PDS\test\Sparrow_RISC-V\MRS\obj/../lib/driver/src/printf.c:230
      out(' ', buffer, idx++, maxlen);
     540:	00048613          	mv	a2,s1
     544:	000a8693          	mv	a3,s5
     548:	000a0593          	mv	a1,s4
     54c:	02000513          	li	a0,32
     550:	00148493          	addi	s1,s1,1
     554:	000980e7          	jalr	s3
d:\PDS\test\Sparrow_RISC-V\MRS\obj/../lib/driver/src/printf.c:229
    for (size_t i = len; i < width; i++) {
     558:	009c87b3          	add	a5,s9,s1
     55c:	ff77e2e3          	bltu	a5,s7,540 <_ntoa_format+0x24c>
d:\PDS\test\Sparrow_RISC-V\MRS\obj/../lib/driver/src/printf.c:230
      out(' ', buffer, idx++, maxlen);
     560:	00140793          	addi	a5,s0,1
     564:	00000493          	li	s1,0
     568:	00fbe663          	bltu	s7,a5,574 <_ntoa_format+0x280>
     56c:	fffb8493          	addi	s1,s7,-1
     570:	408484b3          	sub	s1,s1,s0
     574:	001b0793          	addi	a5,s6,1
     578:	00f484b3          	add	s1,s1,a5
d:\PDS\test\Sparrow_RISC-V\MRS\obj/../lib/driver/src/printf.c:235
  while (len) {
     57c:	e8041ae3          	bnez	s0,410 <_ntoa_format+0x11c>
     580:	eb9ff06f          	j	438 <_ntoa_format+0x144>
_ntoa_format():
d:\PDS\test\Sparrow_RISC-V\MRS\obj/../lib/driver/src/printf.c:261
    while ((flags & FLAGS_ZEROPAD) && (len < width) && (len < PRINTF_NTOA_BUFFER_SIZE)) {
     584:	1c060e63          	beqz	a2,760 <_ntoa_format+0x46c>
     588:	f77474e3          	bgeu	s0,s7,4f0 <_ntoa_format+0x1fc>
d:\PDS\test\Sparrow_RISC-V\MRS\obj/../lib/driver/src/printf.c:267
  if (flags & FLAGS_HASH) {
     58c:	01037793          	andi	a5,t1,16
     590:	0a078863          	beqz	a5,640 <_ntoa_format+0x34c>
d:\PDS\test\Sparrow_RISC-V\MRS\obj/../lib/driver/src/printf.c:268
    if (!(flags & FLAGS_PRECISION) && len && ((len == prec) || (len == width))) {
     594:	40037793          	andi	a5,t1,1024
     598:	1e079263          	bnez	a5,77c <_ntoa_format+0x488>
     59c:	02000793          	li	a5,32
     5a0:	1efe0a63          	beq	t3,a5,794 <_ntoa_format+0x4a0>
     5a4:	02000413          	li	s0,32
     5a8:	f6fb92e3          	bne	s7,a5,50c <_ntoa_format+0x218>
d:\PDS\test\Sparrow_RISC-V\MRS\obj/../lib/driver/src/printf.c:269
      len--;
     5ac:	02000b93          	li	s7,32
     5b0:	02000413          	li	s0,32
     5b4:	01f00713          	li	a4,31
d:\PDS\test\Sparrow_RISC-V\MRS\obj/../lib/driver/src/printf.c:270
      if (len && (base == 16U)) {
     5b8:	01000793          	li	a5,16
     5bc:	12f88a63          	beq	a7,a5,6f0 <_ntoa_format+0x3fc>
d:\PDS\test\Sparrow_RISC-V\MRS\obj/../lib/driver/src/printf.c:280
    else if ((base == 2U) && (len < PRINTF_NTOA_BUFFER_SIZE)) {
     5c0:	00200793          	li	a5,2
     5c4:	16f88063          	beq	a7,a5,724 <_ntoa_format+0x430>
     5c8:	00337793          	andi	a5,t1,3
d:\PDS\test\Sparrow_RISC-V\MRS\obj/../lib/driver/src/printf.c:284
      buf[len++] = '0';
     5cc:	00e90733          	add	a4,s2,a4
     5d0:	03000693          	li	a3,48
     5d4:	00d70023          	sb	a3,0(a4)
     5d8:	ec9ff06f          	j	4a0 <_ntoa_format+0x1ac>
d:\PDS\test\Sparrow_RISC-V\MRS\obj/../lib/driver/src/printf.c:290
      buf[len++] = '-';
     5dc:	00890733          	add	a4,s2,s0
     5e0:	02d00693          	li	a3,45
     5e4:	00d70023          	sb	a3,0(a4)
     5e8:	00140413          	addi	s0,s0,1
     5ec:	e19ff06f          	j	404 <_ntoa_format+0x110>
d:\PDS\test\Sparrow_RISC-V\MRS\obj/../lib/driver/src/printf.c:258
    while ((len < prec) && (len < PRINTF_NTOA_BUFFER_SIZE)) {
     5f0:	ddc7f2e3          	bgeu	a5,t3,3b4 <_ntoa_format+0xc0>
     5f4:	02000793          	li	a5,32
     5f8:	d6f416e3          	bne	s0,a5,364 <_ntoa_format+0x70>
d:\PDS\test\Sparrow_RISC-V\MRS\obj/../lib/driver/src/printf.c:267
  if (flags & FLAGS_HASH) {
     5fc:	01037793          	andi	a5,t1,16
     600:	ee0782e3          	beqz	a5,4e4 <_ntoa_format+0x1f0>
d:\PDS\test\Sparrow_RISC-V\MRS\obj/../lib/driver/src/printf.c:268
    if (!(flags & FLAGS_PRECISION) && len && ((len == prec) || (len == width))) {
     604:	40037793          	andi	a5,t1,1024
     608:	f00792e3          	bnez	a5,50c <_ntoa_format+0x218>
     60c:	ef9ff06f          	j	504 <_ntoa_format+0x210>
d:\PDS\test\Sparrow_RISC-V\MRS\obj/../lib/driver/src/printf.c:280 (discriminator 1)
    else if ((base == 2U) && (len < PRINTF_NTOA_BUFFER_SIZE)) {
     610:	02000793          	li	a5,32
     614:	10f41463          	bne	s0,a5,71c <_ntoa_format+0x428>
_out_rev():
d:\PDS\test\Sparrow_RISC-V\MRS\obj/../lib/driver/src/printf.c:228
  if (!(flags & FLAGS_LEFT) && !(flags & FLAGS_ZEROPAD)) {
     618:	00337313          	andi	t1,t1,3
     61c:	f0030ae3          	beqz	t1,530 <_ntoa_format+0x23c>
     620:	000b0493          	mv	s1,s6
     624:	02000413          	li	s0,32
     628:	de9ff06f          	j	410 <_ntoa_format+0x11c>
_ntoa_format():
d:\PDS\test\Sparrow_RISC-V\MRS\obj/../lib/driver/src/printf.c:256
      width--;
     62c:	fffb8b93          	addi	s7,s7,-1
     630:	e9dff06f          	j	4cc <_ntoa_format+0x1d8>
d:\PDS\test\Sparrow_RISC-V\MRS\obj/../lib/driver/src/printf.c:269
      len--;
     634:	fff40713          	addi	a4,s0,-1
d:\PDS\test\Sparrow_RISC-V\MRS\obj/../lib/driver/src/printf.c:270
      if (len && (base == 16U)) {
     638:	d80708e3          	beqz	a4,3c8 <_ntoa_format+0xd4>
     63c:	f7dff06f          	j	5b8 <_ntoa_format+0x2c4>
d:\PDS\test\Sparrow_RISC-V\MRS\obj/../lib/driver/src/printf.c:267
  if (flags & FLAGS_HASH) {
     640:	02000413          	li	s0,32
     644:	00337793          	andi	a5,t1,3
     648:	ea1ff06f          	j	4e8 <_ntoa_format+0x1f4>
d:\PDS\test\Sparrow_RISC-V\MRS\obj/../lib/driver/src/printf.c:274 (discriminator 1)
    if ((base == 16U) && !(flags & FLAGS_UPPERCASE) && (len < PRINTF_NTOA_BUFFER_SIZE)) {
     64c:	02037793          	andi	a5,t1,32
     650:	06079463          	bnez	a5,6b8 <_ntoa_format+0x3c4>
d:\PDS\test\Sparrow_RISC-V\MRS\obj/../lib/driver/src/printf.c:274 (discriminator 2)
     654:	02000713          	li	a4,32
     658:	00337793          	andi	a5,t1,3
     65c:	dae404e3          	beq	s0,a4,404 <_ntoa_format+0x110>
d:\PDS\test\Sparrow_RISC-V\MRS\obj/../lib/driver/src/printf.c:275
      buf[len++] = 'x';
     660:	008907b3          	add	a5,s2,s0
     664:	07800713          	li	a4,120
     668:	00e78023          	sb	a4,0(a5)
     66c:	00140413          	addi	s0,s0,1
     670:	eadff06f          	j	51c <_ntoa_format+0x228>
d:\PDS\test\Sparrow_RISC-V\MRS\obj/../lib/driver/src/printf.c:295
    else if (flags & FLAGS_SPACE) {
     674:	00837313          	andi	t1,t1,8
     678:	04031e63          	bnez	t1,6d4 <_ntoa_format+0x3e0>
_out_rev():
d:\PDS\test\Sparrow_RISC-V\MRS\obj/../lib/driver/src/printf.c:228
  if (!(flags & FLAGS_LEFT) && !(flags & FLAGS_ZEROPAD)) {
     67c:	000b0493          	mv	s1,s6
     680:	ee079ee3          	bnez	a5,57c <_ntoa_format+0x288>
d:\PDS\test\Sparrow_RISC-V\MRS\obj/../lib/driver/src/printf.c:229
    for (size_t i = len; i < width; i++) {
     684:	eb746ae3          	bltu	s0,s7,538 <_ntoa_format+0x244>
d:\PDS\test\Sparrow_RISC-V\MRS\obj/../lib/driver/src/printf.c:235
  while (len) {
     688:	d80414e3          	bnez	s0,410 <_ntoa_format+0x11c>
     68c:	dadff06f          	j	438 <_ntoa_format+0x144>
_ntoa_format():
d:\PDS\test\Sparrow_RISC-V\MRS\obj/../lib/driver/src/printf.c:274
    if ((base == 16U) && !(flags & FLAGS_UPPERCASE) && (len < PRINTF_NTOA_BUFFER_SIZE)) {
     690:	02037793          	andi	a5,t1,32
     694:	04079a63          	bnez	a5,6e8 <_ntoa_format+0x3f4>
     698:	07800793          	li	a5,120
d:\PDS\test\Sparrow_RISC-V\MRS\obj/../lib/driver/src/printf.c:275
      buf[len++] = 'x';
     69c:	00f90023          	sb	a5,0(s2)
d:\PDS\test\Sparrow_RISC-V\MRS\obj/../lib/driver/src/printf.c:284
      buf[len++] = '0';
     6a0:	03000793          	li	a5,48
     6a4:	00f900a3          	sb	a5,1(s2)
     6a8:	00200413          	li	s0,2
     6ac:	00337793          	andi	a5,t1,3
d:\PDS\test\Sparrow_RISC-V\MRS\obj/../lib/driver/src/printf.c:289
    if (negative) {
     6b0:	d2080ee3          	beqz	a6,3ec <_ntoa_format+0xf8>
     6b4:	f29ff06f          	j	5dc <_ntoa_format+0x2e8>
d:\PDS\test\Sparrow_RISC-V\MRS\obj/../lib/driver/src/printf.c:277
    else if ((base == 16U) && (flags & FLAGS_UPPERCASE) && (len < PRINTF_NTOA_BUFFER_SIZE)) {
     6b8:	02000793          	li	a5,32
     6bc:	f4f40ee3          	beq	s0,a5,618 <_ntoa_format+0x324>
d:\PDS\test\Sparrow_RISC-V\MRS\obj/../lib/driver/src/printf.c:278
      buf[len++] = 'X';
     6c0:	008907b3          	add	a5,s2,s0
     6c4:	05800713          	li	a4,88
     6c8:	00e78023          	sb	a4,0(a5)
     6cc:	00140413          	addi	s0,s0,1
     6d0:	e4dff06f          	j	51c <_ntoa_format+0x228>
d:\PDS\test\Sparrow_RISC-V\MRS\obj/../lib/driver/src/printf.c:296
      buf[len++] = ' ';
     6d4:	00890733          	add	a4,s2,s0
     6d8:	02000693          	li	a3,32
     6dc:	00d70023          	sb	a3,0(a4)
     6e0:	00140413          	addi	s0,s0,1
     6e4:	d21ff06f          	j	404 <_ntoa_format+0x110>
d:\PDS\test\Sparrow_RISC-V\MRS\obj/../lib/driver/src/printf.c:278
      buf[len++] = 'X';
     6e8:	05800793          	li	a5,88
     6ec:	fb1ff06f          	j	69c <_ntoa_format+0x3a8>
d:\PDS\test\Sparrow_RISC-V\MRS\obj/../lib/driver/src/printf.c:271
        len--;
     6f0:	ffe40793          	addi	a5,s0,-2
d:\PDS\test\Sparrow_RISC-V\MRS\obj/../lib/driver/src/printf.c:274
    if ((base == 16U) && !(flags & FLAGS_UPPERCASE) && (len < PRINTF_NTOA_BUFFER_SIZE)) {
     6f4:	02037693          	andi	a3,t1,32
d:\PDS\test\Sparrow_RISC-V\MRS\obj/../lib/driver/src/printf.c:275
      buf[len++] = 'x';
     6f8:	00f907b3          	add	a5,s2,a5
d:\PDS\test\Sparrow_RISC-V\MRS\obj/../lib/driver/src/printf.c:274
    if ((base == 16U) && !(flags & FLAGS_UPPERCASE) && (len < PRINTF_NTOA_BUFFER_SIZE)) {
     6fc:	04069863          	bnez	a3,74c <_ntoa_format+0x458>
d:\PDS\test\Sparrow_RISC-V\MRS\obj/../lib/driver/src/printf.c:275
      buf[len++] = 'x';
     700:	07800693          	li	a3,120
     704:	00d78023          	sb	a3,0(a5)
     708:	00070413          	mv	s0,a4
     70c:	00337793          	andi	a5,t1,3
_out_rev():
d:\PDS\test\Sparrow_RISC-V\MRS\obj/../lib/driver/src/printf.c:229
    for (size_t i = len; i < width; i++) {
     710:	00040713          	mv	a4,s0
     714:	00140413          	addi	s0,s0,1
     718:	eb5ff06f          	j	5cc <_ntoa_format+0x2d8>
     71c:	00040713          	mv	a4,s0
     720:	00140413          	addi	s0,s0,1
_ntoa_format():
d:\PDS\test\Sparrow_RISC-V\MRS\obj/../lib/driver/src/printf.c:281
      buf[len++] = 'b';
     724:	00e90733          	add	a4,s2,a4
     728:	06200793          	li	a5,98
     72c:	00f70023          	sb	a5,0(a4)
     730:	dedff06f          	j	51c <_ntoa_format+0x228>
d:\PDS\test\Sparrow_RISC-V\MRS\obj/../lib/driver/src/printf.c:280
    else if ((base == 2U) && (len < PRINTF_NTOA_BUFFER_SIZE)) {
     734:	06200793          	li	a5,98
     738:	f65ff06f          	j	69c <_ntoa_format+0x3a8>
d:\PDS\test\Sparrow_RISC-V\MRS\obj/../lib/driver/src/printf.c:267
  if (flags & FLAGS_HASH) {
     73c:	01037793          	andi	a5,t1,16
d:\PDS\test\Sparrow_RISC-V\MRS\obj/../lib/driver/src/printf.c:261
    while ((flags & FLAGS_ZEROPAD) && (len < width) && (len < PRINTF_NTOA_BUFFER_SIZE)) {
     740:	ec0600e3          	beqz	a2,600 <_ntoa_format+0x30c>
d:\PDS\test\Sparrow_RISC-V\MRS\obj/../lib/driver/src/printf.c:267
  if (flags & FLAGS_HASH) {
     744:	c6079ce3          	bnez	a5,3bc <_ntoa_format+0xc8>
     748:	d9dff06f          	j	4e4 <_ntoa_format+0x1f0>
d:\PDS\test\Sparrow_RISC-V\MRS\obj/../lib/driver/src/printf.c:278
      buf[len++] = 'X';
     74c:	05800713          	li	a4,88
     750:	00e78023          	sb	a4,0(a5)
_out_rev():
d:\PDS\test\Sparrow_RISC-V\MRS\obj/../lib/driver/src/printf.c:229
    for (size_t i = len; i < width; i++) {
     754:	fff40413          	addi	s0,s0,-1
_ntoa_format():
d:\PDS\test\Sparrow_RISC-V\MRS\obj/../lib/driver/src/printf.c:283
    if (len < PRINTF_NTOA_BUFFER_SIZE) {
     758:	00337793          	andi	a5,t1,3
     75c:	fb5ff06f          	j	710 <_ntoa_format+0x41c>
d:\PDS\test\Sparrow_RISC-V\MRS\obj/../lib/driver/src/printf.c:267
  if (flags & FLAGS_HASH) {
     760:	01037793          	andi	a5,t1,16
     764:	d80780e3          	beqz	a5,4e4 <_ntoa_format+0x1f0>
d:\PDS\test\Sparrow_RISC-V\MRS\obj/../lib/driver/src/printf.c:268
    if (!(flags & FLAGS_PRECISION) && len && ((len == prec) || (len == width))) {
     768:	40037793          	andi	a5,t1,1024
     76c:	04079463          	bnez	a5,7b4 <_ntoa_format+0x4c0>
     770:	02000793          	li	a5,32
     774:	d8fb9ce3          	bne	s7,a5,50c <_ntoa_format+0x218>
     778:	e35ff06f          	j	5ac <_ntoa_format+0x2b8>
d:\PDS\test\Sparrow_RISC-V\MRS\obj/../lib/driver/src/printf.c:274
    if ((base == 16U) && !(flags & FLAGS_UPPERCASE) && (len < PRINTF_NTOA_BUFFER_SIZE)) {
     77c:	01000793          	li	a5,16
     780:	02f88063          	beq	a7,a5,7a0 <_ntoa_format+0x4ac>
d:\PDS\test\Sparrow_RISC-V\MRS\obj/../lib/driver/src/printf.c:280
    else if ((base == 2U) && (len < PRINTF_NTOA_BUFFER_SIZE)) {
     784:	00200793          	li	a5,2
_out_rev():
d:\PDS\test\Sparrow_RISC-V\MRS\obj/../lib/driver/src/printf.c:228
  if (!(flags & FLAGS_LEFT) && !(flags & FLAGS_ZEROPAD)) {
     788:	00337713          	andi	a4,t1,3
_ntoa_format():
d:\PDS\test\Sparrow_RISC-V\MRS\obj/../lib/driver/src/printf.c:280
    else if ((base == 2U) && (len < PRINTF_NTOA_BUFFER_SIZE)) {
     78c:	daf890e3          	bne	a7,a5,52c <_ntoa_format+0x238>
     790:	e89ff06f          	j	618 <_ntoa_format+0x324>
d:\PDS\test\Sparrow_RISC-V\MRS\obj/../lib/driver/src/printf.c:268
    if (!(flags & FLAGS_PRECISION) && len && ((len == prec) || (len == width))) {
     794:	02000413          	li	s0,32
d:\PDS\test\Sparrow_RISC-V\MRS\obj/../lib/driver/src/printf.c:269
      len--;
     798:	01f00713          	li	a4,31
     79c:	e1dff06f          	j	5b8 <_ntoa_format+0x2c4>
d:\PDS\test\Sparrow_RISC-V\MRS\obj/../lib/driver/src/printf.c:274
    if ((base == 16U) && !(flags & FLAGS_UPPERCASE) && (len < PRINTF_NTOA_BUFFER_SIZE)) {
     7a0:	02037793          	andi	a5,t1,32
     7a4:	e6079ae3          	bnez	a5,618 <_ntoa_format+0x324>
     7a8:	02000413          	li	s0,32
     7ac:	00337793          	andi	a5,t1,3
     7b0:	c55ff06f          	j	404 <_ntoa_format+0x110>
     7b4:	01000793          	li	a5,16
     7b8:	fcf896e3          	bne	a7,a5,784 <_ntoa_format+0x490>
     7bc:	02037793          	andi	a5,t1,32
     7c0:	e4079ce3          	bnez	a5,618 <_ntoa_format+0x324>
     7c4:	00337793          	andi	a5,t1,3
     7c8:	c3dff06f          	j	404 <_ntoa_format+0x110>

000007cc <_out_char>:
_out_char():
d:\PDS\test\Sparrow_RISC-V\MRS\obj/../lib/driver/src/printf.c:176
  if (character) {
     7cc:	00050e63          	beqz	a0,7e8 <_out_char+0x1c>
_putchar():
d:\PDS\test\Sparrow_RISC-V\MRS\obj/../lib/driver/src/printf.c:57
  while (SYS_RWMEM_W(UART_STATUS(UART0)) & 0x1); //等待上一个操作结束
     7d0:	40000737          	lui	a4,0x40000
     7d4:	00472783          	lw	a5,4(a4) # 40000004 <_sp+0x1ffc0004>
     7d8:	0017f793          	andi	a5,a5,1
     7dc:	fe079ce3          	bnez	a5,7d4 <_out_char+0x8>
d:\PDS\test\Sparrow_RISC-V\MRS\obj/../lib/driver/src/printf.c:58
  SYS_RWMEM_W(UART_TXDATA(UART0)) = character;
     7e0:	00a72623          	sw	a0,12(a4)
d:\PDS\test\Sparrow_RISC-V\MRS\obj/../lib/driver/src/printf.c:60
  write_csr(msprint, character);//msprint
     7e4:	34651073          	csrw	0x346,a0
_out_char():
d:\PDS\test\Sparrow_RISC-V\MRS\obj/../lib/driver/src/printf.c:179
}
     7e8:	00008067          	ret

000007ec <_vsnprintf>:
_vsnprintf():
d:\PDS\test\Sparrow_RISC-V\MRS\obj/../lib/driver/src/printf.c:602
#endif  // PRINTF_SUPPORT_FLOAT


// internal vsnprintf
static int _vsnprintf(out_fct_type out, char* buffer, const size_t maxlen, const char* format, va_list va)
{
     7ec:	f6010113          	addi	sp,sp,-160
     7f0:	09212823          	sw	s2,144(sp)
     7f4:	09312623          	sw	s3,140(sp)
     7f8:	09412423          	sw	s4,136(sp)
     7fc:	07812c23          	sw	s8,120(sp)
     800:	07a12823          	sw	s10,112(sp)
     804:	08112e23          	sw	ra,156(sp)
     808:	08812c23          	sw	s0,152(sp)
     80c:	08912a23          	sw	s1,148(sp)
     810:	09512223          	sw	s5,132(sp)
     814:	09612023          	sw	s6,128(sp)
     818:	07712e23          	sw	s7,124(sp)
     81c:	07912a23          	sw	s9,116(sp)
     820:	07b12623          	sw	s11,108(sp)
     824:	00058993          	mv	s3,a1
     828:	00060913          	mv	s2,a2
     82c:	00068c13          	mv	s8,a3
     830:	00070d13          	mv	s10,a4
     834:	00050a13          	mv	s4,a0
d:\PDS\test\Sparrow_RISC-V\MRS\obj/../lib/driver/src/printf.c:606
  unsigned int flags, width, precision, n;
  size_t idx = 0U;

  if (!buffer) {
     838:	54058663          	beqz	a1,d84 <_vsnprintf+0x598>
d:\PDS\test\Sparrow_RISC-V\MRS\obj/../lib/driver/src/printf.c:611
    // use null output function
    out = _out_null;
  }

  while (*format)
     83c:	000c4503          	lbu	a0,0(s8)
     840:	00000413          	li	s0,0
     844:	54050863          	beqz	a0,d94 <_vsnprintf+0x5a8>
d:\PDS\test\Sparrow_RISC-V\MRS\obj/../lib/driver/src/printf.c:707
      default :
        break;
    }

    // evaluate specifier
    switch (*format) {
     848:	001217b7          	lui	a5,0x121
d:\PDS\test\Sparrow_RISC-V\MRS\obj/../lib/driver/src/printf.c:628
      switch (*format) {
     84c:	20000ab7          	lui	s5,0x20000
d:\PDS\test\Sparrow_RISC-V\MRS\obj/../lib/driver/src/printf.c:707
    switch (*format) {
     850:	82178793          	addi	a5,a5,-2015 # 120821 <_app_prog_size+0xe0821>
d:\PDS\test\Sparrow_RISC-V\MRS\obj/../lib/driver/src/printf.c:614
    if (*format != '%') {
     854:	02500b13          	li	s6,37
d:\PDS\test\Sparrow_RISC-V\MRS\obj/../lib/driver/src/printf.c:628
      switch (*format) {
     858:	01000493          	li	s1,16
     85c:	000a8a93          	mv	s5,s5
d:\PDS\test\Sparrow_RISC-V\MRS\obj/../lib/driver/src/printf.c:640
    if (_is_digit(*format)) {
     860:	00900b93          	li	s7,9
d:\PDS\test\Sparrow_RISC-V\MRS\obj/../lib/driver/src/printf.c:707
    switch (*format) {
     864:	00f12c23          	sw	a5,24(sp)
     868:	00040313          	mv	t1,s0
     86c:	0240006f          	j	890 <_vsnprintf+0xa4>
d:\PDS\test\Sparrow_RISC-V\MRS\obj/../lib/driver/src/printf.c:870
        out('%', buffer, idx++, maxlen);
        format++;
        break;

      default :
        out(*format, buffer, idx++, maxlen);
     870:	00030613          	mv	a2,t1
     874:	00090693          	mv	a3,s2
     878:	00098593          	mv	a1,s3
     87c:	00130413          	addi	s0,t1,1
     880:	000a00e7          	jalr	s4
     884:	00040313          	mv	t1,s0
d:\PDS\test\Sparrow_RISC-V\MRS\obj/../lib/driver/src/printf.c:611
  while (*format)
     888:	000c4503          	lbu	a0,0(s8)
     88c:	10050663          	beqz	a0,998 <_vsnprintf+0x1ac>
d:\PDS\test\Sparrow_RISC-V\MRS\obj/../lib/driver/src/printf.c:617
      format++;
     890:	001c0c13          	addi	s8,s8,1
d:\PDS\test\Sparrow_RISC-V\MRS\obj/../lib/driver/src/printf.c:614
    if (*format != '%') {
     894:	fd651ee3          	bne	a0,s6,870 <_vsnprintf+0x84>
d:\PDS\test\Sparrow_RISC-V\MRS\obj/../lib/driver/src/printf.c:626
    flags = 0U;
     898:	00000693          	li	a3,0
d:\PDS\test\Sparrow_RISC-V\MRS\obj/../lib/driver/src/printf.c:628
      switch (*format) {
     89c:	000c4503          	lbu	a0,0(s8)
d:\PDS\test\Sparrow_RISC-V\MRS\obj/../lib/driver/src/printf.c:652
      format++;
     8a0:	001c0713          	addi	a4,s8,1
d:\PDS\test\Sparrow_RISC-V\MRS\obj/../lib/driver/src/printf.c:628
      switch (*format) {
     8a4:	fe050793          	addi	a5,a0,-32
     8a8:	0ff7f793          	zext.b	a5,a5
     8ac:	00f4ea63          	bltu	s1,a5,8c0 <_vsnprintf+0xd4>
     8b0:	00279793          	slli	a5,a5,0x2
     8b4:	015787b3          	add	a5,a5,s5
     8b8:	0007a783          	lw	a5,0(a5)
     8bc:	00078067          	jr	a5
_is_digit():
d:\PDS\test\Sparrow_RISC-V\MRS\obj/../lib/driver/src/printf.c:207
  return (ch >= '0') && (ch <= '9');
     8c0:	fd050793          	addi	a5,a0,-48
_vsnprintf():
d:\PDS\test\Sparrow_RISC-V\MRS\obj/../lib/driver/src/printf.c:640
    if (_is_digit(*format)) {
     8c4:	0ff7f793          	zext.b	a5,a5
     8c8:	2cfbfc63          	bgeu	s7,a5,ba0 <_vsnprintf+0x3b4>
d:\PDS\test\Sparrow_RISC-V\MRS\obj/../lib/driver/src/printf.c:643
    else if (*format == '*') {
     8cc:	02a00793          	li	a5,42
d:\PDS\test\Sparrow_RISC-V\MRS\obj/../lib/driver/src/printf.c:639
    width = 0U;
     8d0:	00000413          	li	s0,0
d:\PDS\test\Sparrow_RISC-V\MRS\obj/../lib/driver/src/printf.c:643
    else if (*format == '*') {
     8d4:	36f50a63          	beq	a0,a5,c48 <_vsnprintf+0x45c>
d:\PDS\test\Sparrow_RISC-V\MRS\obj/../lib/driver/src/printf.c:657
    if (*format == '.') {
     8d8:	02e00793          	li	a5,46
d:\PDS\test\Sparrow_RISC-V\MRS\obj/../lib/driver/src/printf.c:656
    precision = 0U;
     8dc:	00000e13          	li	t3,0
d:\PDS\test\Sparrow_RISC-V\MRS\obj/../lib/driver/src/printf.c:657
    if (*format == '.') {
     8e0:	30f50663          	beq	a0,a5,bec <_vsnprintf+0x400>
d:\PDS\test\Sparrow_RISC-V\MRS\obj/../lib/driver/src/printf.c:671
    switch (*format) {
     8e4:	06c00793          	li	a5,108
d:\PDS\test\Sparrow_RISC-V\MRS\obj/../lib/driver/src/printf.c:674
        format++;
     8e8:	00070613          	mv	a2,a4
d:\PDS\test\Sparrow_RISC-V\MRS\obj/../lib/driver/src/printf.c:671
    switch (*format) {
     8ec:	32f50c63          	beq	a0,a5,c24 <_vsnprintf+0x438>
     8f0:	34a7e263          	bltu	a5,a0,c34 <_vsnprintf+0x448>
     8f4:	06800793          	li	a5,104
     8f8:	38f50263          	beq	a0,a5,c7c <_vsnprintf+0x490>
     8fc:	06a00793          	li	a5,106
     900:	16f516e3          	bne	a0,a5,126c <_vsnprintf+0xa80>
d:\PDS\test\Sparrow_RISC-V\MRS\obj/../lib/driver/src/printf.c:675
        if (*format == 'l') {
     904:	001c4503          	lbu	a0,1(s8)
d:\PDS\test\Sparrow_RISC-V\MRS\obj/../lib/driver/src/printf.c:695
        flags |= (sizeof(intmax_t) == sizeof(long) ? FLAGS_LONG : FLAGS_LONG_LONG);
     908:	2006e693          	ori	a3,a3,512
d:\PDS\test\Sparrow_RISC-V\MRS\obj/../lib/driver/src/printf.c:707
    switch (*format) {
     90c:	07800793          	li	a5,120
d:\PDS\test\Sparrow_RISC-V\MRS\obj/../lib/driver/src/printf.c:778
        format++;
     910:	00160c13          	addi	s8,a2,1
d:\PDS\test\Sparrow_RISC-V\MRS\obj/../lib/driver/src/printf.c:707
    switch (*format) {
     914:	f4a7eee3          	bltu	a5,a0,870 <_vsnprintf+0x84>
     918:	06300793          	li	a5,99
     91c:	12a7e463          	bltu	a5,a0,a44 <_vsnprintf+0x258>
     920:	06200713          	li	a4,98
     924:	66e50c63          	beq	a0,a4,f9c <_vsnprintf+0x7b0>
     928:	1cf51663          	bne	a0,a5,af4 <_vsnprintf+0x308>
d:\PDS\test\Sparrow_RISC-V\MRS\obj/../lib/driver/src/printf.c:755
            const long value = va_arg(va, long);
     92c:	004d0793          	addi	a5,s10,4
d:\PDS\test\Sparrow_RISC-V\MRS\obj/../lib/driver/src/printf.c:803
        if (!(flags & FLAGS_LEFT)) {
     930:	0026f693          	andi	a3,a3,2
d:\PDS\test\Sparrow_RISC-V\MRS\obj/../lib/driver/src/printf.c:755
            const long value = va_arg(va, long);
     934:	00f12e23          	sw	a5,28(sp)
d:\PDS\test\Sparrow_RISC-V\MRS\obj/../lib/driver/src/printf.c:616
      out(*format, buffer, idx++, maxlen);
     938:	00130c93          	addi	s9,t1,1
d:\PDS\test\Sparrow_RISC-V\MRS\obj/../lib/driver/src/printf.c:803
        if (!(flags & FLAGS_LEFT)) {
     93c:	4e068a63          	beqz	a3,e30 <_vsnprintf+0x644>
d:\PDS\test\Sparrow_RISC-V\MRS\obj/../lib/driver/src/printf.c:809
        out((char)va_arg(va, int), buffer, idx++, maxlen);
     940:	000d4503          	lbu	a0,0(s10)
     944:	00030613          	mv	a2,t1
     948:	02612023          	sw	t1,32(sp)
     94c:	00090693          	mv	a3,s2
     950:	00098593          	mv	a1,s3
     954:	000a00e7          	jalr	s4
d:\PDS\test\Sparrow_RISC-V\MRS\obj/../lib/driver/src/printf.c:812
          while (l++ < width) {
     958:	02012303          	lw	t1,32(sp)
     95c:	00100793          	li	a5,1
     960:	00830333          	add	t1,t1,s0
     964:	0e87fee3          	bgeu	a5,s0,1260 <_vsnprintf+0xa74>
     968:	00030413          	mv	s0,t1
d:\PDS\test\Sparrow_RISC-V\MRS\obj/../lib/driver/src/printf.c:813
            out(' ', buffer, idx++, maxlen);
     96c:	000c8613          	mv	a2,s9
     970:	00090693          	mv	a3,s2
     974:	001c8c93          	addi	s9,s9,1
     978:	00098593          	mv	a1,s3
     97c:	02000513          	li	a0,32
     980:	000a00e7          	jalr	s4
d:\PDS\test\Sparrow_RISC-V\MRS\obj/../lib/driver/src/printf.c:812
          while (l++ < width) {
     984:	fe8c94e3          	bne	s9,s0,96c <_vsnprintf+0x180>
     988:	00040313          	mv	t1,s0
d:\PDS\test\Sparrow_RISC-V\MRS\obj/../lib/driver/src/printf.c:821
        const char* p = va_arg(va, char*);
     98c:	01c12d03          	lw	s10,28(sp)
d:\PDS\test\Sparrow_RISC-V\MRS\obj/../lib/driver/src/printf.c:611
  while (*format)
     990:	000c4503          	lbu	a0,0(s8)
     994:	ee051ee3          	bnez	a0,890 <_vsnprintf+0xa4>
d:\PDS\test\Sparrow_RISC-V\MRS\obj/../lib/driver/src/printf.c:880

  // termination
  out((char)0, buffer, idx < maxlen ? idx : maxlen - 1U, maxlen);

  // return written chars without terminating \0
  return (int)idx;
     998:	00030413          	mv	s0,t1
     99c:	00030493          	mv	s1,t1
d:\PDS\test\Sparrow_RISC-V\MRS\obj/../lib/driver/src/printf.c:877
  out((char)0, buffer, idx < maxlen ? idx : maxlen - 1U, maxlen);
     9a0:	01246463          	bltu	s0,s2,9a8 <_vsnprintf+0x1bc>
d:\PDS\test\Sparrow_RISC-V\MRS\obj/../lib/driver/src/printf.c:877 (discriminator 1)
     9a4:	fff90413          	addi	s0,s2,-1
d:\PDS\test\Sparrow_RISC-V\MRS\obj/../lib/driver/src/printf.c:877 (discriminator 4)
     9a8:	00090693          	mv	a3,s2
     9ac:	00040613          	mv	a2,s0
     9b0:	00098593          	mv	a1,s3
     9b4:	00000513          	li	a0,0
     9b8:	000a00e7          	jalr	s4
d:\PDS\test\Sparrow_RISC-V\MRS\obj/../lib/driver/src/printf.c:881 (discriminator 4)
}
     9bc:	09c12083          	lw	ra,156(sp)
     9c0:	09812403          	lw	s0,152(sp)
     9c4:	09012903          	lw	s2,144(sp)
     9c8:	08c12983          	lw	s3,140(sp)
     9cc:	08812a03          	lw	s4,136(sp)
     9d0:	08412a83          	lw	s5,132(sp)
     9d4:	08012b03          	lw	s6,128(sp)
     9d8:	07c12b83          	lw	s7,124(sp)
     9dc:	07812c03          	lw	s8,120(sp)
     9e0:	07412c83          	lw	s9,116(sp)
     9e4:	07012d03          	lw	s10,112(sp)
     9e8:	06c12d83          	lw	s11,108(sp)
     9ec:	00048513          	mv	a0,s1
     9f0:	09412483          	lw	s1,148(sp)
     9f4:	0a010113          	addi	sp,sp,160
     9f8:	00008067          	ret
d:\PDS\test\Sparrow_RISC-V\MRS\obj/../lib/driver/src/printf.c:629
        case '0': flags |= FLAGS_ZEROPAD; format++; n = 1U; break;
     9fc:	0016e693          	ori	a3,a3,1
d:\PDS\test\Sparrow_RISC-V\MRS\obj/../lib/driver/src/printf.c:652
      format++;
     a00:	00070c13          	mv	s8,a4
     a04:	e99ff06f          	j	89c <_vsnprintf+0xb0>
d:\PDS\test\Sparrow_RISC-V\MRS\obj/../lib/driver/src/printf.c:630
        case '-': flags |= FLAGS_LEFT;    format++; n = 1U; break;
     a08:	0026e693          	ori	a3,a3,2
d:\PDS\test\Sparrow_RISC-V\MRS\obj/../lib/driver/src/printf.c:652
      format++;
     a0c:	00070c13          	mv	s8,a4
     a10:	e8dff06f          	j	89c <_vsnprintf+0xb0>
d:\PDS\test\Sparrow_RISC-V\MRS\obj/../lib/driver/src/printf.c:631
        case '+': flags |= FLAGS_PLUS;    format++; n = 1U; break;
     a14:	0046e693          	ori	a3,a3,4
d:\PDS\test\Sparrow_RISC-V\MRS\obj/../lib/driver/src/printf.c:652
      format++;
     a18:	00070c13          	mv	s8,a4
     a1c:	e81ff06f          	j	89c <_vsnprintf+0xb0>
d:\PDS\test\Sparrow_RISC-V\MRS\obj/../lib/driver/src/printf.c:633
        case '#': flags |= FLAGS_HASH;    format++; n = 1U; break;
     a20:	0106e693          	ori	a3,a3,16
d:\PDS\test\Sparrow_RISC-V\MRS\obj/../lib/driver/src/printf.c:652
      format++;
     a24:	00070c13          	mv	s8,a4
     a28:	e75ff06f          	j	89c <_vsnprintf+0xb0>
d:\PDS\test\Sparrow_RISC-V\MRS\obj/../lib/driver/src/printf.c:632
        case ' ': flags |= FLAGS_SPACE;   format++; n = 1U; break;
     a2c:	0086e693          	ori	a3,a3,8
d:\PDS\test\Sparrow_RISC-V\MRS\obj/../lib/driver/src/printf.c:652
      format++;
     a30:	00070c13          	mv	s8,a4
     a34:	e69ff06f          	j	89c <_vsnprintf+0xb0>
d:\PDS\test\Sparrow_RISC-V\MRS\obj/../lib/driver/src/printf.c:707
    switch (*format) {
     a38:	07800793          	li	a5,120
d:\PDS\test\Sparrow_RISC-V\MRS\obj/../lib/driver/src/printf.c:778
        format++;
     a3c:	00070c13          	mv	s8,a4
d:\PDS\test\Sparrow_RISC-V\MRS\obj/../lib/driver/src/printf.c:707
    switch (*format) {
     a40:	e2a7e8e3          	bltu	a5,a0,870 <_vsnprintf+0x84>
     a44:	f9c50793          	addi	a5,a0,-100
     a48:	00100c93          	li	s9,1
     a4c:	00fc9cb3          	sll	s9,s9,a5
     a50:	01812783          	lw	a5,24(sp)
     a54:	00fcfcb3          	and	s9,s9,a5
     a58:	000c9ee3          	bnez	s9,1274 <_vsnprintf+0xa88>
     a5c:	07300793          	li	a5,115
     a60:	22f50663          	beq	a0,a5,c8c <_vsnprintf+0x4a0>
     a64:	07000793          	li	a5,112
     a68:	e0f514e3          	bne	a0,a5,870 <_vsnprintf+0x84>
d:\PDS\test\Sparrow_RISC-V\MRS\obj/../lib/driver/src/printf.c:856
          idx = _ntoa_long(out, buffer, idx, maxlen, (unsigned long)((uintptr_t)va_arg(va, void*)), false, 16U, precision, width, flags);
     a6c:	000d2783          	lw	a5,0(s10)
d:\PDS\test\Sparrow_RISC-V\MRS\obj/../lib/driver/src/printf.c:848
        flags |= FLAGS_ZEROPAD | FLAGS_UPPERCASE;
     a70:	0216e593          	ori	a1,a3,33
d:\PDS\test\Sparrow_RISC-V\MRS\obj/../lib/driver/src/printf.c:856
          idx = _ntoa_long(out, buffer, idx, maxlen, (unsigned long)((uintptr_t)va_arg(va, void*)), false, 16U, precision, width, flags);
     a74:	004d0d13          	addi	s10,s10,4
_ntoa_long():
d:\PDS\test\Sparrow_RISC-V\MRS\obj/../lib/driver/src/printf.c:311
  if (!value) {
     a78:	38078863          	beqz	a5,e08 <_vsnprintf+0x61c>
     a7c:	04010713          	addi	a4,sp,64
d:\PDS\test\Sparrow_RISC-V\MRS\obj/../lib/driver/src/printf.c:319
      buf[len++] = digit < 10 ? '0' + digit : (flags & FLAGS_UPPERCASE ? 'A' : 'a') + digit - 10;
     a80:	00900813          	li	a6,9
d:\PDS\test\Sparrow_RISC-V\MRS\obj/../lib/driver/src/printf.c:321
    } while (value && (len < PRINTF_NTOA_BUFFER_SIZE));
     a84:	00f00513          	li	a0,15
     a88:	02000893          	li	a7,32
     a8c:	00c0006f          	j	a98 <_vsnprintf+0x2ac>
     a90:	031c8663          	beq	s9,a7,abc <_vsnprintf+0x2d0>
d:\PDS\test\Sparrow_RISC-V\MRS\obj/../lib/driver/src/printf.c:320
      value /= base;
     a94:	00068793          	mv	a5,a3
d:\PDS\test\Sparrow_RISC-V\MRS\obj/../lib/driver/src/printf.c:318
      const char digit = (char)(value % base);
     a98:	00f7fe93          	andi	t4,a5,15
d:\PDS\test\Sparrow_RISC-V\MRS\obj/../lib/driver/src/printf.c:319
      buf[len++] = digit < 10 ? '0' + digit : (flags & FLAGS_UPPERCASE ? 'A' : 'a') + digit - 10;
     a9c:	037e8613          	addi	a2,t4,55
     aa0:	01d86463          	bltu	a6,t4,aa8 <_vsnprintf+0x2bc>
     aa4:	030e8613          	addi	a2,t4,48
     aa8:	001c8c93          	addi	s9,s9,1
     aac:	019706b3          	add	a3,a4,s9
     ab0:	fec68fa3          	sb	a2,-1(a3)
d:\PDS\test\Sparrow_RISC-V\MRS\obj/../lib/driver/src/printf.c:320
      value /= base;
     ab4:	0047d693          	srli	a3,a5,0x4
d:\PDS\test\Sparrow_RISC-V\MRS\obj/../lib/driver/src/printf.c:321
    } while (value && (len < PRINTF_NTOA_BUFFER_SIZE));
     ab8:	fcf56ce3          	bltu	a0,a5,a90 <_vsnprintf+0x2a4>
d:\PDS\test\Sparrow_RISC-V\MRS\obj/../lib/driver/src/printf.c:324
  return _ntoa_format(out, buffer, idx, maxlen, buf, len, negative, (unsigned int)base, prec, width, flags);
     abc:	00800793          	li	a5,8
     ac0:	00f12223          	sw	a5,4(sp)
     ac4:	00030613          	mv	a2,t1
     ac8:	00b12423          	sw	a1,8(sp)
     acc:	01c12023          	sw	t3,0(sp)
     ad0:	01000893          	li	a7,16
     ad4:	00000813          	li	a6,0
     ad8:	000c8793          	mv	a5,s9
     adc:	00090693          	mv	a3,s2
     ae0:	00098593          	mv	a1,s3
     ae4:	000a0513          	mv	a0,s4
     ae8:	80dff0ef          	jal	ra,2f4 <_ntoa_format>
     aec:	00050313          	mv	t1,a0
_vsnprintf():
d:\PDS\test\Sparrow_RISC-V\MRS\obj/../lib/driver/src/printf.c:861
        break;
     af0:	d99ff06f          	j	888 <_vsnprintf+0x9c>
d:\PDS\test\Sparrow_RISC-V\MRS\obj/../lib/driver/src/printf.c:707
    switch (*format) {
     af4:	03651263          	bne	a0,s6,b18 <_vsnprintf+0x32c>
d:\PDS\test\Sparrow_RISC-V\MRS\obj/../lib/driver/src/printf.c:865
        out('%', buffer, idx++, maxlen);
     af8:	00030613          	mv	a2,t1
     afc:	00090693          	mv	a3,s2
     b00:	00098593          	mv	a1,s3
     b04:	02500513          	li	a0,37
     b08:	00130413          	addi	s0,t1,1
     b0c:	000a00e7          	jalr	s4
     b10:	00040313          	mv	t1,s0
d:\PDS\test\Sparrow_RISC-V\MRS\obj/../lib/driver/src/printf.c:867
        break;
     b14:	d75ff06f          	j	888 <_vsnprintf+0x9c>
d:\PDS\test\Sparrow_RISC-V\MRS\obj/../lib/driver/src/printf.c:707
    switch (*format) {
     b18:	05800793          	li	a5,88
     b1c:	d4f51ae3          	bne	a0,a5,870 <_vsnprintf+0x84>
d:\PDS\test\Sparrow_RISC-V\MRS\obj/../lib/driver/src/printf.c:741
        if (flags & FLAGS_PRECISION) {
     b20:	4006f513          	andi	a0,a3,1024
     b24:	4a050463          	beqz	a0,fcc <_vsnprintf+0x7e0>
d:\PDS\test\Sparrow_RISC-V\MRS\obj/../lib/driver/src/printf.c:742
          flags &= ~FLAGS_ZEROPAD;
     b28:	ff26f693          	andi	a3,a3,-14
     b2c:	0206e693          	ori	a3,a3,32
     b30:	01000f13          	li	t5,16
     b34:	00000613          	li	a2,0
     b38:	01000893          	li	a7,16
d:\PDS\test\Sparrow_RISC-V\MRS\obj/../lib/driver/src/printf.c:765
          if (flags & FLAGS_LONG_LONG) {
     b3c:	2006f593          	andi	a1,a3,512
     b40:	50059663          	bnez	a1,104c <_vsnprintf+0x860>
d:\PDS\test\Sparrow_RISC-V\MRS\obj/../lib/driver/src/printf.c:770
          else if (flags & FLAGS_LONG) {
     b44:	1006f793          	andi	a5,a3,256
d:\PDS\test\Sparrow_RISC-V\MRS\obj/../lib/driver/src/printf.c:755
            const long value = va_arg(va, long);
     b48:	004d0c93          	addi	s9,s10,4
d:\PDS\test\Sparrow_RISC-V\MRS\obj/../lib/driver/src/printf.c:770
          else if (flags & FLAGS_LONG) {
     b4c:	60079a63          	bnez	a5,1160 <_vsnprintf+0x974>
d:\PDS\test\Sparrow_RISC-V\MRS\obj/../lib/driver/src/printf.c:774
            const unsigned int value = (flags & FLAGS_CHAR) ? (unsigned char)va_arg(va, unsigned int) : (flags & FLAGS_SHORT) ? (unsigned short int)va_arg(va, unsigned int) : va_arg(va, unsigned int);
     b50:	0406f713          	andi	a4,a3,64
     b54:	6a070063          	beqz	a4,11f4 <_vsnprintf+0xa08>
     b58:	000d4583          	lbu	a1,0(s10)
_ntoa_long():
d:\PDS\test\Sparrow_RISC-V\MRS\obj/../lib/driver/src/printf.c:311 (discriminator 8)
  if (!value) {
     b5c:	48059663          	bnez	a1,fe8 <_vsnprintf+0x7fc>
d:\PDS\test\Sparrow_RISC-V\MRS\obj/../lib/driver/src/printf.c:312
    flags &= ~FLAGS_HASH;
     b60:	fef6f693          	andi	a3,a3,-17
d:\PDS\test\Sparrow_RISC-V\MRS\obj/../lib/driver/src/printf.c:316
  if (!(flags & FLAGS_PRECISION) || value) {
     b64:	48050263          	beqz	a0,fe8 <_vsnprintf+0x7fc>
d:\PDS\test\Sparrow_RISC-V\MRS\obj/../lib/driver/src/printf.c:308
  size_t len = 0U;
     b68:	00000793          	li	a5,0
     b6c:	04010713          	addi	a4,sp,64
d:\PDS\test\Sparrow_RISC-V\MRS\obj/../lib/driver/src/printf.c:324
  return _ntoa_format(out, buffer, idx, maxlen, buf, len, negative, (unsigned int)base, prec, width, flags);
     b70:	00030613          	mv	a2,t1
     b74:	00d12423          	sw	a3,8(sp)
     b78:	00812223          	sw	s0,4(sp)
     b7c:	01c12023          	sw	t3,0(sp)
     b80:	00000813          	li	a6,0
     b84:	00090693          	mv	a3,s2
     b88:	00098593          	mv	a1,s3
     b8c:	000a0513          	mv	a0,s4
     b90:	f64ff0ef          	jal	ra,2f4 <_ntoa_format>
     b94:	00050313          	mv	t1,a0
     b98:	000c8d13          	mv	s10,s9
_vsnprintf():
d:\PDS\test\Sparrow_RISC-V\MRS\obj/../lib/driver/src/printf.c:779
        break;
     b9c:	cedff06f          	j	888 <_vsnprintf+0x9c>
_atoi():
d:\PDS\test\Sparrow_RISC-V\MRS\obj/../lib/driver/src/printf.c:214
  unsigned int i = 0U;
     ba0:	00000413          	li	s0,0
     ba4:	00040613          	mv	a2,s0
     ba8:	0080006f          	j	bb0 <_vsnprintf+0x3c4>
     bac:	00170713          	addi	a4,a4,1
d:\PDS\test\Sparrow_RISC-V\MRS\obj/../lib/driver/src/printf.c:216
    i = i * 10U + (unsigned int)(*((*str)++) - '0');
     bb0:	00261413          	slli	s0,a2,0x2
     bb4:	00c40433          	add	s0,s0,a2
     bb8:	00141413          	slli	s0,s0,0x1
     bbc:	00a40433          	add	s0,s0,a0
d:\PDS\test\Sparrow_RISC-V\MRS\obj/../lib/driver/src/printf.c:215
  while (_is_digit(**str)) {
     bc0:	00074503          	lbu	a0,0(a4)
d:\PDS\test\Sparrow_RISC-V\MRS\obj/../lib/driver/src/printf.c:216
    i = i * 10U + (unsigned int)(*((*str)++) - '0');
     bc4:	00070c13          	mv	s8,a4
     bc8:	fd040613          	addi	a2,s0,-48
_is_digit():
d:\PDS\test\Sparrow_RISC-V\MRS\obj/../lib/driver/src/printf.c:207
  return (ch >= '0') && (ch <= '9');
     bcc:	fd050793          	addi	a5,a0,-48
_atoi():
d:\PDS\test\Sparrow_RISC-V\MRS\obj/../lib/driver/src/printf.c:215
  while (_is_digit(**str)) {
     bd0:	0ff7f793          	zext.b	a5,a5
     bd4:	fcfbfce3          	bgeu	s7,a5,bac <_vsnprintf+0x3c0>
_vsnprintf():
d:\PDS\test\Sparrow_RISC-V\MRS\obj/../lib/driver/src/printf.c:657
    if (*format == '.') {
     bd8:	02e00793          	li	a5,46
     bdc:	00060413          	mv	s0,a2
     be0:	00170713          	addi	a4,a4,1
d:\PDS\test\Sparrow_RISC-V\MRS\obj/../lib/driver/src/printf.c:656
    precision = 0U;
     be4:	00000e13          	li	t3,0
d:\PDS\test\Sparrow_RISC-V\MRS\obj/../lib/driver/src/printf.c:657
    if (*format == '.') {
     be8:	cef51ee3          	bne	a0,a5,8e4 <_vsnprintf+0xf8>
d:\PDS\test\Sparrow_RISC-V\MRS\obj/../lib/driver/src/printf.c:660
      if (_is_digit(*format)) {
     bec:	001c4503          	lbu	a0,1(s8)
     bf0:	00900593          	li	a1,9
d:\PDS\test\Sparrow_RISC-V\MRS\obj/../lib/driver/src/printf.c:659
      format++;
     bf4:	00070613          	mv	a2,a4
_is_digit():
d:\PDS\test\Sparrow_RISC-V\MRS\obj/../lib/driver/src/printf.c:207
  return (ch >= '0') && (ch <= '9');
     bf8:	fd050793          	addi	a5,a0,-48
_vsnprintf():
d:\PDS\test\Sparrow_RISC-V\MRS\obj/../lib/driver/src/printf.c:660
      if (_is_digit(*format)) {
     bfc:	0ff7f793          	zext.b	a5,a5
d:\PDS\test\Sparrow_RISC-V\MRS\obj/../lib/driver/src/printf.c:658
      flags |= FLAGS_PRECISION;
     c00:	4006e693          	ori	a3,a3,1024
d:\PDS\test\Sparrow_RISC-V\MRS\obj/../lib/driver/src/printf.c:660
      if (_is_digit(*format)) {
     c04:	18f5fe63          	bgeu	a1,a5,da0 <_vsnprintf+0x5b4>
d:\PDS\test\Sparrow_RISC-V\MRS\obj/../lib/driver/src/printf.c:663
      else if (*format == '*') {
     c08:	02a00793          	li	a5,42
     c0c:	1cf50663          	beq	a0,a5,dd8 <_vsnprintf+0x5ec>
d:\PDS\test\Sparrow_RISC-V\MRS\obj/../lib/driver/src/printf.c:659
      format++;
     c10:	00070c13          	mv	s8,a4
d:\PDS\test\Sparrow_RISC-V\MRS\obj/../lib/driver/src/printf.c:671
    switch (*format) {
     c14:	06c00793          	li	a5,108
     c18:	00170713          	addi	a4,a4,1
d:\PDS\test\Sparrow_RISC-V\MRS\obj/../lib/driver/src/printf.c:674
        format++;
     c1c:	00070613          	mv	a2,a4
d:\PDS\test\Sparrow_RISC-V\MRS\obj/../lib/driver/src/printf.c:671
    switch (*format) {
     c20:	ccf518e3          	bne	a0,a5,8f0 <_vsnprintf+0x104>
d:\PDS\test\Sparrow_RISC-V\MRS\obj/../lib/driver/src/printf.c:675
        if (*format == 'l') {
     c24:	001c4503          	lbu	a0,1(s8)
     c28:	1ef50c63          	beq	a0,a5,e20 <_vsnprintf+0x634>
d:\PDS\test\Sparrow_RISC-V\MRS\obj/../lib/driver/src/printf.c:699
        flags |= (sizeof(size_t) == sizeof(long) ? FLAGS_LONG : FLAGS_LONG_LONG);
     c2c:	1006e693          	ori	a3,a3,256
d:\PDS\test\Sparrow_RISC-V\MRS\obj/../lib/driver/src/printf.c:701
        break;
     c30:	cddff06f          	j	90c <_vsnprintf+0x120>
d:\PDS\test\Sparrow_RISC-V\MRS\obj/../lib/driver/src/printf.c:671
    switch (*format) {
     c34:	07a00793          	li	a5,122
     c38:	e0f510e3          	bne	a0,a5,a38 <_vsnprintf+0x24c>
d:\PDS\test\Sparrow_RISC-V\MRS\obj/../lib/driver/src/printf.c:675
        if (*format == 'l') {
     c3c:	001c4503          	lbu	a0,1(s8)
d:\PDS\test\Sparrow_RISC-V\MRS\obj/../lib/driver/src/printf.c:699
        flags |= (sizeof(size_t) == sizeof(long) ? FLAGS_LONG : FLAGS_LONG_LONG);
     c40:	1006e693          	ori	a3,a3,256
d:\PDS\test\Sparrow_RISC-V\MRS\obj/../lib/driver/src/printf.c:701
        break;
     c44:	cc9ff06f          	j	90c <_vsnprintf+0x120>
d:\PDS\test\Sparrow_RISC-V\MRS\obj/../lib/driver/src/printf.c:644
      const int w = va_arg(va, int);
     c48:	000d2403          	lw	s0,0(s10)
     c4c:	004d0d13          	addi	s10,s10,4
d:\PDS\test\Sparrow_RISC-V\MRS\obj/../lib/driver/src/printf.c:645
      if (w < 0) {
     c50:	00044a63          	bltz	s0,c64 <_vsnprintf+0x478>
d:\PDS\test\Sparrow_RISC-V\MRS\obj/../lib/driver/src/printf.c:657
    if (*format == '.') {
     c54:	001c4503          	lbu	a0,1(s8)
d:\PDS\test\Sparrow_RISC-V\MRS\obj/../lib/driver/src/printf.c:652
      format++;
     c58:	00070c13          	mv	s8,a4
     c5c:	00170713          	addi	a4,a4,1
     c60:	c79ff06f          	j	8d8 <_vsnprintf+0xec>
d:\PDS\test\Sparrow_RISC-V\MRS\obj/../lib/driver/src/printf.c:657
    if (*format == '.') {
     c64:	001c4503          	lbu	a0,1(s8)
d:\PDS\test\Sparrow_RISC-V\MRS\obj/../lib/driver/src/printf.c:646
        flags |= FLAGS_LEFT;    // reverse padding
     c68:	0026e693          	ori	a3,a3,2
d:\PDS\test\Sparrow_RISC-V\MRS\obj/../lib/driver/src/printf.c:652
      format++;
     c6c:	00070c13          	mv	s8,a4
d:\PDS\test\Sparrow_RISC-V\MRS\obj/../lib/driver/src/printf.c:647
        width = (unsigned int)-w;
     c70:	40800433          	neg	s0,s0
d:\PDS\test\Sparrow_RISC-V\MRS\obj/../lib/driver/src/printf.c:652
      format++;
     c74:	00170713          	addi	a4,a4,1
     c78:	c61ff06f          	j	8d8 <_vsnprintf+0xec>
d:\PDS\test\Sparrow_RISC-V\MRS\obj/../lib/driver/src/printf.c:683
        if (*format == 'h') {
     c7c:	001c4503          	lbu	a0,1(s8)
     c80:	28f50663          	beq	a0,a5,f0c <_vsnprintf+0x720>
d:\PDS\test\Sparrow_RISC-V\MRS\obj/../lib/driver/src/printf.c:681
        flags |= FLAGS_SHORT;
     c84:	0806e693          	ori	a3,a3,128
     c88:	c85ff06f          	j	90c <_vsnprintf+0x120>
d:\PDS\test\Sparrow_RISC-V\MRS\obj/../lib/driver/src/printf.c:821
        const char* p = va_arg(va, char*);
     c8c:	000d2703          	lw	a4,0(s10)
     c90:	004d0793          	addi	a5,s10,4
     c94:	00f12e23          	sw	a5,28(sp)
_strnlen_s():
d:\PDS\test\Sparrow_RISC-V\MRS\obj/../lib/driver/src/printf.c:198
  for (s = str; *s && maxsize--; ++s);
     c98:	00074583          	lbu	a1,0(a4)
     c9c:	00058513          	mv	a0,a1
_vsnprintf():
d:\PDS\test\Sparrow_RISC-V\MRS\obj/../lib/driver/src/printf.c:822
        unsigned int l = _strnlen_s(p, precision ? precision : (size_t)-1);
     ca0:	140e1e63          	bnez	t3,dfc <_vsnprintf+0x610>
_strnlen_s():
d:\PDS\test\Sparrow_RISC-V\MRS\obj/../lib/driver/src/printf.c:198
  for (s = str; *s && maxsize--; ++s);
     ca4:	ffe00613          	li	a2,-2
     ca8:	02058463          	beqz	a1,cd0 <_vsnprintf+0x4e4>
     cac:	00160613          	addi	a2,a2,1
     cb0:	00c70633          	add	a2,a4,a2
     cb4:	00070c93          	mv	s9,a4
     cb8:	0080006f          	j	cc0 <_vsnprintf+0x4d4>
     cbc:	00cc8863          	beq	s9,a2,ccc <_vsnprintf+0x4e0>
     cc0:	001cc783          	lbu	a5,1(s9)
     cc4:	001c8c93          	addi	s9,s9,1
     cc8:	fe079ae3          	bnez	a5,cbc <_vsnprintf+0x4d0>
d:\PDS\test\Sparrow_RISC-V\MRS\obj/../lib/driver/src/printf.c:199
  return (unsigned int)(s - str);
     ccc:	40ec8cb3          	sub	s9,s9,a4
_vsnprintf():
d:\PDS\test\Sparrow_RISC-V\MRS\obj/../lib/driver/src/printf.c:824
        if (flags & FLAGS_PRECISION) {
     cd0:	4006fd93          	andi	s11,a3,1024
     cd4:	000d8663          	beqz	s11,ce0 <_vsnprintf+0x4f4>
d:\PDS\test\Sparrow_RISC-V\MRS\obj/../lib/driver/src/printf.c:825
          l = (l < precision ? l : precision);
     cd8:	019e7463          	bgeu	t3,s9,ce0 <_vsnprintf+0x4f4>
     cdc:	000e0c93          	mv	s9,t3
d:\PDS\test\Sparrow_RISC-V\MRS\obj/../lib/driver/src/printf.c:827
        if (!(flags & FLAGS_LEFT)) {
     ce0:	0026f693          	andi	a3,a3,2
     ce4:	24068863          	beqz	a3,f34 <_vsnprintf+0x748>
d:\PDS\test\Sparrow_RISC-V\MRS\obj/../lib/driver/src/printf.c:833
        while ((*p != 0) && (!(flags & FLAGS_PRECISION) || precision--)) {
     ce8:	06058263          	beqz	a1,d4c <_vsnprintf+0x560>
     cec:	1c0d8063          	beqz	s11,eac <_vsnprintf+0x6c0>
     cf0:	03912223          	sw	s9,36(sp)
     cf4:	006e0d33          	add	s10,t3,t1
d:\PDS\test\Sparrow_RISC-V\MRS\obj/../lib/driver/src/printf.c:829
            out(' ', buffer, idx++, maxlen);
     cf8:	00030613          	mv	a2,t1
     cfc:	02d12023          	sw	a3,32(sp)
     d00:	02812423          	sw	s0,40(sp)
     d04:	00070c93          	mv	s9,a4
     d08:	00030d93          	mv	s11,t1
d:\PDS\test\Sparrow_RISC-V\MRS\obj/../lib/driver/src/printf.c:833
        while ((*p != 0) && (!(flags & FLAGS_PRECISION) || precision--)) {
     d0c:	02cd0663          	beq	s10,a2,d38 <_vsnprintf+0x54c>
d:\PDS\test\Sparrow_RISC-V\MRS\obj/../lib/driver/src/printf.c:834
          out(*(p++), buffer, idx++, maxlen);
     d10:	00090693          	mv	a3,s2
     d14:	00098593          	mv	a1,s3
     d18:	00160413          	addi	s0,a2,1
     d1c:	000a00e7          	jalr	s4
d:\PDS\test\Sparrow_RISC-V\MRS\obj/../lib/driver/src/printf.c:833
        while ((*p != 0) && (!(flags & FLAGS_PRECISION) || precision--)) {
     d20:	41b407b3          	sub	a5,s0,s11
     d24:	00fc87b3          	add	a5,s9,a5
     d28:	0007c503          	lbu	a0,0(a5)
     d2c:	1e050863          	beqz	a0,f1c <_vsnprintf+0x730>
d:\PDS\test\Sparrow_RISC-V\MRS\obj/../lib/driver/src/printf.c:834
          out(*(p++), buffer, idx++, maxlen);
     d30:	00040613          	mv	a2,s0
d:\PDS\test\Sparrow_RISC-V\MRS\obj/../lib/driver/src/printf.c:833
        while ((*p != 0) && (!(flags & FLAGS_PRECISION) || precision--)) {
     d34:	fccd1ee3          	bne	s10,a2,d10 <_vsnprintf+0x524>
     d38:	02012683          	lw	a3,32(sp)
     d3c:	02412c83          	lw	s9,36(sp)
     d40:	02812403          	lw	s0,40(sp)
     d44:	000d0313          	mv	t1,s10
d:\PDS\test\Sparrow_RISC-V\MRS\obj/../lib/driver/src/printf.c:837
        if (flags & FLAGS_LEFT) {
     d48:	c40682e3          	beqz	a3,98c <_vsnprintf+0x1a0>
     d4c:	00030d93          	mv	s11,t1
d:\PDS\test\Sparrow_RISC-V\MRS\obj/../lib/driver/src/printf.c:838
          while (l++ < width) {
     d50:	c28cfee3          	bgeu	s9,s0,98c <_vsnprintf+0x1a0>
     d54:	00640433          	add	s0,s0,t1
     d58:	41940333          	sub	t1,s0,s9
     d5c:	00030413          	mv	s0,t1
d:\PDS\test\Sparrow_RISC-V\MRS\obj/../lib/driver/src/printf.c:839
            out(' ', buffer, idx++, maxlen);
     d60:	000d8613          	mv	a2,s11
     d64:	00090693          	mv	a3,s2
     d68:	001d8d93          	addi	s11,s11,1
     d6c:	00098593          	mv	a1,s3
     d70:	02000513          	li	a0,32
     d74:	000a00e7          	jalr	s4
d:\PDS\test\Sparrow_RISC-V\MRS\obj/../lib/driver/src/printf.c:838
          while (l++ < width) {
     d78:	fe8d94e3          	bne	s11,s0,d60 <_vsnprintf+0x574>
     d7c:	00040313          	mv	t1,s0
     d80:	c0dff06f          	j	98c <_vsnprintf+0x1a0>
d:\PDS\test\Sparrow_RISC-V\MRS\obj/../lib/driver/src/printf.c:611
  while (*format)
     d84:	000c4503          	lbu	a0,0(s8)
d:\PDS\test\Sparrow_RISC-V\MRS\obj/../lib/driver/src/printf.c:608
    out = _out_null;
     d88:	2f000a13          	li	s4,752
d:\PDS\test\Sparrow_RISC-V\MRS\obj/../lib/driver/src/printf.c:611
  while (*format)
     d8c:	00000413          	li	s0,0
     d90:	aa051ce3          	bnez	a0,848 <_vsnprintf+0x5c>
     d94:	00000493          	li	s1,0
d:\PDS\test\Sparrow_RISC-V\MRS\obj/../lib/driver/src/printf.c:877
  out((char)0, buffer, idx < maxlen ? idx : maxlen - 1U, maxlen);
     d98:	c12468e3          	bltu	s0,s2,9a8 <_vsnprintf+0x1bc>
     d9c:	c09ff06f          	j	9a4 <_vsnprintf+0x1b8>
_atoi():
d:\PDS\test\Sparrow_RISC-V\MRS\obj/../lib/driver/src/printf.c:215
  while (_is_digit(**str)) {
     da0:	00900713          	li	a4,9
d:\PDS\test\Sparrow_RISC-V\MRS\obj/../lib/driver/src/printf.c:216
    i = i * 10U + (unsigned int)(*((*str)++) - '0');
     da4:	002e1793          	slli	a5,t3,0x2
     da8:	01c787b3          	add	a5,a5,t3
     dac:	00160613          	addi	a2,a2,1
     db0:	00179793          	slli	a5,a5,0x1
     db4:	00a787b3          	add	a5,a5,a0
d:\PDS\test\Sparrow_RISC-V\MRS\obj/../lib/driver/src/printf.c:215
  while (_is_digit(**str)) {
     db8:	00064503          	lbu	a0,0(a2)
d:\PDS\test\Sparrow_RISC-V\MRS\obj/../lib/driver/src/printf.c:216
    i = i * 10U + (unsigned int)(*((*str)++) - '0');
     dbc:	fd078e13          	addi	t3,a5,-48
_is_digit():
d:\PDS\test\Sparrow_RISC-V\MRS\obj/../lib/driver/src/printf.c:207
  return (ch >= '0') && (ch <= '9');
     dc0:	fd050793          	addi	a5,a0,-48
_atoi():
d:\PDS\test\Sparrow_RISC-V\MRS\obj/../lib/driver/src/printf.c:215
  while (_is_digit(**str)) {
     dc4:	0ff7f793          	zext.b	a5,a5
     dc8:	fcf77ee3          	bgeu	a4,a5,da4 <_vsnprintf+0x5b8>
d:\PDS\test\Sparrow_RISC-V\MRS\obj/../lib/driver/src/printf.c:216
    i = i * 10U + (unsigned int)(*((*str)++) - '0');
     dcc:	00060c13          	mv	s8,a2
     dd0:	00160713          	addi	a4,a2,1
     dd4:	b11ff06f          	j	8e4 <_vsnprintf+0xf8>
_vsnprintf():
d:\PDS\test\Sparrow_RISC-V\MRS\obj/../lib/driver/src/printf.c:665
        precision = prec > 0 ? (unsigned int)prec : 0U;
     dd8:	000d2e03          	lw	t3,0(s10)
d:\PDS\test\Sparrow_RISC-V\MRS\obj/../lib/driver/src/printf.c:671
    switch (*format) {
     ddc:	002c4503          	lbu	a0,2(s8)
d:\PDS\test\Sparrow_RISC-V\MRS\obj/../lib/driver/src/printf.c:666
        format++;
     de0:	002c0c13          	addi	s8,s8,2
d:\PDS\test\Sparrow_RISC-V\MRS\obj/../lib/driver/src/printf.c:665
        precision = prec > 0 ? (unsigned int)prec : 0U;
     de4:	fffe4793          	not	a5,t3
     de8:	41f7d793          	srai	a5,a5,0x1f
     dec:	00fe7e33          	and	t3,t3,a5
d:\PDS\test\Sparrow_RISC-V\MRS\obj/../lib/driver/src/printf.c:664
        const int prec = (int)va_arg(va, int);
     df0:	004d0d13          	addi	s10,s10,4
     df4:	001c0713          	addi	a4,s8,1
     df8:	aedff06f          	j	8e4 <_vsnprintf+0xf8>
_strnlen_s():
d:\PDS\test\Sparrow_RISC-V\MRS\obj/../lib/driver/src/printf.c:198
  for (s = str; *s && maxsize--; ++s);
     dfc:	ec058ae3          	beqz	a1,cd0 <_vsnprintf+0x4e4>
     e00:	fffe0613          	addi	a2,t3,-1
     e04:	ea9ff06f          	j	cac <_vsnprintf+0x4c0>
_ntoa_long():
d:\PDS\test\Sparrow_RISC-V\MRS\obj/../lib/driver/src/printf.c:312
    flags &= ~FLAGS_HASH;
     e08:	fef6f593          	andi	a1,a3,-17
     e0c:	4006f793          	andi	a5,a3,1024
     e10:	0215e593          	ori	a1,a1,33
d:\PDS\test\Sparrow_RISC-V\MRS\obj/../lib/driver/src/printf.c:316
  if (!(flags & FLAGS_PRECISION) || value) {
     e14:	04010713          	addi	a4,sp,64
     e18:	ca0792e3          	bnez	a5,abc <_vsnprintf+0x2d0>
     e1c:	c61ff06f          	j	a7c <_vsnprintf+0x290>
_vsnprintf():
d:\PDS\test\Sparrow_RISC-V\MRS\obj/../lib/driver/src/printf.c:707
    switch (*format) {
     e20:	002c4503          	lbu	a0,2(s8)
d:\PDS\test\Sparrow_RISC-V\MRS\obj/../lib/driver/src/printf.c:676
          flags |= FLAGS_LONG_LONG;
     e24:	3006e693          	ori	a3,a3,768
d:\PDS\test\Sparrow_RISC-V\MRS\obj/../lib/driver/src/printf.c:677
          format++;
     e28:	002c0613          	addi	a2,s8,2
     e2c:	ae1ff06f          	j	90c <_vsnprintf+0x120>
d:\PDS\test\Sparrow_RISC-V\MRS\obj/../lib/driver/src/printf.c:804
          while (l++ < width) {
     e30:	00100793          	li	a5,1
     e34:	4087fc63          	bgeu	a5,s0,124c <_vsnprintf+0xa60>
     e38:	fff30c93          	addi	s9,t1,-1
     e3c:	008c8cb3          	add	s9,s9,s0
     e40:	02812023          	sw	s0,32(sp)
     e44:	000d0d93          	mv	s11,s10
     e48:	00030413          	mv	s0,t1
     e4c:	000c0d13          	mv	s10,s8
     e50:	00030c13          	mv	s8,t1
d:\PDS\test\Sparrow_RISC-V\MRS\obj/../lib/driver/src/printf.c:805
            out(' ', buffer, idx++, maxlen);
     e54:	00040613          	mv	a2,s0
     e58:	00090693          	mv	a3,s2
     e5c:	00140413          	addi	s0,s0,1
     e60:	00098593          	mv	a1,s3
     e64:	02000513          	li	a0,32
     e68:	000a00e7          	jalr	s4
d:\PDS\test\Sparrow_RISC-V\MRS\obj/../lib/driver/src/printf.c:804
          while (l++ < width) {
     e6c:	ff9414e3          	bne	s0,s9,e54 <_vsnprintf+0x668>
d:\PDS\test\Sparrow_RISC-V\MRS\obj/../lib/driver/src/printf.c:809
        out((char)va_arg(va, int), buffer, idx++, maxlen);
     e70:	000c0313          	mv	t1,s8
     e74:	000d0c13          	mv	s8,s10
     e78:	000d8d13          	mv	s10,s11
     e7c:	00040d93          	mv	s11,s0
     e80:	02012403          	lw	s0,32(sp)
     e84:	000d4503          	lbu	a0,0(s10)
     e88:	00090693          	mv	a3,s2
     e8c:	00830333          	add	t1,t1,s0
     e90:	02612023          	sw	t1,32(sp)
     e94:	000d8613          	mv	a2,s11
     e98:	00098593          	mv	a1,s3
     e9c:	000a00e7          	jalr	s4
d:\PDS\test\Sparrow_RISC-V\MRS\obj/../lib/driver/src/printf.c:811
        if (flags & FLAGS_LEFT) {
     ea0:	02012303          	lw	t1,32(sp)
d:\PDS\test\Sparrow_RISC-V\MRS\obj/../lib/driver/src/printf.c:821
        const char* p = va_arg(va, char*);
     ea4:	01c12d03          	lw	s10,28(sp)
     ea8:	ae9ff06f          	j	990 <_vsnprintf+0x1a4>
d:\PDS\test\Sparrow_RISC-V\MRS\obj/../lib/driver/src/printf.c:834
          out(*(p++), buffer, idx++, maxlen);
     eac:	000c0793          	mv	a5,s8
     eb0:	02812223          	sw	s0,36(sp)
     eb4:	02d12023          	sw	a3,32(sp)
     eb8:	00070d13          	mv	s10,a4
     ebc:	00030413          	mv	s0,t1
     ec0:	00030c13          	mv	s8,t1
     ec4:	00078d93          	mv	s11,a5
d:\PDS\test\Sparrow_RISC-V\MRS\obj/../lib/driver/src/printf.c:834 (discriminator 1)
     ec8:	000c0613          	mv	a2,s8
     ecc:	00090693          	mv	a3,s2
     ed0:	00098593          	mv	a1,s3
     ed4:	000a00e7          	jalr	s4
     ed8:	001c0c13          	addi	s8,s8,1
d:\PDS\test\Sparrow_RISC-V\MRS\obj/../lib/driver/src/printf.c:833 (discriminator 1)
        while ((*p != 0) && (!(flags & FLAGS_PRECISION) || precision--)) {
     edc:	408c0733          	sub	a4,s8,s0
     ee0:	00ed0733          	add	a4,s10,a4
     ee4:	00074503          	lbu	a0,0(a4)
     ee8:	fe0510e3          	bnez	a0,ec8 <_vsnprintf+0x6dc>
     eec:	02012683          	lw	a3,32(sp)
     ef0:	02412403          	lw	s0,36(sp)
     ef4:	000d8793          	mv	a5,s11
     ef8:	000c0d93          	mv	s11,s8
d:\PDS\test\Sparrow_RISC-V\MRS\obj/../lib/driver/src/printf.c:834
          out(*(p++), buffer, idx++, maxlen);
     efc:	000d8313          	mv	t1,s11
     f00:	00078c13          	mv	s8,a5
d:\PDS\test\Sparrow_RISC-V\MRS\obj/../lib/driver/src/printf.c:837
        if (flags & FLAGS_LEFT) {
     f04:	a80684e3          	beqz	a3,98c <_vsnprintf+0x1a0>
     f08:	e45ff06f          	j	d4c <_vsnprintf+0x560>
d:\PDS\test\Sparrow_RISC-V\MRS\obj/../lib/driver/src/printf.c:707
    switch (*format) {
     f0c:	002c4503          	lbu	a0,2(s8)
d:\PDS\test\Sparrow_RISC-V\MRS\obj/../lib/driver/src/printf.c:684
          flags |= FLAGS_CHAR;
     f10:	0c06e693          	ori	a3,a3,192
d:\PDS\test\Sparrow_RISC-V\MRS\obj/../lib/driver/src/printf.c:685
          format++;
     f14:	002c0613          	addi	a2,s8,2
     f18:	9f5ff06f          	j	90c <_vsnprintf+0x120>
     f1c:	00040d93          	mv	s11,s0
     f20:	02012683          	lw	a3,32(sp)
     f24:	02412c83          	lw	s9,36(sp)
     f28:	02812403          	lw	s0,40(sp)
d:\PDS\test\Sparrow_RISC-V\MRS\obj/../lib/driver/src/printf.c:834
          out(*(p++), buffer, idx++, maxlen);
     f2c:	000d8313          	mv	t1,s11
     f30:	fd5ff06f          	j	f04 <_vsnprintf+0x718>
d:\PDS\test\Sparrow_RISC-V\MRS\obj/../lib/driver/src/printf.c:828
          while (l++ < width) {
     f34:	308cf863          	bgeu	s9,s0,1244 <_vsnprintf+0xa58>
     f38:	006407b3          	add	a5,s0,t1
     f3c:	02812223          	sw	s0,36(sp)
     f40:	41978cb3          	sub	s9,a5,s9
     f44:	00068d13          	mv	s10,a3
     f48:	02e12023          	sw	a4,32(sp)
     f4c:	03c12423          	sw	t3,40(sp)
     f50:	00030413          	mv	s0,t1
d:\PDS\test\Sparrow_RISC-V\MRS\obj/../lib/driver/src/printf.c:829
            out(' ', buffer, idx++, maxlen);
     f54:	00040613          	mv	a2,s0
     f58:	00090693          	mv	a3,s2
     f5c:	00140413          	addi	s0,s0,1
     f60:	00098593          	mv	a1,s3
     f64:	02000513          	li	a0,32
     f68:	000a00e7          	jalr	s4
d:\PDS\test\Sparrow_RISC-V\MRS\obj/../lib/driver/src/printf.c:828
          while (l++ < width) {
     f6c:	ff9414e3          	bne	s0,s9,f54 <_vsnprintf+0x768>
     f70:	02012703          	lw	a4,32(sp)
     f74:	00040313          	mv	t1,s0
     f78:	02412403          	lw	s0,36(sp)
     f7c:	02812e03          	lw	t3,40(sp)
     f80:	00074583          	lbu	a1,0(a4)
     f84:	000d0693          	mv	a3,s10
     f88:	00140c93          	addi	s9,s0,1
d:\PDS\test\Sparrow_RISC-V\MRS\obj/../lib/driver/src/printf.c:833
        while ((*p != 0) && (!(flags & FLAGS_PRECISION) || precision--)) {
     f8c:	00058513          	mv	a0,a1
     f90:	d4059ee3          	bnez	a1,cec <_vsnprintf+0x500>
d:\PDS\test\Sparrow_RISC-V\MRS\obj/../lib/driver/src/printf.c:821
        const char* p = va_arg(va, char*);
     f94:	01c12d03          	lw	s10,28(sp)
     f98:	9f9ff06f          	j	990 <_vsnprintf+0x1a4>
d:\PDS\test\Sparrow_RISC-V\MRS\obj/../lib/driver/src/printf.c:741
        if (flags & FLAGS_PRECISION) {
     f9c:	4006f513          	andi	a0,a3,1024
     fa0:	00050c63          	beqz	a0,fb8 <_vsnprintf+0x7cc>
d:\PDS\test\Sparrow_RISC-V\MRS\obj/../lib/driver/src/printf.c:742
          flags &= ~FLAGS_ZEROPAD;
     fa4:	ff26f693          	andi	a3,a3,-14
     fa8:	00200f13          	li	t5,2
     fac:	00000613          	li	a2,0
     fb0:	00200893          	li	a7,2
     fb4:	b89ff06f          	j	b3c <_vsnprintf+0x350>
d:\PDS\test\Sparrow_RISC-V\MRS\obj/../lib/driver/src/printf.c:737
          flags &= ~(FLAGS_PLUS | FLAGS_SPACE);
     fb8:	ff36f693          	andi	a3,a3,-13
     fbc:	00200f13          	li	t5,2
     fc0:	00000613          	li	a2,0
     fc4:	00200893          	li	a7,2
     fc8:	b75ff06f          	j	b3c <_vsnprintf+0x350>
d:\PDS\test\Sparrow_RISC-V\MRS\obj/../lib/driver/src/printf.c:732
          flags |= FLAGS_UPPERCASE;
     fcc:	0206e693          	ori	a3,a3,32
d:\PDS\test\Sparrow_RISC-V\MRS\obj/../lib/driver/src/printf.c:737
          flags &= ~(FLAGS_PLUS | FLAGS_SPACE);
     fd0:	ff36f693          	andi	a3,a3,-13
     fd4:	00000513          	li	a0,0
     fd8:	01000f13          	li	t5,16
     fdc:	00000613          	li	a2,0
     fe0:	01000893          	li	a7,16
     fe4:	b59ff06f          	j	b3c <_vsnprintf+0x350>
_ntoa_long():
d:\PDS\test\Sparrow_RISC-V\MRS\obj/../lib/driver/src/printf.c:319
      buf[len++] = digit < 10 ? '0' + digit : (flags & FLAGS_UPPERCASE ? 'A' : 'a') + digit - 10;
     fe8:	0206f613          	andi	a2,a3,32
     fec:	06100713          	li	a4,97
     ff0:	00060463          	beqz	a2,ff8 <_vsnprintf+0x80c>
     ff4:	04100713          	li	a4,65
     ff8:	0ff77f13          	zext.b	t5,a4
     ffc:	00900813          	li	a6,9
    1000:	04010713          	addi	a4,sp,64
    1004:	ff6f0f13          	addi	t5,t5,-10
d:\PDS\test\Sparrow_RISC-V\MRS\obj/../lib/driver/src/printf.c:321
    } while (value && (len < PRINTF_NTOA_BUFFER_SIZE));
    1008:	02000e93          	li	t4,32
    100c:	0280006f          	j	1034 <_vsnprintf+0x848>
d:\PDS\test\Sparrow_RISC-V\MRS\obj/../lib/driver/src/printf.c:319
      buf[len++] = digit < 10 ? '0' + digit : (flags & FLAGS_UPPERCASE ? 'A' : 'a') + digit - 10;
    1010:	03060613          	addi	a2,a2,48
    1014:	0ff67613          	zext.b	a2,a2
    1018:	00178793          	addi	a5,a5,1
    101c:	00f70533          	add	a0,a4,a5
    1020:	fec50fa3          	sb	a2,-1(a0)
d:\PDS\test\Sparrow_RISC-V\MRS\obj/../lib/driver/src/printf.c:320
      value /= base;
    1024:	0315d633          	divu	a2,a1,a7
d:\PDS\test\Sparrow_RISC-V\MRS\obj/../lib/driver/src/printf.c:321
    } while (value && (len < PRINTF_NTOA_BUFFER_SIZE));
    1028:	b515e4e3          	bltu	a1,a7,b70 <_vsnprintf+0x384>
    102c:	b5d782e3          	beq	a5,t4,b70 <_vsnprintf+0x384>
d:\PDS\test\Sparrow_RISC-V\MRS\obj/../lib/driver/src/printf.c:320
      value /= base;
    1030:	00060593          	mv	a1,a2
d:\PDS\test\Sparrow_RISC-V\MRS\obj/../lib/driver/src/printf.c:318
      const char digit = (char)(value % base);
    1034:	0315f533          	remu	a0,a1,a7
    1038:	0ff57613          	zext.b	a2,a0
d:\PDS\test\Sparrow_RISC-V\MRS\obj/../lib/driver/src/printf.c:319
      buf[len++] = digit < 10 ? '0' + digit : (flags & FLAGS_UPPERCASE ? 'A' : 'a') + digit - 10;
    103c:	fca87ae3          	bgeu	a6,a0,1010 <_vsnprintf+0x824>
    1040:	01e60633          	add	a2,a2,t5
    1044:	0ff67613          	zext.b	a2,a2
    1048:	fd1ff06f          	j	1018 <_vsnprintf+0x82c>
_vsnprintf():
d:\PDS\test\Sparrow_RISC-V\MRS\obj/../lib/driver/src/printf.c:767
            idx = _ntoa_long_long(out, buffer, idx, maxlen, va_arg(va, unsigned long long), false, base, precision, width, flags);
    104c:	007d0d13          	addi	s10,s10,7
    1050:	ff8d7d13          	andi	s10,s10,-8
    1054:	000d2f83          	lw	t6,0(s10)
    1058:	004d2c83          	lw	s9,4(s10)
    105c:	008d0d13          	addi	s10,s10,8
_ntoa_long_long():
d:\PDS\test\Sparrow_RISC-V\MRS\obj/../lib/driver/src/printf.c:336
  if (!value) {
    1060:	019fe7b3          	or	a5,t6,s9
    1064:	02079863          	bnez	a5,1094 <_vsnprintf+0x8a8>
d:\PDS\test\Sparrow_RISC-V\MRS\obj/../lib/driver/src/printf.c:337
    flags &= ~FLAGS_HASH;
    1068:	fef6f693          	andi	a3,a3,-17
d:\PDS\test\Sparrow_RISC-V\MRS\obj/../lib/driver/src/printf.c:341
  if (!(flags & FLAGS_PRECISION) || value) {
    106c:	02050463          	beqz	a0,1094 <_vsnprintf+0x8a8>
d:\PDS\test\Sparrow_RISC-V\MRS\obj/../lib/driver/src/printf.c:333
  size_t len = 0U;
    1070:	00000d93          	li	s11,0
    1074:	04010713          	addi	a4,sp,64
d:\PDS\test\Sparrow_RISC-V\MRS\obj/../lib/driver/src/printf.c:349
  return _ntoa_format(out, buffer, idx, maxlen, buf, len, negative, (unsigned int)base, prec, width, flags);
    1078:	00030613          	mv	a2,t1
    107c:	00d12423          	sw	a3,8(sp)
    1080:	00812223          	sw	s0,4(sp)
    1084:	01c12023          	sw	t3,0(sp)
    1088:	00000813          	li	a6,0
    108c:	000d8793          	mv	a5,s11
    1090:	a4dff06f          	j	adc <_vsnprintf+0x2f0>
d:\PDS\test\Sparrow_RISC-V\MRS\obj/../lib/driver/src/printf.c:344
      buf[len++] = digit < 10 ? '0' + digit : (flags & FLAGS_UPPERCASE ? 'A' : 'a') + digit - 10;
    1094:	0206f713          	andi	a4,a3,32
    1098:	06100793          	li	a5,97
    109c:	00070463          	beqz	a4,10a4 <_vsnprintf+0x8b8>
    10a0:	04100793          	li	a5,65
    10a4:	0ff7f593          	zext.b	a1,a5
    10a8:	00000d93          	li	s11,0
    10ac:	04010713          	addi	a4,sp,64
    10b0:	ff658793          	addi	a5,a1,-10
    10b4:	02812023          	sw	s0,32(sp)
    10b8:	03412823          	sw	s4,48(sp)
    10bc:	03312a23          	sw	s3,52(sp)
    10c0:	03212c23          	sw	s2,56(sp)
    10c4:	03812e23          	sw	s8,60(sp)
    10c8:	01112e23          	sw	a7,28(sp)
    10cc:	000d8c13          	mv	s8,s11
    10d0:	03c12223          	sw	t3,36(sp)
    10d4:	000d0d93          	mv	s11,s10
    10d8:	02612423          	sw	t1,40(sp)
    10dc:	02d12623          	sw	a3,44(sp)
    10e0:	000f8413          	mv	s0,t6
    10e4:	000f0993          	mv	s3,t5
    10e8:	00060a13          	mv	s4,a2
    10ec:	00070913          	mv	s2,a4
    10f0:	00078d13          	mv	s10,a5
    10f4:	0400006f          	j	1134 <_vsnprintf+0x948>
    10f8:	03050793          	addi	a5,a0,48
    10fc:	0ff7f793          	zext.b	a5,a5
    1100:	001c0c13          	addi	s8,s8,1
    1104:	01890833          	add	a6,s2,s8
d:\PDS\test\Sparrow_RISC-V\MRS\obj/../lib/driver/src/printf.c:345
      value /= base;
    1108:	00098613          	mv	a2,s3
    110c:	00000693          	li	a3,0
    1110:	00040513          	mv	a0,s0
    1114:	000c8593          	mv	a1,s9
d:\PDS\test\Sparrow_RISC-V\MRS\obj/../lib/driver/src/printf.c:344
      buf[len++] = digit < 10 ? '0' + digit : (flags & FLAGS_UPPERCASE ? 'A' : 'a') + digit - 10;
    1118:	fef80fa3          	sb	a5,-1(a6)
d:\PDS\test\Sparrow_RISC-V\MRS\obj/../lib/driver/src/printf.c:345
      value /= base;
    111c:	180010ef          	jal	ra,229c <__udivdi3>
d:\PDS\test\Sparrow_RISC-V\MRS\obj/../lib/driver/src/printf.c:346
    } while (value && (len < PRINTF_NTOA_BUFFER_SIZE));
    1120:	0f9a0263          	beq	s4,s9,1204 <_vsnprintf+0xa18>
    1124:	02000793          	li	a5,32
    1128:	0efc0063          	beq	s8,a5,1208 <_vsnprintf+0xa1c>
d:\PDS\test\Sparrow_RISC-V\MRS\obj/../lib/driver/src/printf.c:345
      value /= base;
    112c:	00050413          	mv	s0,a0
    1130:	00058c93          	mv	s9,a1
d:\PDS\test\Sparrow_RISC-V\MRS\obj/../lib/driver/src/printf.c:343
      const char digit = /*(char)*/(value % base);
    1134:	00098613          	mv	a2,s3
    1138:	00000693          	li	a3,0
    113c:	00040513          	mv	a0,s0
    1140:	000c8593          	mv	a1,s9
    1144:	610010ef          	jal	ra,2754 <__umoddi3>
    1148:	0ff57513          	zext.b	a0,a0
d:\PDS\test\Sparrow_RISC-V\MRS\obj/../lib/driver/src/printf.c:344
      buf[len++] = digit < 10 ? '0' + digit : (flags & FLAGS_UPPERCASE ? 'A' : 'a') + digit - 10;
    114c:	00900793          	li	a5,9
    1150:	faa7f4e3          	bgeu	a5,a0,10f8 <_vsnprintf+0x90c>
    1154:	01a507b3          	add	a5,a0,s10
    1158:	0ff7f793          	zext.b	a5,a5
    115c:	fa5ff06f          	j	1100 <_vsnprintf+0x914>
_vsnprintf():
d:\PDS\test\Sparrow_RISC-V\MRS\obj/../lib/driver/src/printf.c:771
            idx = _ntoa_long(out, buffer, idx, maxlen, va_arg(va, unsigned long), false, base, precision, width, flags);
    1160:	000d2783          	lw	a5,0(s10)
_ntoa_long():
d:\PDS\test\Sparrow_RISC-V\MRS\obj/../lib/driver/src/printf.c:311
  if (!value) {
    1164:	00079863          	bnez	a5,1174 <_vsnprintf+0x988>
d:\PDS\test\Sparrow_RISC-V\MRS\obj/../lib/driver/src/printf.c:312
    flags &= ~FLAGS_HASH;
    1168:	fef6f693          	andi	a3,a3,-17
d:\PDS\test\Sparrow_RISC-V\MRS\obj/../lib/driver/src/printf.c:316
  if (!(flags & FLAGS_PRECISION) || value) {
    116c:	04010713          	addi	a4,sp,64
    1170:	06051463          	bnez	a0,11d8 <_vsnprintf+0x9ec>
d:\PDS\test\Sparrow_RISC-V\MRS\obj/../lib/driver/src/printf.c:319
      buf[len++] = digit < 10 ? '0' + digit : (flags & FLAGS_UPPERCASE ? 'A' : 'a') + digit - 10;
    1174:	0206f613          	andi	a2,a3,32
    1178:	06100713          	li	a4,97
    117c:	00060463          	beqz	a2,1184 <_vsnprintf+0x998>
    1180:	04100713          	li	a4,65
    1184:	0ff77f13          	zext.b	t5,a4
    1188:	00900813          	li	a6,9
    118c:	04010713          	addi	a4,sp,64
    1190:	ff6f0f13          	addi	t5,t5,-10
d:\PDS\test\Sparrow_RISC-V\MRS\obj/../lib/driver/src/printf.c:321
    } while (value && (len < PRINTF_NTOA_BUFFER_SIZE));
    1194:	02000e93          	li	t4,32
    1198:	0280006f          	j	11c0 <_vsnprintf+0x9d4>
d:\PDS\test\Sparrow_RISC-V\MRS\obj/../lib/driver/src/printf.c:319
      buf[len++] = digit < 10 ? '0' + digit : (flags & FLAGS_UPPERCASE ? 'A' : 'a') + digit - 10;
    119c:	03060613          	addi	a2,a2,48
    11a0:	0ff67613          	zext.b	a2,a2
    11a4:	00158593          	addi	a1,a1,1
    11a8:	00b70533          	add	a0,a4,a1
    11ac:	fec50fa3          	sb	a2,-1(a0)
d:\PDS\test\Sparrow_RISC-V\MRS\obj/../lib/driver/src/printf.c:320
      value /= base;
    11b0:	0317d633          	divu	a2,a5,a7
d:\PDS\test\Sparrow_RISC-V\MRS\obj/../lib/driver/src/printf.c:321
    } while (value && (len < PRINTF_NTOA_BUFFER_SIZE));
    11b4:	0317e263          	bltu	a5,a7,11d8 <_vsnprintf+0x9ec>
    11b8:	03d58063          	beq	a1,t4,11d8 <_vsnprintf+0x9ec>
d:\PDS\test\Sparrow_RISC-V\MRS\obj/../lib/driver/src/printf.c:320
      value /= base;
    11bc:	00060793          	mv	a5,a2
d:\PDS\test\Sparrow_RISC-V\MRS\obj/../lib/driver/src/printf.c:318
      const char digit = (char)(value % base);
    11c0:	0317f533          	remu	a0,a5,a7
    11c4:	0ff57613          	zext.b	a2,a0
d:\PDS\test\Sparrow_RISC-V\MRS\obj/../lib/driver/src/printf.c:319
      buf[len++] = digit < 10 ? '0' + digit : (flags & FLAGS_UPPERCASE ? 'A' : 'a') + digit - 10;
    11c8:	fca87ae3          	bgeu	a6,a0,119c <_vsnprintf+0x9b0>
    11cc:	01e60633          	add	a2,a2,t5
    11d0:	0ff67613          	zext.b	a2,a2
    11d4:	fd1ff06f          	j	11a4 <_vsnprintf+0x9b8>
d:\PDS\test\Sparrow_RISC-V\MRS\obj/../lib/driver/src/printf.c:324
  return _ntoa_format(out, buffer, idx, maxlen, buf, len, negative, (unsigned int)base, prec, width, flags);
    11d8:	00030613          	mv	a2,t1
    11dc:	00d12423          	sw	a3,8(sp)
    11e0:	00812223          	sw	s0,4(sp)
    11e4:	01c12023          	sw	t3,0(sp)
    11e8:	00000813          	li	a6,0
    11ec:	00058793          	mv	a5,a1
    11f0:	995ff06f          	j	b84 <_vsnprintf+0x398>
_vsnprintf():
d:\PDS\test\Sparrow_RISC-V\MRS\obj/../lib/driver/src/printf.c:774 (discriminator 2)
            const unsigned int value = (flags & FLAGS_CHAR) ? (unsigned char)va_arg(va, unsigned int) : (flags & FLAGS_SHORT) ? (unsigned short int)va_arg(va, unsigned int) : va_arg(va, unsigned int);
    11f4:	0806f713          	andi	a4,a3,128
    11f8:	04070263          	beqz	a4,123c <_vsnprintf+0xa50>
    11fc:	000d5583          	lhu	a1,0(s10)
    1200:	95dff06f          	j	b5c <_vsnprintf+0x370>
_ntoa_long_long():
d:\PDS\test\Sparrow_RISC-V\MRS\obj/../lib/driver/src/printf.c:346
    } while (value && (len < PRINTF_NTOA_BUFFER_SIZE));
    1204:	f33470e3          	bgeu	s0,s3,1124 <_vsnprintf+0x938>
    1208:	000d8d13          	mv	s10,s11
    120c:	00090713          	mv	a4,s2
    1210:	000c0d93          	mv	s11,s8
    1214:	01c12883          	lw	a7,28(sp)
    1218:	02012403          	lw	s0,32(sp)
    121c:	02412e03          	lw	t3,36(sp)
    1220:	02812303          	lw	t1,40(sp)
    1224:	02c12683          	lw	a3,44(sp)
    1228:	03012a03          	lw	s4,48(sp)
    122c:	03412983          	lw	s3,52(sp)
    1230:	03c12c03          	lw	s8,60(sp)
    1234:	03812903          	lw	s2,56(sp)
    1238:	e41ff06f          	j	1078 <_vsnprintf+0x88c>
_vsnprintf():
d:\PDS\test\Sparrow_RISC-V\MRS\obj/../lib/driver/src/printf.c:774
            const unsigned int value = (flags & FLAGS_CHAR) ? (unsigned char)va_arg(va, unsigned int) : (flags & FLAGS_SHORT) ? (unsigned short int)va_arg(va, unsigned int) : va_arg(va, unsigned int);
    123c:	000d2583          	lw	a1,0(s10)
    1240:	91dff06f          	j	b5c <_vsnprintf+0x370>
d:\PDS\test\Sparrow_RISC-V\MRS\obj/../lib/driver/src/printf.c:828
          while (l++ < width) {
    1244:	001c8c93          	addi	s9,s9,1
    1248:	d45ff06f          	j	f8c <_vsnprintf+0x7a0>
d:\PDS\test\Sparrow_RISC-V\MRS\obj/../lib/driver/src/printf.c:809
        out((char)va_arg(va, int), buffer, idx++, maxlen);
    124c:	000d4503          	lbu	a0,0(s10)
    1250:	00090693          	mv	a3,s2
    1254:	00030613          	mv	a2,t1
    1258:	00098593          	mv	a1,s3
    125c:	000a00e7          	jalr	s4
d:\PDS\test\Sparrow_RISC-V\MRS\obj/../lib/driver/src/printf.c:821
        const char* p = va_arg(va, char*);
    1260:	01c12d03          	lw	s10,28(sp)
d:\PDS\test\Sparrow_RISC-V\MRS\obj/../lib/driver/src/printf.c:804
          while (l++ < width) {
    1264:	000c8313          	mv	t1,s9
d:\PDS\test\Sparrow_RISC-V\MRS\obj/../lib/driver/src/printf.c:843
        break;
    1268:	f28ff06f          	j	990 <_vsnprintf+0x1a4>
d:\PDS\test\Sparrow_RISC-V\MRS\obj/../lib/driver/src/printf.c:778
        format++;
    126c:	00070c13          	mv	s8,a4
    1270:	ea8ff06f          	j	918 <_vsnprintf+0x12c>
d:\PDS\test\Sparrow_RISC-V\MRS\obj/../lib/driver/src/printf.c:717
        if (*format == 'x' || *format == 'X') {
    1274:	07800793          	li	a5,120
    1278:	2af50463          	beq	a0,a5,1520 <_vsnprintf+0xd34>
    127c:	06f00793          	li	a5,111
    1280:	18f50c63          	beq	a0,a5,1418 <_vsnprintf+0xc2c>
d:\PDS\test\Sparrow_RISC-V\MRS\obj/../lib/driver/src/printf.c:736
        if ((*format != 'i') && (*format != 'd')) {
    1284:	06900793          	li	a5,105
d:\PDS\test\Sparrow_RISC-V\MRS\obj/../lib/driver/src/printf.c:728
          flags &= ~FLAGS_HASH;   // no hash for dec format
    1288:	fef6fe93          	andi	t4,a3,-17
d:\PDS\test\Sparrow_RISC-V\MRS\obj/../lib/driver/src/printf.c:736
        if ((*format != 'i') && (*format != 'd')) {
    128c:	2af51863          	bne	a0,a5,153c <_vsnprintf+0xd50>
d:\PDS\test\Sparrow_RISC-V\MRS\obj/../lib/driver/src/printf.c:741
        if (flags & FLAGS_PRECISION) {
    1290:	4006f613          	andi	a2,a3,1024
    1294:	00060463          	beqz	a2,129c <_vsnprintf+0xab0>
d:\PDS\test\Sparrow_RISC-V\MRS\obj/../lib/driver/src/printf.c:742
          flags &= ~FLAGS_ZEROPAD;
    1298:	fee6fe93          	andi	t4,a3,-18
d:\PDS\test\Sparrow_RISC-V\MRS\obj/../lib/driver/src/printf.c:748
          if (flags & FLAGS_LONG_LONG) {
    129c:	200ef693          	andi	a3,t4,512
    12a0:	06069e63          	bnez	a3,131c <_vsnprintf+0xb30>
d:\PDS\test\Sparrow_RISC-V\MRS\obj/../lib/driver/src/printf.c:754
          else if (flags & FLAGS_LONG) {
    12a4:	100ef793          	andi	a5,t4,256
d:\PDS\test\Sparrow_RISC-V\MRS\obj/../lib/driver/src/printf.c:755
            const long value = va_arg(va, long);
    12a8:	004d0c93          	addi	s9,s10,4
d:\PDS\test\Sparrow_RISC-V\MRS\obj/../lib/driver/src/printf.c:754
          else if (flags & FLAGS_LONG) {
    12ac:	1a079663          	bnez	a5,1458 <_vsnprintf+0xc6c>
d:\PDS\test\Sparrow_RISC-V\MRS\obj/../lib/driver/src/printf.c:759
            const int value = (flags & FLAGS_CHAR) ? (char)va_arg(va, int) : (flags & FLAGS_SHORT) ? (short int)va_arg(va, int) : va_arg(va, int);
    12b0:	040ef713          	andi	a4,t4,64
    12b4:	18070063          	beqz	a4,1434 <_vsnprintf+0xc48>
    12b8:	000d4703          	lbu	a4,0(s10)
    12bc:	00070693          	mv	a3,a4
d:\PDS\test\Sparrow_RISC-V\MRS\obj/../lib/driver/src/printf.c:760 (discriminator 8)
            idx = _ntoa_long(out, buffer, idx, maxlen, (unsigned int)(value > 0 ? value : 0 - value), value < 0, base, precision, width, flags);
    12c0:	01f75813          	srli	a6,a4,0x1f
_ntoa_long():
d:\PDS\test\Sparrow_RISC-V\MRS\obj/../lib/driver/src/printf.c:311 (discriminator 8)
  if (!value) {
    12c4:	20070063          	beqz	a4,14c4 <_vsnprintf+0xcd8>
_vsnprintf():
d:\PDS\test\Sparrow_RISC-V\MRS\obj/../lib/driver/src/printf.c:760
            idx = _ntoa_long(out, buffer, idx, maxlen, (unsigned int)(value > 0 ? value : 0 - value), value < 0, base, precision, width, flags);
    12c8:	00068613          	mv	a2,a3
    12cc:	04010713          	addi	a4,sp,64
_ntoa_long():
d:\PDS\test\Sparrow_RISC-V\MRS\obj/../lib/driver/src/printf.c:318
      const char digit = (char)(value % base);
    12d0:	00a00593          	li	a1,10
d:\PDS\test\Sparrow_RISC-V\MRS\obj/../lib/driver/src/printf.c:321
    } while (value && (len < PRINTF_NTOA_BUFFER_SIZE));
    12d4:	00900f13          	li	t5,9
    12d8:	02000f93          	li	t6,32
    12dc:	0080006f          	j	12e4 <_vsnprintf+0xaf8>
    12e0:	03f78263          	beq	a5,t6,1304 <_vsnprintf+0xb18>
d:\PDS\test\Sparrow_RISC-V\MRS\obj/../lib/driver/src/printf.c:318
      const char digit = (char)(value % base);
    12e4:	02b676b3          	remu	a3,a2,a1
d:\PDS\test\Sparrow_RISC-V\MRS\obj/../lib/driver/src/printf.c:319
      buf[len++] = digit < 10 ? '0' + digit : (flags & FLAGS_UPPERCASE ? 'A' : 'a') + digit - 10;
    12e8:	00178793          	addi	a5,a5,1
    12ec:	00f708b3          	add	a7,a4,a5
    12f0:	00060513          	mv	a0,a2
    12f4:	03068693          	addi	a3,a3,48
    12f8:	fed88fa3          	sb	a3,-1(a7)
d:\PDS\test\Sparrow_RISC-V\MRS\obj/../lib/driver/src/printf.c:320
      value /= base;
    12fc:	02b65633          	divu	a2,a2,a1
d:\PDS\test\Sparrow_RISC-V\MRS\obj/../lib/driver/src/printf.c:321
    } while (value && (len < PRINTF_NTOA_BUFFER_SIZE));
    1300:	feaf60e3          	bltu	t5,a0,12e0 <_vsnprintf+0xaf4>
d:\PDS\test\Sparrow_RISC-V\MRS\obj/../lib/driver/src/printf.c:324
  return _ntoa_format(out, buffer, idx, maxlen, buf, len, negative, (unsigned int)base, prec, width, flags);
    1304:	00030613          	mv	a2,t1
    1308:	01d12423          	sw	t4,8(sp)
    130c:	00812223          	sw	s0,4(sp)
    1310:	01c12023          	sw	t3,0(sp)
    1314:	00a00893          	li	a7,10
    1318:	86dff06f          	j	b84 <_vsnprintf+0x398>
_vsnprintf():
d:\PDS\test\Sparrow_RISC-V\MRS\obj/../lib/driver/src/printf.c:750
            const long long value = va_arg(va, long long);
    131c:	007d0d13          	addi	s10,s10,7
    1320:	ff8d7d13          	andi	s10,s10,-8
    1324:	004d2683          	lw	a3,4(s10)
    1328:	000d2583          	lw	a1,0(s10)
    132c:	008d0d13          	addi	s10,s10,8
d:\PDS\test\Sparrow_RISC-V\MRS\obj/../lib/driver/src/printf.c:751
            idx = _ntoa_long_long(out, buffer, idx, maxlen, (unsigned long long)(value > 0 ? value : 0 - value), value < 0, base, precision, width, flags);
    1330:	01f6d813          	srli	a6,a3,0x1f
_ntoa_long_long():
d:\PDS\test\Sparrow_RISC-V\MRS\obj/../lib/driver/src/printf.c:336
  if (!value) {
    1334:	00d5e7b3          	or	a5,a1,a3
    1338:	18078c63          	beqz	a5,14d0 <_vsnprintf+0xce4>
_vsnprintf():
d:\PDS\test\Sparrow_RISC-V\MRS\obj/../lib/driver/src/printf.c:751
            idx = _ntoa_long_long(out, buffer, idx, maxlen, (unsigned long long)(value > 0 ? value : 0 - value), value < 0, base, precision, width, flags);
    133c:	41f6d793          	srai	a5,a3,0x1f
    1340:	00b7c5b3          	xor	a1,a5,a1
    1344:	40f58733          	sub	a4,a1,a5
    1348:	00d7c6b3          	xor	a3,a5,a3
    134c:	00e5b633          	sltu	a2,a1,a4
    1350:	40f687b3          	sub	a5,a3,a5
    1354:	00070593          	mv	a1,a4
    1358:	40c786b3          	sub	a3,a5,a2
_ntoa_long_long():
d:\PDS\test\Sparrow_RISC-V\MRS\obj/../lib/driver/src/printf.c:343
      const char digit = /*(char)*/(value % base);
    135c:	ccccdf37          	lui	t5,0xccccd
    1360:	ccdf0513          	addi	a0,t5,-819 # cccccccd <_sp+0xacc8cccd>
d:\PDS\test\Sparrow_RISC-V\MRS\obj/../lib/driver/src/printf.c:341
  if (!(flags & FLAGS_PRECISION) || value) {
    1364:	00000793          	li	a5,0
    1368:	04010713          	addi	a4,sp,64
d:\PDS\test\Sparrow_RISC-V\MRS\obj/../lib/driver/src/printf.c:343
      const char digit = /*(char)*/(value % base);
    136c:	00500f93          	li	t6,5
    1370:	cccf0f13          	addi	t5,t5,-820
d:\PDS\test\Sparrow_RISC-V\MRS\obj/../lib/driver/src/printf.c:346
    } while (value && (len < PRINTF_NTOA_BUFFER_SIZE));
    1374:	02000393          	li	t2,32
    1378:	00068d93          	mv	s11,a3
d:\PDS\test\Sparrow_RISC-V\MRS\obj/../lib/driver/src/printf.c:343
      const char digit = /*(char)*/(value % base);
    137c:	01b586b3          	add	a3,a1,s11
    1380:	00b6b633          	sltu	a2,a3,a1
    1384:	00c68633          	add	a2,a3,a2
    1388:	03f67633          	remu	a2,a2,t6
    138c:	000d8893          	mv	a7,s11
d:\PDS\test\Sparrow_RISC-V\MRS\obj/../lib/driver/src/printf.c:344
      buf[len++] = digit < 10 ? '0' + digit : (flags & FLAGS_UPPERCASE ? 'A' : 'a') + digit - 10;
    1390:	00178793          	addi	a5,a5,1
    1394:	00f702b3          	add	t0,a4,a5
    1398:	00058c93          	mv	s9,a1
d:\PDS\test\Sparrow_RISC-V\MRS\obj/../lib/driver/src/printf.c:343
      const char digit = /*(char)*/(value % base);
    139c:	40c58633          	sub	a2,a1,a2
    13a0:	00c5b6b3          	sltu	a3,a1,a2
    13a4:	40dd86b3          	sub	a3,s11,a3
    13a8:	03e600b3          	mul	ra,a2,t5
    13ac:	02a686b3          	mul	a3,a3,a0
    13b0:	02a63db3          	mulhu	s11,a2,a0
    13b4:	001686b3          	add	a3,a3,ra
    13b8:	02a60633          	mul	a2,a2,a0
    13bc:	01b686b3          	add	a3,a3,s11
    13c0:	01f69093          	slli	ra,a3,0x1f
d:\PDS\test\Sparrow_RISC-V\MRS\obj/../lib/driver/src/printf.c:345
      value /= base;
    13c4:	0016dd93          	srli	s11,a3,0x1
d:\PDS\test\Sparrow_RISC-V\MRS\obj/../lib/driver/src/printf.c:343
      const char digit = /*(char)*/(value % base);
    13c8:	00165613          	srli	a2,a2,0x1
    13cc:	00c0e633          	or	a2,ra,a2
    13d0:	00261693          	slli	a3,a2,0x2
    13d4:	00c686b3          	add	a3,a3,a2
    13d8:	00169693          	slli	a3,a3,0x1
    13dc:	40d586b3          	sub	a3,a1,a3
d:\PDS\test\Sparrow_RISC-V\MRS\obj/../lib/driver/src/printf.c:344
      buf[len++] = digit < 10 ? '0' + digit : (flags & FLAGS_UPPERCASE ? 'A' : 'a') + digit - 10;
    13e0:	03068693          	addi	a3,a3,48
    13e4:	fed28fa3          	sb	a3,-1(t0)
d:\PDS\test\Sparrow_RISC-V\MRS\obj/../lib/driver/src/printf.c:345
      value /= base;
    13e8:	00060593          	mv	a1,a2
d:\PDS\test\Sparrow_RISC-V\MRS\obj/../lib/driver/src/printf.c:346
    } while (value && (len < PRINTF_NTOA_BUFFER_SIZE));
    13ec:	02088063          	beqz	a7,140c <_vsnprintf+0xc20>
    13f0:	f87796e3          	bne	a5,t2,137c <_vsnprintf+0xb90>
d:\PDS\test\Sparrow_RISC-V\MRS\obj/../lib/driver/src/printf.c:349
  return _ntoa_format(out, buffer, idx, maxlen, buf, len, negative, (unsigned int)base, prec, width, flags);
    13f4:	00030613          	mv	a2,t1
    13f8:	01d12423          	sw	t4,8(sp)
    13fc:	00812223          	sw	s0,4(sp)
    1400:	01c12023          	sw	t3,0(sp)
    1404:	00a00893          	li	a7,10
    1408:	ed4ff06f          	j	adc <_vsnprintf+0x2f0>
d:\PDS\test\Sparrow_RISC-V\MRS\obj/../lib/driver/src/printf.c:346
    } while (value && (len < PRINTF_NTOA_BUFFER_SIZE));
    140c:	00900693          	li	a3,9
    1410:	ff96e0e3          	bltu	a3,s9,13f0 <_vsnprintf+0xc04>
    1414:	fe1ff06f          	j	13f4 <_vsnprintf+0xc08>
_vsnprintf():
d:\PDS\test\Sparrow_RISC-V\MRS\obj/../lib/driver/src/printf.c:741
        if (flags & FLAGS_PRECISION) {
    1418:	4006f513          	andi	a0,a3,1024
    141c:	0e050263          	beqz	a0,1500 <_vsnprintf+0xd14>
    1420:	00800893          	li	a7,8
    1424:	00800f13          	li	t5,8
    1428:	00000613          	li	a2,0
d:\PDS\test\Sparrow_RISC-V\MRS\obj/../lib/driver/src/printf.c:742
          flags &= ~FLAGS_ZEROPAD;
    142c:	ff26f693          	andi	a3,a3,-14
d:\PDS\test\Sparrow_RISC-V\MRS\obj/../lib/driver/src/printf.c:746
        if ((*format == 'i') || (*format == 'd')) {
    1430:	f0cff06f          	j	b3c <_vsnprintf+0x350>
d:\PDS\test\Sparrow_RISC-V\MRS\obj/../lib/driver/src/printf.c:759 (discriminator 2)
            const int value = (flags & FLAGS_CHAR) ? (char)va_arg(va, int) : (flags & FLAGS_SHORT) ? (short int)va_arg(va, int) : va_arg(va, int);
    1434:	080ef713          	andi	a4,t4,128
    1438:	0a070463          	beqz	a4,14e0 <_vsnprintf+0xcf4>
d:\PDS\test\Sparrow_RISC-V\MRS\obj/../lib/driver/src/printf.c:759
    143c:	000d1703          	lh	a4,0(s10)
d:\PDS\test\Sparrow_RISC-V\MRS\obj/../lib/driver/src/printf.c:760
            idx = _ntoa_long(out, buffer, idx, maxlen, (unsigned int)(value > 0 ? value : 0 - value), value < 0, base, precision, width, flags);
    1440:	40f75593          	srai	a1,a4,0xf
    1444:	00b746b3          	xor	a3,a4,a1
    1448:	40b686b3          	sub	a3,a3,a1
    144c:	01069693          	slli	a3,a3,0x10
    1450:	0106d693          	srli	a3,a3,0x10
    1454:	e6dff06f          	j	12c0 <_vsnprintf+0xad4>
d:\PDS\test\Sparrow_RISC-V\MRS\obj/../lib/driver/src/printf.c:755
            const long value = va_arg(va, long);
    1458:	000d2783          	lw	a5,0(s10)
d:\PDS\test\Sparrow_RISC-V\MRS\obj/../lib/driver/src/printf.c:756
            idx = _ntoa_long(out, buffer, idx, maxlen, (unsigned long)(value > 0 ? value : 0 - value), value < 0, base, precision, width, flags);
    145c:	01f7d813          	srli	a6,a5,0x1f
_ntoa_long():
d:\PDS\test\Sparrow_RISC-V\MRS\obj/../lib/driver/src/printf.c:311
  if (!value) {
    1460:	08078a63          	beqz	a5,14f4 <_vsnprintf+0xd08>
_vsnprintf():
d:\PDS\test\Sparrow_RISC-V\MRS\obj/../lib/driver/src/printf.c:756
            idx = _ntoa_long(out, buffer, idx, maxlen, (unsigned long)(value > 0 ? value : 0 - value), value < 0, base, precision, width, flags);
    1464:	41f7d713          	srai	a4,a5,0x1f
    1468:	00f74633          	xor	a2,a4,a5
    146c:	40e60633          	sub	a2,a2,a4
    1470:	04010713          	addi	a4,sp,64
_ntoa_long():
d:\PDS\test\Sparrow_RISC-V\MRS\obj/../lib/driver/src/printf.c:318
      const char digit = (char)(value % base);
    1474:	00a00593          	li	a1,10
d:\PDS\test\Sparrow_RISC-V\MRS\obj/../lib/driver/src/printf.c:321
    } while (value && (len < PRINTF_NTOA_BUFFER_SIZE));
    1478:	00900f13          	li	t5,9
    147c:	02000f93          	li	t6,32
    1480:	0080006f          	j	1488 <_vsnprintf+0xc9c>
    1484:	03f68263          	beq	a3,t6,14a8 <_vsnprintf+0xcbc>
d:\PDS\test\Sparrow_RISC-V\MRS\obj/../lib/driver/src/printf.c:318
      const char digit = (char)(value % base);
    1488:	02b677b3          	remu	a5,a2,a1
d:\PDS\test\Sparrow_RISC-V\MRS\obj/../lib/driver/src/printf.c:319
      buf[len++] = digit < 10 ? '0' + digit : (flags & FLAGS_UPPERCASE ? 'A' : 'a') + digit - 10;
    148c:	00168693          	addi	a3,a3,1
    1490:	00d708b3          	add	a7,a4,a3
    1494:	00060513          	mv	a0,a2
    1498:	03078793          	addi	a5,a5,48
    149c:	fef88fa3          	sb	a5,-1(a7)
d:\PDS\test\Sparrow_RISC-V\MRS\obj/../lib/driver/src/printf.c:320
      value /= base;
    14a0:	02b65633          	divu	a2,a2,a1
d:\PDS\test\Sparrow_RISC-V\MRS\obj/../lib/driver/src/printf.c:321
    } while (value && (len < PRINTF_NTOA_BUFFER_SIZE));
    14a4:	feaf60e3          	bltu	t5,a0,1484 <_vsnprintf+0xc98>
d:\PDS\test\Sparrow_RISC-V\MRS\obj/../lib/driver/src/printf.c:324
  return _ntoa_format(out, buffer, idx, maxlen, buf, len, negative, (unsigned int)base, prec, width, flags);
    14a8:	00030613          	mv	a2,t1
    14ac:	01d12423          	sw	t4,8(sp)
    14b0:	00812223          	sw	s0,4(sp)
    14b4:	01c12023          	sw	t3,0(sp)
    14b8:	00a00893          	li	a7,10
    14bc:	00068793          	mv	a5,a3
    14c0:	ec4ff06f          	j	b84 <_vsnprintf+0x398>
d:\PDS\test\Sparrow_RISC-V\MRS\obj/../lib/driver/src/printf.c:316
  if (!(flags & FLAGS_PRECISION) || value) {
    14c4:	04010713          	addi	a4,sp,64
    14c8:	e2061ee3          	bnez	a2,1304 <_vsnprintf+0xb18>
    14cc:	e01ff06f          	j	12cc <_vsnprintf+0xae0>
_ntoa_long_long():
d:\PDS\test\Sparrow_RISC-V\MRS\obj/../lib/driver/src/printf.c:341
  if (!(flags & FLAGS_PRECISION) || value) {
    14d0:	04061263          	bnez	a2,1514 <_vsnprintf+0xd28>
    14d4:	00000593          	li	a1,0
    14d8:	00000693          	li	a3,0
    14dc:	e81ff06f          	j	135c <_vsnprintf+0xb70>
_vsnprintf():
d:\PDS\test\Sparrow_RISC-V\MRS\obj/../lib/driver/src/printf.c:759
            const int value = (flags & FLAGS_CHAR) ? (char)va_arg(va, int) : (flags & FLAGS_SHORT) ? (short int)va_arg(va, int) : va_arg(va, int);
    14e0:	000d2703          	lw	a4,0(s10)
d:\PDS\test\Sparrow_RISC-V\MRS\obj/../lib/driver/src/printf.c:760
            idx = _ntoa_long(out, buffer, idx, maxlen, (unsigned int)(value > 0 ? value : 0 - value), value < 0, base, precision, width, flags);
    14e4:	41f75593          	srai	a1,a4,0x1f
    14e8:	00e5c6b3          	xor	a3,a1,a4
    14ec:	40b686b3          	sub	a3,a3,a1
    14f0:	dd1ff06f          	j	12c0 <_vsnprintf+0xad4>
_ntoa_long():
d:\PDS\test\Sparrow_RISC-V\MRS\obj/../lib/driver/src/printf.c:316
  if (!(flags & FLAGS_PRECISION) || value) {
    14f4:	04010713          	addi	a4,sp,64
    14f8:	fa0618e3          	bnez	a2,14a8 <_vsnprintf+0xcbc>
    14fc:	f75ff06f          	j	1470 <_vsnprintf+0xc84>
_vsnprintf():
d:\PDS\test\Sparrow_RISC-V\MRS\obj/../lib/driver/src/printf.c:737
          flags &= ~(FLAGS_PLUS | FLAGS_SPACE);
    1500:	ff36f693          	andi	a3,a3,-13
    1504:	00800f13          	li	t5,8
    1508:	00000613          	li	a2,0
    150c:	00800893          	li	a7,8
    1510:	e2cff06f          	j	b3c <_vsnprintf+0x350>
_ntoa_long_long():
d:\PDS\test\Sparrow_RISC-V\MRS\obj/../lib/driver/src/printf.c:333
  size_t len = 0U;
    1514:	00000793          	li	a5,0
    1518:	04010713          	addi	a4,sp,64
    151c:	ed9ff06f          	j	13f4 <_vsnprintf+0xc08>
_vsnprintf():
d:\PDS\test\Sparrow_RISC-V\MRS\obj/../lib/driver/src/printf.c:741
        if (flags & FLAGS_PRECISION) {
    1520:	4006f513          	andi	a0,a3,1024
    1524:	aa0506e3          	beqz	a0,fd0 <_vsnprintf+0x7e4>
d:\PDS\test\Sparrow_RISC-V\MRS\obj/../lib/driver/src/printf.c:742
          flags &= ~FLAGS_ZEROPAD;
    1528:	ff26f693          	andi	a3,a3,-14
    152c:	01000f13          	li	t5,16
    1530:	00000613          	li	a2,0
    1534:	01000893          	li	a7,16
    1538:	e04ff06f          	j	b3c <_vsnprintf+0x350>
d:\PDS\test\Sparrow_RISC-V\MRS\obj/../lib/driver/src/printf.c:736 (discriminator 1)
        if ((*format != 'i') && (*format != 'd')) {
    153c:	06400793          	li	a5,100
    1540:	d4f508e3          	beq	a0,a5,1290 <_vsnprintf+0xaa4>
d:\PDS\test\Sparrow_RISC-V\MRS\obj/../lib/driver/src/printf.c:741
        if (flags & FLAGS_PRECISION) {
    1544:	4006f513          	andi	a0,a3,1024
    1548:	00050e63          	beqz	a0,1564 <_vsnprintf+0xd78>
d:\PDS\test\Sparrow_RISC-V\MRS\obj/../lib/driver/src/printf.c:728
          flags &= ~FLAGS_HASH;   // no hash for dec format
    154c:	000e8693          	mv	a3,t4
d:\PDS\test\Sparrow_RISC-V\MRS\obj/../lib/driver/src/printf.c:727
          base = 10U;
    1550:	00a00893          	li	a7,10
d:\PDS\test\Sparrow_RISC-V\MRS\obj/../lib/driver/src/printf.c:741
        if (flags & FLAGS_PRECISION) {
    1554:	00a00f13          	li	t5,10
    1558:	00000613          	li	a2,0
d:\PDS\test\Sparrow_RISC-V\MRS\obj/../lib/driver/src/printf.c:742
          flags &= ~FLAGS_ZEROPAD;
    155c:	ff26f693          	andi	a3,a3,-14
d:\PDS\test\Sparrow_RISC-V\MRS\obj/../lib/driver/src/printf.c:746
        if ((*format == 'i') || (*format == 'd')) {
    1560:	ddcff06f          	j	b3c <_vsnprintf+0x350>
d:\PDS\test\Sparrow_RISC-V\MRS\obj/../lib/driver/src/printf.c:737
          flags &= ~(FLAGS_PLUS | FLAGS_SPACE);
    1564:	fe36f693          	andi	a3,a3,-29
    1568:	00a00f13          	li	t5,10
    156c:	00000613          	li	a2,0
d:\PDS\test\Sparrow_RISC-V\MRS\obj/../lib/driver/src/printf.c:727
          base = 10U;
    1570:	00a00893          	li	a7,10
    1574:	dc8ff06f          	j	b3c <_vsnprintf+0x350>

00001578 <init_uart0_printf>:
init_uart0_printf():
d:\PDS\test\Sparrow_RISC-V\MRS\obj/../lib/driver/src/printf.c:43
{
    1578:	ff010113          	addi	sp,sp,-16
    157c:	00812423          	sw	s0,8(sp)
    1580:	00050413          	mv	s0,a0
d:\PDS\test\Sparrow_RISC-V\MRS\obj/../lib/driver/src/printf.c:45
  fpioa_perips_out_set(UART0_TX, uart_tx_fpioa_port);//也可以自定义
    1584:	00700513          	li	a0,7
d:\PDS\test\Sparrow_RISC-V\MRS\obj/../lib/driver/src/printf.c:43
{
    1588:	00112623          	sw	ra,12(sp)
d:\PDS\test\Sparrow_RISC-V\MRS\obj/../lib/driver/src/printf.c:45
  fpioa_perips_out_set(UART0_TX, uart_tx_fpioa_port);//也可以自定义
    158c:	d1dfe0ef          	jal	ra,2a8 <fpioa_perips_out_set>
d:\PDS\test\Sparrow_RISC-V\MRS\obj/../lib/driver/src/printf.c:47
  uart_band_ctrl(UART0,band);
    1590:	00040593          	mv	a1,s0
    1594:	40000537          	lui	a0,0x40000
    1598:	d49fe0ef          	jal	ra,2e0 <uart_band_ctrl>
d:\PDS\test\Sparrow_RISC-V\MRS\obj/../lib/driver/src/printf.c:51
}
    159c:	00812403          	lw	s0,8(sp)
    15a0:	00c12083          	lw	ra,12(sp)
d:\PDS\test\Sparrow_RISC-V\MRS\obj/../lib/driver/src/printf.c:49
  uart_enable_ctrl(UART0, ENABLE);
    15a4:	00100593          	li	a1,1
    15a8:	40000537          	lui	a0,0x40000
d:\PDS\test\Sparrow_RISC-V\MRS\obj/../lib/driver/src/printf.c:51
}
    15ac:	01010113          	addi	sp,sp,16
d:\PDS\test\Sparrow_RISC-V\MRS\obj/../lib/driver/src/printf.c:49
  uart_enable_ctrl(UART0, ENABLE);
    15b0:	d0dfe06f          	j	2bc <uart_enable_ctrl>

000015b4 <printf_>:
printf_():
d:\PDS\test\Sparrow_RISC-V\MRS\obj/../lib/driver/src/printf.c:887


///////////////////////////////////////////////////////////////////////////////

int printf_(const char* format, ...)
{
    15b4:	fc010113          	addi	sp,sp,-64
d:\PDS\test\Sparrow_RISC-V\MRS\obj/../lib/driver/src/printf.c:889
  va_list va;
  va_start(va, format);
    15b8:	02410313          	addi	t1,sp,36
d:\PDS\test\Sparrow_RISC-V\MRS\obj/../lib/driver/src/printf.c:887
{
    15bc:	02d12623          	sw	a3,44(sp)
d:\PDS\test\Sparrow_RISC-V\MRS\obj/../lib/driver/src/printf.c:891
  char buffer[1];
  const int ret = _vsnprintf(_out_char, buffer, (size_t)-1, format, va);
    15c0:	00050693          	mv	a3,a0
d:\PDS\test\Sparrow_RISC-V\MRS\obj/../lib/driver/src/printf.c:887
{
    15c4:	02b12223          	sw	a1,36(sp)
    15c8:	02c12423          	sw	a2,40(sp)
    15cc:	02e12823          	sw	a4,48(sp)
d:\PDS\test\Sparrow_RISC-V\MRS\obj/../lib/driver/src/printf.c:891
  const int ret = _vsnprintf(_out_char, buffer, (size_t)-1, format, va);
    15d0:	00810593          	addi	a1,sp,8
    15d4:	00030713          	mv	a4,t1
    15d8:	fff00613          	li	a2,-1
    15dc:	7cc00513          	li	a0,1996
d:\PDS\test\Sparrow_RISC-V\MRS\obj/../lib/driver/src/printf.c:887
{
    15e0:	00112e23          	sw	ra,28(sp)
    15e4:	02f12a23          	sw	a5,52(sp)
    15e8:	03012c23          	sw	a6,56(sp)
    15ec:	03112e23          	sw	a7,60(sp)
d:\PDS\test\Sparrow_RISC-V\MRS\obj/../lib/driver/src/printf.c:889
  va_start(va, format);
    15f0:	00612623          	sw	t1,12(sp)
d:\PDS\test\Sparrow_RISC-V\MRS\obj/../lib/driver/src/printf.c:891
  const int ret = _vsnprintf(_out_char, buffer, (size_t)-1, format, va);
    15f4:	9f8ff0ef          	jal	ra,7ec <_vsnprintf>
d:\PDS\test\Sparrow_RISC-V\MRS\obj/../lib/driver/src/printf.c:894
  va_end(va);
  return ret;
}
    15f8:	01c12083          	lw	ra,28(sp)
    15fc:	04010113          	addi	sp,sp,64
    1600:	00008067          	ret

00001604 <find_plate>:
find_plate():
d:\PDS\test\Sparrow_RISC-V\MRS\obj/../app/main.c:45
    printf("[1]scan\r\n");
    1604:	20000537          	lui	a0,0x20000
d:\PDS\test\Sparrow_RISC-V\MRS\obj/../app/main.c:44
void find_plate(void){
    1608:	fa010113          	addi	sp,sp,-96
d:\PDS\test\Sparrow_RISC-V\MRS\obj/../app/main.c:45
    printf("[1]scan\r\n");
    160c:	04450513          	addi	a0,a0,68 # 20000044 <_data+0x44>
d:\PDS\test\Sparrow_RISC-V\MRS\obj/../app/main.c:44
void find_plate(void){
    1610:	04112e23          	sw	ra,92(sp)
    1614:	04812c23          	sw	s0,88(sp)
    1618:	04912a23          	sw	s1,84(sp)
    161c:	05212823          	sw	s2,80(sp)
    1620:	05312623          	sw	s3,76(sp)
    1624:	05412423          	sw	s4,72(sp)
    1628:	05512223          	sw	s5,68(sp)
    162c:	05612023          	sw	s6,64(sp)
    1630:	03712e23          	sw	s7,60(sp)
    1634:	03812c23          	sw	s8,56(sp)
    1638:	03912a23          	sw	s9,52(sp)
    163c:	03a12823          	sw	s10,48(sp)
    1640:	03b12623          	sw	s11,44(sp)
d:\PDS\test\Sparrow_RISC-V\MRS\obj/../app/main.c:45
    printf("[1]scan\r\n");
    1644:	f71ff0ef          	jal	ra,15b4 <printf_>
    1648:	a08007b7          	lui	a5,0xa0800
d:\PDS\test\Sparrow_RISC-V\MRS\obj/../app/main.c:49
    for(int i=SCAN_Y0;i<=SCAN_Y1;i++)rsum[i]=0;
    164c:	a0801737          	lui	a4,0xa0801
d:\PDS\test\Sparrow_RISC-V\MRS\obj/../app/main.c:45
    printf("[1]scan\r\n");
    1650:	19078793          	addi	a5,a5,400 # a0800190 <_sp+0x807c0190>
d:\PDS\test\Sparrow_RISC-V\MRS\obj/../app/main.c:49
    for(int i=SCAN_Y0;i<=SCAN_Y1;i++)rsum[i]=0;
    1654:	06870713          	addi	a4,a4,104 # a0801068 <_sp+0x807c1068>
d:\PDS\test\Sparrow_RISC-V\MRS\obj/../app/main.c:49 (discriminator 3)
    1658:	0007a023          	sw	zero,0(a5)
    165c:	00478793          	addi	a5,a5,4
    1660:	fee79ce3          	bne	a5,a4,1658 <find_plate+0x54>
d:\PDS\test\Sparrow_RISC-V\MRS\obj/../app/main.c:50
    for(int i=0;i<IMG_W;i++)csum[i]=0;
    1664:	a0882737          	lui	a4,0xa0882
    1668:	a08807b7          	lui	a5,0xa0880
    166c:	e0070713          	addi	a4,a4,-512 # a0881e00 <_sp+0x80841e00>
d:\PDS\test\Sparrow_RISC-V\MRS\obj/../app/main.c:50 (discriminator 3)
    1670:	0007a023          	sw	zero,0(a5) # a0880000 <_sp+0x80840000>
    1674:	00478793          	addi	a5,a5,4
    1678:	fee79ce3          	bne	a5,a4,1670 <find_plate+0x6c>
    167c:	00017337          	lui	t1,0x17
    1680:	a08008b7          	lui	a7,0xa0800
    1684:	70030313          	addi	t1,t1,1792 # 17700 <__stack_size+0x13700>
    1688:	19088893          	addi	a7,a7,400 # a0800190 <_sp+0x807c0190>
    168c:	8e400e93          	li	t4,-1820
d:\PDS\test\Sparrow_RISC-V\MRS\obj/../app/main.c:55
    for(int y=SCAN_Y0;y<=SCAN_Y1;y++){
    1690:	06400513          	li	a0,100
d:\PDS\test\Sparrow_RISC-V\MRS\obj/../app/main.c:53
    int tlx=IMG_W,tly=IMG_H,trx=0,try_=0,blx=IMG_W,bly=0,brx=0,bry=IMG_H;
    1694:	43800493          	li	s1,1080
    1698:	00000413          	li	s0,0
    169c:	00000993          	li	s3,0
    16a0:	78000913          	li	s2,1920
    16a4:	00000a93          	li	s5,0
    16a8:	00000a13          	li	s4,0
    16ac:	43800e13          	li	t3,1080
    16b0:	78000813          	li	a6,1920
is_white():
d:\PDS\test\Sparrow_RISC-V\MRS\obj/../app/main.c:39
    uint32_t wd=base[y*DDR_STRIDE32+(x>>1)];
    16b4:	a0000fb7          	lui	t6,0xa0000
find_plate():
d:\PDS\test\Sparrow_RISC-V\MRS\obj/../app/main.c:57
            if(!is_white(bin,x,y))continue;
    16b8:	00008f37          	lui	t5,0x8
d:\PDS\test\Sparrow_RISC-V\MRS\obj/../app/main.c:55
    for(int y=SCAN_Y0;y<=SCAN_Y1;y++){
    16bc:	41a00293          	li	t0,1050
d:\PDS\test\Sparrow_RISC-V\MRS\obj/../app/main.c:58
            rsum[y]++;csum[x]++;
    16c0:	00050713          	mv	a4,a0
    16c4:	00050593          	mv	a1,a0
    16c8:	a0880637          	lui	a2,0xa0880
    16cc:	40e506b3          	sub	a3,a0,a4
is_white():
d:\PDS\test\Sparrow_RISC-V\MRS\obj/../app/main.c:39
    uint32_t wd=base[y*DDR_STRIDE32+(x>>1)];
    16d0:	4016d793          	srai	a5,a3,0x1
    16d4:	006787b3          	add	a5,a5,t1
    16d8:	00279793          	slli	a5,a5,0x2
    16dc:	00ff87b3          	add	a5,t6,a5
    16e0:	0007a783          	lw	a5,0(a5)
d:\PDS\test\Sparrow_RISC-V\MRS\obj/../app/main.c:40
    uint16_t px=(uint16_t)((x&1)?(wd>>16):(wd&0xFFFF));
    16e4:	0016f393          	andi	t2,a3,1
    16e8:	00039463          	bnez	t2,16f0 <find_plate+0xec>
    16ec:	01079793          	slli	a5,a5,0x10
    16f0:	0107d793          	srli	a5,a5,0x10
find_plate():
d:\PDS\test\Sparrow_RISC-V\MRS\obj/../app/main.c:57
            if(!is_white(bin,x,y))continue;
    16f4:	06ff7063          	bgeu	t5,a5,1754 <find_plate+0x150>
d:\PDS\test\Sparrow_RISC-V\MRS\obj/../app/main.c:58
            rsum[y]++;csum[x]++;
    16f8:	0008a383          	lw	t2,0(a7)
d:\PDS\test\Sparrow_RISC-V\MRS\obj/../app/main.c:59
            if(x+y<tlx+tly){tlx=x;tly=y;}
    16fc:	01c807b3          	add	a5,a6,t3
d:\PDS\test\Sparrow_RISC-V\MRS\obj/../app/main.c:58
            rsum[y]++;csum[x]++;
    1700:	00138393          	addi	t2,t2,1
    1704:	0078a023          	sw	t2,0(a7)
    1708:	00062383          	lw	t2,0(a2) # a0880000 <_sp+0x80840000>
    170c:	00138393          	addi	t2,t2,1
    1710:	00762023          	sw	t2,0(a2)
d:\PDS\test\Sparrow_RISC-V\MRS\obj/../app/main.c:59
            if(x+y<tlx+tly){tlx=x;tly=y;}
    1714:	00f5d663          	bge	a1,a5,1720 <find_plate+0x11c>
    1718:	00050e13          	mv	t3,a0
    171c:	00068813          	mv	a6,a3
d:\PDS\test\Sparrow_RISC-V\MRS\obj/../app/main.c:60
            if(x-y>trx-try_){trx=x;try_=y;}
    1720:	415a07b3          	sub	a5,s4,s5
    1724:	40e003b3          	neg	t2,a4
    1728:	0077d663          	bge	a5,t2,1734 <find_plate+0x130>
    172c:	00050a93          	mv	s5,a0
    1730:	00068a13          	mv	s4,a3
d:\PDS\test\Sparrow_RISC-V\MRS\obj/../app/main.c:61
            if(y-x>bly-blx){blx=x;bly=y;}
    1734:	412987b3          	sub	a5,s3,s2
    1738:	00e7d663          	bge	a5,a4,1744 <find_plate+0x140>
    173c:	00050993          	mv	s3,a0
    1740:	00068913          	mv	s2,a3
d:\PDS\test\Sparrow_RISC-V\MRS\obj/../app/main.c:62
            if(x+y>brx+bry){brx=x;bry=y;}
    1744:	009407b3          	add	a5,s0,s1
    1748:	00b7d663          	bge	a5,a1,1754 <find_plate+0x150>
    174c:	00050493          	mv	s1,a0
    1750:	00068413          	mv	s0,a3
d:\PDS\test\Sparrow_RISC-V\MRS\obj/../app/main.c:56 (discriminator 2)
        for(int x=0;x<IMG_W;x++){
    1754:	fff70713          	addi	a4,a4,-1
    1758:	00158593          	addi	a1,a1,1
    175c:	00460613          	addi	a2,a2,4
    1760:	f7d716e3          	bne	a4,t4,16cc <find_plate+0xc8>
d:\PDS\test\Sparrow_RISC-V\MRS\obj/../app/main.c:55 (discriminator 2)
    for(int y=SCAN_Y0;y<=SCAN_Y1;y++){
    1764:	00150513          	addi	a0,a0,1
    1768:	00170e93          	addi	t4,a4,1
    176c:	00488893          	addi	a7,a7,4
    1770:	3c030313          	addi	t1,t1,960
    1774:	f45516e3          	bne	a0,t0,16c0 <find_plate+0xbc>
d:\PDS\test\Sparrow_RISC-V\MRS\obj/../app/main.c:66
    printf("[2]proj\r\n");
    1778:	20000537          	lui	a0,0x20000
    177c:	05050513          	addi	a0,a0,80 # 20000050 <_data+0x50>
    1780:	01012423          	sw	a6,8(sp)
    1784:	01c12223          	sw	t3,4(sp)
    1788:	e2dff0ef          	jal	ra,15b4 <printf_>
d:\PDS\test\Sparrow_RISC-V\MRS\obj/../app/main.c:69
    for(int ry=SCAN_Y0;ry<=SCAN_Y1;ry++){if(rsum[ry]>row_max)row_max=rsum[ry];}
    178c:	00812803          	lw	a6,8(sp)
    1790:	00412e03          	lw	t3,4(sp)
d:\PDS\test\Sparrow_RISC-V\MRS\obj/../app/main.c:66
    printf("[2]proj\r\n");
    1794:	a08007b7          	lui	a5,0xa0800
d:\PDS\test\Sparrow_RISC-V\MRS\obj/../app/main.c:69
    for(int ry=SCAN_Y0;ry<=SCAN_Y1;ry++){if(rsum[ry]>row_max)row_max=rsum[ry];}
    1798:	a08016b7          	lui	a3,0xa0801
d:\PDS\test\Sparrow_RISC-V\MRS\obj/../app/main.c:66
    printf("[2]proj\r\n");
    179c:	19078793          	addi	a5,a5,400 # a0800190 <_sp+0x807c0190>
d:\PDS\test\Sparrow_RISC-V\MRS\obj/../app/main.c:68
    int row_max=0;
    17a0:	00000b13          	li	s6,0
d:\PDS\test\Sparrow_RISC-V\MRS\obj/../app/main.c:69
    for(int ry=SCAN_Y0;ry<=SCAN_Y1;ry++){if(rsum[ry]>row_max)row_max=rsum[ry];}
    17a4:	06868693          	addi	a3,a3,104 # a0801068 <_sp+0x807c1068>
d:\PDS\test\Sparrow_RISC-V\MRS\obj/../app/main.c:69 (discriminator 6)
    17a8:	0007a703          	lw	a4,0(a5)
    17ac:	00eb5463          	bge	s6,a4,17b4 <find_plate+0x1b0>
d:\PDS\test\Sparrow_RISC-V\MRS\obj/../app/main.c:69 (discriminator 2)
    17b0:	0007ab03          	lw	s6,0(a5)
d:\PDS\test\Sparrow_RISC-V\MRS\obj/../app/main.c:69 (discriminator 4)
    17b4:	00478793          	addi	a5,a5,4
    17b8:	fed798e3          	bne	a5,a3,17a8 <find_plate+0x1a4>
d:\PDS\test\Sparrow_RISC-V\MRS\obj/../app/main.c:70
    if(row_max<10){printf("无有效白像素\r\n");return;}
    17bc:	00900793          	li	a5,9
    17c0:	3d67d063          	bge	a5,s6,1b80 <find_plate+0x57c>
d:\PDS\test\Sparrow_RISC-V\MRS\obj/../app/main.c:71
    int thr=row_max/3;
    17c4:	00300713          	li	a4,3
    17c8:	a08007b7          	lui	a5,0xa0800
    17cc:	02eb4733          	div	a4,s6,a4
    17d0:	19078793          	addi	a5,a5,400 # a0800190 <_sp+0x807c0190>
d:\PDS\test\Sparrow_RISC-V\MRS\obj/../app/main.c:73
    for(int ry=SCAN_Y0;ry<=SCAN_Y1;ry++){if(rsum[ry]>thr){row_top=ry;break;}}
    17d4:	06400c13          	li	s8,100
    17d8:	41a00693          	li	a3,1050
    17dc:	00c0006f          	j	17e8 <find_plate+0x1e4>
d:\PDS\test\Sparrow_RISC-V\MRS\obj/../app/main.c:73 (discriminator 3)
    17e0:	001c0c13          	addi	s8,s8,1
    17e4:	4adc0063          	beq	s8,a3,1c84 <find_plate+0x680>
d:\PDS\test\Sparrow_RISC-V\MRS\obj/../app/main.c:73 (discriminator 5)
    17e8:	0007a603          	lw	a2,0(a5)
    17ec:	00478793          	addi	a5,a5,4
    17f0:	fec758e3          	bge	a4,a2,17e0 <find_plate+0x1dc>
d:\PDS\test\Sparrow_RISC-V\MRS\obj/../app/main.c:72
    int row_top=SCAN_Y0,row_bot=SCAN_Y1;
    17f4:	a08017b7          	lui	a5,0xa0801
    17f8:	06478793          	addi	a5,a5,100 # a0801064 <_sp+0x807c1064>
d:\PDS\test\Sparrow_RISC-V\MRS\obj/../app/main.c:74
    for(int ry=SCAN_Y1;ry>=SCAN_Y0;ry--){if(rsum[ry]>thr){row_bot=ry;break;}}
    17fc:	41900b93          	li	s7,1049
    1800:	06300693          	li	a3,99
    1804:	00c0006f          	j	1810 <find_plate+0x20c>
d:\PDS\test\Sparrow_RISC-V\MRS\obj/../app/main.c:74 (discriminator 3)
    1808:	fffb8b93          	addi	s7,s7,-1
    180c:	48db8063          	beq	s7,a3,1c8c <find_plate+0x688>
d:\PDS\test\Sparrow_RISC-V\MRS\obj/../app/main.c:74 (discriminator 5)
    1810:	0007a603          	lw	a2,0(a5)
    1814:	ffc78793          	addi	a5,a5,-4
    1818:	fec758e3          	bge	a4,a2,1808 <find_plate+0x204>
d:\PDS\test\Sparrow_RISC-V\MRS\obj/../app/main.c:77
    for(int cx=0;cx<IMG_W;cx++){if(csum[cx]>col_max)col_max=csum[cx];}
    181c:	a0882637          	lui	a2,0xa0882
d:\PDS\test\Sparrow_RISC-V\MRS\obj/../app/main.c:72
    int row_top=SCAN_Y0,row_bot=SCAN_Y1;
    1820:	a08807b7          	lui	a5,0xa0880
d:\PDS\test\Sparrow_RISC-V\MRS\obj/../app/main.c:76
    int col_max=0;
    1824:	00000713          	li	a4,0
d:\PDS\test\Sparrow_RISC-V\MRS\obj/../app/main.c:77
    for(int cx=0;cx<IMG_W;cx++){if(csum[cx]>col_max)col_max=csum[cx];}
    1828:	e0060613          	addi	a2,a2,-512 # a0881e00 <_sp+0x80841e00>
d:\PDS\test\Sparrow_RISC-V\MRS\obj/../app/main.c:77 (discriminator 6)
    182c:	0007a683          	lw	a3,0(a5) # a0880000 <_sp+0x80840000>
    1830:	00d75463          	bge	a4,a3,1838 <find_plate+0x234>
d:\PDS\test\Sparrow_RISC-V\MRS\obj/../app/main.c:77 (discriminator 2)
    1834:	0007a703          	lw	a4,0(a5)
d:\PDS\test\Sparrow_RISC-V\MRS\obj/../app/main.c:77 (discriminator 4)
    1838:	00478793          	addi	a5,a5,4
    183c:	fec798e3          	bne	a5,a2,182c <find_plate+0x228>
d:\PDS\test\Sparrow_RISC-V\MRS\obj/../app/main.c:78
    thr=col_max/3;
    1840:	00300693          	li	a3,3
    1844:	02d746b3          	div	a3,a4,a3
    1848:	a08807b7          	lui	a5,0xa0880
d:\PDS\test\Sparrow_RISC-V\MRS\obj/../app/main.c:80
    for(int cx=0;cx<IMG_W;cx++){if(csum[cx]>thr){col_left=cx;break;}}
    184c:	00000c93          	li	s9,0
    1850:	78000613          	li	a2,1920
    1854:	00c0006f          	j	1860 <find_plate+0x25c>
d:\PDS\test\Sparrow_RISC-V\MRS\obj/../app/main.c:80 (discriminator 3)
    1858:	001c8c93          	addi	s9,s9,1
    185c:	42cc8c63          	beq	s9,a2,1c94 <find_plate+0x690>
d:\PDS\test\Sparrow_RISC-V\MRS\obj/../app/main.c:80 (discriminator 5)
    1860:	0007a583          	lw	a1,0(a5) # a0880000 <_sp+0x80840000>
    1864:	00478793          	addi	a5,a5,4
    1868:	feb6d8e3          	bge	a3,a1,1858 <find_plate+0x254>
d:\PDS\test\Sparrow_RISC-V\MRS\obj/../app/main.c:79
    int col_left=0,col_right=IMG_W-1;
    186c:	a08827b7          	lui	a5,0xa0882
    1870:	dfc78793          	addi	a5,a5,-516 # a0881dfc <_sp+0x80841dfc>
d:\PDS\test\Sparrow_RISC-V\MRS\obj/../app/main.c:81
    for(int cx=IMG_W-1;cx>=0;cx--){if(csum[cx]>thr){col_right=cx;break;}}
    1874:	77f00d13          	li	s10,1919
    1878:	fff00613          	li	a2,-1
    187c:	00c0006f          	j	1888 <find_plate+0x284>
d:\PDS\test\Sparrow_RISC-V\MRS\obj/../app/main.c:81 (discriminator 3)
    1880:	fffd0d13          	addi	s10,s10,-1
    1884:	40cd0c63          	beq	s10,a2,1c9c <find_plate+0x698>
d:\PDS\test\Sparrow_RISC-V\MRS\obj/../app/main.c:81 (discriminator 5)
    1888:	0007a583          	lw	a1,0(a5)
    188c:	ffc78793          	addi	a5,a5,-4
    1890:	feb6d8e3          	bge	a3,a1,1880 <find_plate+0x27c>
d:\PDS\test\Sparrow_RISC-V\MRS\obj/../app/main.c:83
    int bw=col_right-col_left+1,bh=row_bot-row_top+1;
    1894:	419d05b3          	sub	a1,s10,s9
    1898:	418b8633          	sub	a2,s7,s8
    189c:	00158593          	addi	a1,a1,1
    18a0:	00160613          	addi	a2,a2,1
d:\PDS\test\Sparrow_RISC-V\MRS\obj/../app/main.c:84
    int area_est=bw*bh;
    18a4:	02c586b3          	mul	a3,a1,a2
d:\PDS\test\Sparrow_RISC-V\MRS\obj/../app/main.c:86
    if(area_est<MIN_AREA||bw<MIN_W||bh<MIN_H||w2<h2*4||w2>h2*36){
    18a8:	1f300793          	li	a5,499
    18ac:	28d7d863          	bge	a5,a3,1b3c <find_plate+0x538>
d:\PDS\test\Sparrow_RISC-V\MRS\obj/../app/main.c:86 (discriminator 1)
    18b0:	03b00793          	li	a5,59
    18b4:	28b7d463          	bge	a5,a1,1b3c <find_plate+0x538>
d:\PDS\test\Sparrow_RISC-V\MRS\obj/../app/main.c:86 (discriminator 2)
    18b8:	00900793          	li	a5,9
    18bc:	28c7d063          	bge	a5,a2,1b3c <find_plate+0x538>
d:\PDS\test\Sparrow_RISC-V\MRS\obj/../app/main.c:85 (discriminator 3)
    int w2=bw*bw,h2=bh*bh;
    18c0:	02c60533          	mul	a0,a2,a2
    18c4:	02b588b3          	mul	a7,a1,a1
d:\PDS\test\Sparrow_RISC-V\MRS\obj/../app/main.c:86 (discriminator 3)
    if(area_est<MIN_AREA||bw<MIN_W||bh<MIN_H||w2<h2*4||w2>h2*36){
    18c8:	00251793          	slli	a5,a0,0x2
    18cc:	26f8c863          	blt	a7,a5,1b3c <find_plate+0x538>
d:\PDS\test\Sparrow_RISC-V\MRS\obj/../app/main.c:86 (discriminator 4)
    18d0:	00351793          	slli	a5,a0,0x3
    18d4:	00a787b3          	add	a5,a5,a0
    18d8:	00279793          	slli	a5,a5,0x2
    18dc:	2717c063          	blt	a5,a7,1b3c <find_plate+0x538>
d:\PDS\test\Sparrow_RISC-V\MRS\obj/../app/main.c:93
    for(int d=0;d<bw+bh;d++){
    18e0:	004c1793          	slli	a5,s8,0x4
    18e4:	418787b3          	sub	a5,a5,s8
    18e8:	00679793          	slli	a5,a5,0x6
    18ec:	00c58333          	add	t1,a1,a2
    18f0:	00078293          	mv	t0,a5
    18f4:	00000f93          	li	t6,0
d:\PDS\test\Sparrow_RISC-V\MRS\obj/../app/main.c:98
            if(nx<=col_right&&ny<=row_bot&&is_white(bin,nx,ny))
    18f8:	000088b7          	lui	a7,0x8
d:\PDS\test\Sparrow_RISC-V\MRS\obj/../app/main.c:95
        for(int dx=0;dx<=d&&!found;dx++){
    18fc:	018f8f33          	add	t5,t6,s8
    1900:	00028393          	mv	t2,t0
    1904:	000c8e93          	mv	t4,s9
d:\PDS\test\Sparrow_RISC-V\MRS\obj/../app/main.c:97
            int nx=col_left+dx,ny=row_top+dy;
    1908:	01d12223          	sw	t4,4(sp)
d:\PDS\test\Sparrow_RISC-V\MRS\obj/../app/main.c:98
            if(nx<=col_right&&ny<=row_bot&&is_white(bin,nx,ny))
    190c:	31dd4063          	blt	s10,t4,1c0c <find_plate+0x608>
is_white():
d:\PDS\test\Sparrow_RISC-V\MRS\obj/../app/main.c:39 (discriminator 1)
    uint32_t wd=base[y*DDR_STRIDE32+(x>>1)];
    1910:	401ed513          	srai	a0,t4,0x1
    1914:	00750533          	add	a0,a0,t2
    1918:	a00000b7          	lui	ra,0xa0000
    191c:	00251513          	slli	a0,a0,0x2
    1920:	00a08533          	add	a0,ra,a0
find_plate():
d:\PDS\test\Sparrow_RISC-V\MRS\obj/../app/main.c:97 (discriminator 1)
            int nx=col_left+dx,ny=row_top+dy;
    1924:	000f0d93          	mv	s11,t5
is_white():
d:\PDS\test\Sparrow_RISC-V\MRS\obj/../app/main.c:40 (discriminator 1)
    uint16_t px=(uint16_t)((x&1)?(wd>>16):(wd&0xFFFF));
    1928:	001ef093          	andi	ra,t4,1
find_plate():
d:\PDS\test\Sparrow_RISC-V\MRS\obj/../app/main.c:98 (discriminator 1)
            if(nx<=col_right&&ny<=row_bot&&is_white(bin,nx,ny))
    192c:	2febc063          	blt	s7,t5,1c0c <find_plate+0x608>
is_white():
d:\PDS\test\Sparrow_RISC-V\MRS\obj/../app/main.c:39
    uint32_t wd=base[y*DDR_STRIDE32+(x>>1)];
    1930:	00052503          	lw	a0,0(a0)
d:\PDS\test\Sparrow_RISC-V\MRS\obj/../app/main.c:40
    uint16_t px=(uint16_t)((x&1)?(wd>>16):(wd&0xFFFF));
    1934:	00009463          	bnez	ra,193c <find_plate+0x338>
    1938:	01051513          	slli	a0,a0,0x10
    193c:	01055513          	srli	a0,a0,0x10
find_plate():
d:\PDS\test\Sparrow_RISC-V\MRS\obj/../app/main.c:98
            if(nx<=col_right&&ny<=row_bot&&is_white(bin,nx,ny))
    1940:	2ca8f663          	bgeu	a7,a0,1c0c <find_plate+0x608>
d:\PDS\test\Sparrow_RISC-V\MRS\obj/../app/main.c:104
    for(int d=0;d<bw+bh;d++){
    1944:	00000f13          	li	t5,0
is_white():
d:\PDS\test\Sparrow_RISC-V\MRS\obj/../app/main.c:39
    uint32_t wd=base[y*DDR_STRIDE32+(x>>1)];
    1948:	a00003b7          	lui	t2,0xa0000
find_plate():
d:\PDS\test\Sparrow_RISC-V\MRS\obj/../app/main.c:109
            if(nx>=col_left&&ny<=row_bot&&is_white(bin,nx,ny))
    194c:	000082b7          	lui	t0,0x8
d:\PDS\test\Sparrow_RISC-V\MRS\obj/../app/main.c:106
        for(int dx=0;dx<=d&&!found;dx++){
    1950:	018f08b3          	add	a7,t5,s8
    1954:	00078e13          	mv	t3,a5
    1958:	000d0813          	mv	a6,s10
d:\PDS\test\Sparrow_RISC-V\MRS\obj/../app/main.c:108
            int nx=col_right-dx,ny=row_top+dy;
    195c:	01012423          	sw	a6,8(sp)
d:\PDS\test\Sparrow_RISC-V\MRS\obj/../app/main.c:109
            if(nx>=col_left&&ny<=row_bot&&is_white(bin,nx,ny))
    1960:	29984a63          	blt	a6,s9,1bf4 <find_plate+0x5f0>
is_white():
d:\PDS\test\Sparrow_RISC-V\MRS\obj/../app/main.c:39 (discriminator 1)
    uint32_t wd=base[y*DDR_STRIDE32+(x>>1)];
    1964:	40185513          	srai	a0,a6,0x1
    1968:	01c50533          	add	a0,a0,t3
    196c:	00251513          	slli	a0,a0,0x2
    1970:	00a38533          	add	a0,t2,a0
d:\PDS\test\Sparrow_RISC-V\MRS\obj/../app/main.c:40 (discriminator 1)
    uint16_t px=(uint16_t)((x&1)?(wd>>16):(wd&0xFFFF));
    1974:	00187f93          	andi	t6,a6,1
find_plate():
d:\PDS\test\Sparrow_RISC-V\MRS\obj/../app/main.c:108 (discriminator 1)
            int nx=col_right-dx,ny=row_top+dy;
    1978:	00088e93          	mv	t4,a7
d:\PDS\test\Sparrow_RISC-V\MRS\obj/../app/main.c:109 (discriminator 1)
            if(nx>=col_left&&ny<=row_bot&&is_white(bin,nx,ny))
    197c:	271bcc63          	blt	s7,a7,1bf4 <find_plate+0x5f0>
is_white():
d:\PDS\test\Sparrow_RISC-V\MRS\obj/../app/main.c:39
    uint32_t wd=base[y*DDR_STRIDE32+(x>>1)];
    1980:	00052503          	lw	a0,0(a0)
d:\PDS\test\Sparrow_RISC-V\MRS\obj/../app/main.c:40
    uint16_t px=(uint16_t)((x&1)?(wd>>16):(wd&0xFFFF));
    1984:	000f9463          	bnez	t6,198c <find_plate+0x388>
    1988:	01051513          	slli	a0,a0,0x10
    198c:	01055513          	srli	a0,a0,0x10
find_plate():
d:\PDS\test\Sparrow_RISC-V\MRS\obj/../app/main.c:109
            if(nx>=col_left&&ny<=row_bot&&is_white(bin,nx,ny))
    1990:	26a2f263          	bgeu	t0,a0,1bf4 <find_plate+0x5f0>
d:\PDS\test\Sparrow_RISC-V\MRS\obj/../app/main.c:115
    for(int d=0;d<bw+bh;d++){
    1994:	004b9793          	slli	a5,s7,0x4
    1998:	417787b3          	sub	a5,a5,s7
    199c:	00679793          	slli	a5,a5,0x6
    19a0:	00078293          	mv	t0,a5
    19a4:	00000f93          	li	t6,0
is_white():
d:\PDS\test\Sparrow_RISC-V\MRS\obj/../app/main.c:39
    uint32_t wd=base[y*DDR_STRIDE32+(x>>1)];
    19a8:	a0000e37          	lui	t3,0xa0000
find_plate():
d:\PDS\test\Sparrow_RISC-V\MRS\obj/../app/main.c:120
            if(nx<=col_right&&ny>=row_top&&is_white(bin,nx,ny))
    19ac:	000088b7          	lui	a7,0x8
d:\PDS\test\Sparrow_RISC-V\MRS\obj/../app/main.c:117
        for(int dx=0;dx<=d&&!found;dx++){
    19b0:	41fb8f33          	sub	t5,s7,t6
    19b4:	00028393          	mv	t2,t0
    19b8:	000c8813          	mv	a6,s9
d:\PDS\test\Sparrow_RISC-V\MRS\obj/../app/main.c:119
            int nx=col_left+dx,ny=row_bot-dy;
    19bc:	00080a93          	mv	s5,a6
d:\PDS\test\Sparrow_RISC-V\MRS\obj/../app/main.c:120
            if(nx<=col_right&&ny>=row_top&&is_white(bin,nx,ny))
    19c0:	210d4e63          	blt	s10,a6,1bdc <find_plate+0x5d8>
is_white():
d:\PDS\test\Sparrow_RISC-V\MRS\obj/../app/main.c:39 (discriminator 1)
    uint32_t wd=base[y*DDR_STRIDE32+(x>>1)];
    19c4:	40185513          	srai	a0,a6,0x1
    19c8:	00750533          	add	a0,a0,t2
    19cc:	00251513          	slli	a0,a0,0x2
    19d0:	00ae0533          	add	a0,t3,a0
d:\PDS\test\Sparrow_RISC-V\MRS\obj/../app/main.c:40 (discriminator 1)
    uint16_t px=(uint16_t)((x&1)?(wd>>16):(wd&0xFFFF));
    19d4:	00187093          	andi	ra,a6,1
find_plate():
d:\PDS\test\Sparrow_RISC-V\MRS\obj/../app/main.c:119 (discriminator 1)
            int nx=col_left+dx,ny=row_bot-dy;
    19d8:	000f0a13          	mv	s4,t5
d:\PDS\test\Sparrow_RISC-V\MRS\obj/../app/main.c:120 (discriminator 1)
            if(nx<=col_right&&ny>=row_top&&is_white(bin,nx,ny))
    19dc:	218f4063          	blt	t5,s8,1bdc <find_plate+0x5d8>
is_white():
d:\PDS\test\Sparrow_RISC-V\MRS\obj/../app/main.c:39
    uint32_t wd=base[y*DDR_STRIDE32+(x>>1)];
    19e0:	00052503          	lw	a0,0(a0)
d:\PDS\test\Sparrow_RISC-V\MRS\obj/../app/main.c:40
    uint16_t px=(uint16_t)((x&1)?(wd>>16):(wd&0xFFFF));
    19e4:	00009463          	bnez	ra,19ec <find_plate+0x3e8>
    19e8:	01051513          	slli	a0,a0,0x10
    19ec:	01055513          	srli	a0,a0,0x10
find_plate():
d:\PDS\test\Sparrow_RISC-V\MRS\obj/../app/main.c:120
            if(nx<=col_right&&ny>=row_top&&is_white(bin,nx,ny))
    19f0:	1ea8f663          	bgeu	a7,a0,1bdc <find_plate+0x5d8>
d:\PDS\test\Sparrow_RISC-V\MRS\obj/../app/main.c:126
    for(int d=0;d<bw+bh;d++){
    19f4:	00000f93          	li	t6,0
is_white():
d:\PDS\test\Sparrow_RISC-V\MRS\obj/../app/main.c:39
    uint32_t wd=base[y*DDR_STRIDE32+(x>>1)];
    19f8:	a00000b7          	lui	ra,0xa0000
find_plate():
d:\PDS\test\Sparrow_RISC-V\MRS\obj/../app/main.c:131
            if(nx>=col_left&&ny>=row_top&&is_white(bin,nx,ny))
    19fc:	000083b7          	lui	t2,0x8
d:\PDS\test\Sparrow_RISC-V\MRS\obj/../app/main.c:128
        for(int dx=0;dx<=d&&!found;dx++){
    1a00:	41fb88b3          	sub	a7,s7,t6
    1a04:	00078e13          	mv	t3,a5
    1a08:	000d0813          	mv	a6,s10
d:\PDS\test\Sparrow_RISC-V\MRS\obj/../app/main.c:130
            int nx=col_right-dx,ny=row_bot-dy;
    1a0c:	00080913          	mv	s2,a6
d:\PDS\test\Sparrow_RISC-V\MRS\obj/../app/main.c:131
            if(nx>=col_left&&ny>=row_top&&is_white(bin,nx,ny))
    1a10:	1b984a63          	blt	a6,s9,1bc4 <find_plate+0x5c0>
is_white():
d:\PDS\test\Sparrow_RISC-V\MRS\obj/../app/main.c:39 (discriminator 1)
    uint32_t wd=base[y*DDR_STRIDE32+(x>>1)];
    1a14:	40185513          	srai	a0,a6,0x1
    1a18:	01c50533          	add	a0,a0,t3
    1a1c:	00251513          	slli	a0,a0,0x2
    1a20:	00a08533          	add	a0,ra,a0
d:\PDS\test\Sparrow_RISC-V\MRS\obj/../app/main.c:40 (discriminator 1)
    uint16_t px=(uint16_t)((x&1)?(wd>>16):(wd&0xFFFF));
    1a24:	00187f13          	andi	t5,a6,1
find_plate():
d:\PDS\test\Sparrow_RISC-V\MRS\obj/../app/main.c:130 (discriminator 1)
            int nx=col_right-dx,ny=row_bot-dy;
    1a28:	00088993          	mv	s3,a7
d:\PDS\test\Sparrow_RISC-V\MRS\obj/../app/main.c:131 (discriminator 1)
            if(nx>=col_left&&ny>=row_top&&is_white(bin,nx,ny))
    1a2c:	1988cc63          	blt	a7,s8,1bc4 <find_plate+0x5c0>
is_white():
d:\PDS\test\Sparrow_RISC-V\MRS\obj/../app/main.c:39
    uint32_t wd=base[y*DDR_STRIDE32+(x>>1)];
    1a30:	00052503          	lw	a0,0(a0)
d:\PDS\test\Sparrow_RISC-V\MRS\obj/../app/main.c:40
    uint16_t px=(uint16_t)((x&1)?(wd>>16):(wd&0xFFFF));
    1a34:	000f1463          	bnez	t5,1a3c <find_plate+0x438>
    1a38:	01051513          	slli	a0,a0,0x10
    1a3c:	01055513          	srli	a0,a0,0x10
find_plate():
d:\PDS\test\Sparrow_RISC-V\MRS\obj/../app/main.c:131
            if(nx>=col_left&&ny>=row_top&&is_white(bin,nx,ny))
    1a40:	18a3f263          	bgeu	t2,a0,1bc4 <find_plate+0x5c0>
d:\PDS\test\Sparrow_RISC-V\MRS\obj/../app/main.c:137
    printf("[3]out\r\n");
    1a44:	20000537          	lui	a0,0x20000
    1a48:	09450513          	addi	a0,a0,148 # 20000094 <_data+0x94>
    1a4c:	01d12623          	sw	t4,12(sp)
    1a50:	00c12c23          	sw	a2,24(sp)
    1a54:	00b12a23          	sw	a1,20(sp)
    1a58:	00e12823          	sw	a4,16(sp)
    1a5c:	00d12e23          	sw	a3,28(sp)
    1a60:	b55ff0ef          	jal	ra,15b4 <printf_>
d:\PDS\test\Sparrow_RISC-V\MRS\obj/../app/main.c:138
    g_box_x0=col_left;g_box_y0=row_top;
    1a64:	8391a223          	sw	s9,-2012(gp) # 20000334 <g_box_x0>
d:\PDS\test\Sparrow_RISC-V\MRS\obj/../app/main.c:140
    g_box_area=area_est;
    1a68:	01c12683          	lw	a3,28(sp)
d:\PDS\test\Sparrow_RISC-V\MRS\obj/../app/main.c:138
    g_box_x0=col_left;g_box_y0=row_top;
    1a6c:	8381a023          	sw	s8,-2016(gp) # 20000330 <g_box_y0>
d:\PDS\test\Sparrow_RISC-V\MRS\obj/../app/main.c:139
    g_box_x1=col_right;g_box_y1=row_bot;
    1a70:	81a1ae23          	sw	s10,-2020(gp) # 2000032c <g_box_x1>
d:\PDS\test\Sparrow_RISC-V\MRS\obj/../app/main.c:144
    printf("\r\n===== 投影法 =====\r\n");
    1a74:	20000537          	lui	a0,0x20000
d:\PDS\test\Sparrow_RISC-V\MRS\obj/../app/main.c:139
    g_box_x1=col_right;g_box_y1=row_bot;
    1a78:	8171ac23          	sw	s7,-2024(gp) # 20000328 <g_box_y1>
d:\PDS\test\Sparrow_RISC-V\MRS\obj/../app/main.c:144
    printf("\r\n===== 投影法 =====\r\n");
    1a7c:	0a050513          	addi	a0,a0,160 # 200000a0 <_data+0xa0>
d:\PDS\test\Sparrow_RISC-V\MRS\obj/../app/main.c:140
    g_box_area=area_est;
    1a80:	80d1aa23          	sw	a3,-2028(gp) # 20000324 <g_box_area>
d:\PDS\test\Sparrow_RISC-V\MRS\obj/../app/main.c:144
    printf("\r\n===== 投影法 =====\r\n");
    1a84:	b31ff0ef          	jal	ra,15b4 <printf_>
d:\PDS\test\Sparrow_RISC-V\MRS\obj/../app/main.c:145
    printf("区域=%dx%d 峰值R=%d C=%d\r\n",bw,bh,row_max,col_max);
    1a88:	01012703          	lw	a4,16(sp)
    1a8c:	01812603          	lw	a2,24(sp)
    1a90:	01412583          	lw	a1,20(sp)
    1a94:	20000537          	lui	a0,0x20000
    1a98:	000b0693          	mv	a3,s6
    1a9c:	0bc50513          	addi	a0,a0,188 # 200000bc <_data+0xbc>
    1aa0:	b15ff0ef          	jal	ra,15b4 <printf_>
d:\PDS\test\Sparrow_RISC-V\MRS\obj/../app/main.c:146
    printf("1.投影轴对齐:\r\n");
    1aa4:	20000537          	lui	a0,0x20000
    1aa8:	0dc50513          	addi	a0,a0,220 # 200000dc <_data+0xdc>
    1aac:	b09ff0ef          	jal	ra,15b4 <printf_>
d:\PDS\test\Sparrow_RISC-V\MRS\obj/../app/main.c:147
    printf("  左上(%d,%d) 右上(%d,%d)\r\n",col_left,row_top,col_right,row_top);
    1ab0:	200004b7          	lui	s1,0x20000
    1ab4:	000c0713          	mv	a4,s8
    1ab8:	000d0693          	mv	a3,s10
    1abc:	000c0613          	mv	a2,s8
    1ac0:	000c8593          	mv	a1,s9
    1ac4:	0f448513          	addi	a0,s1,244 # 200000f4 <_data+0xf4>
    1ac8:	aedff0ef          	jal	ra,15b4 <printf_>
d:\PDS\test\Sparrow_RISC-V\MRS\obj/../app/main.c:148
    printf("  左下(%d,%d) 右下(%d,%d)\r\n",col_left,row_bot,col_right,row_bot);
    1acc:	20000437          	lui	s0,0x20000
    1ad0:	000b8713          	mv	a4,s7
    1ad4:	000d0693          	mv	a3,s10
    1ad8:	000b8613          	mv	a2,s7
    1adc:	000c8593          	mv	a1,s9
    1ae0:	11440513          	addi	a0,s0,276 # 20000114 <_data+0x114>
    1ae4:	ad1ff0ef          	jal	ra,15b4 <printf_>
d:\PDS\test\Sparrow_RISC-V\MRS\obj/../app/main.c:149
    printf("2.逼真+补偿:\r\n");
    1ae8:	20000537          	lui	a0,0x20000
    1aec:	13450513          	addi	a0,a0,308 # 20000134 <_data+0x134>
    1af0:	ac5ff0ef          	jal	ra,15b4 <printf_>
d:\PDS\test\Sparrow_RISC-V\MRS\obj/../app/main.c:150
    printf("  左上(%d,%d) 右上(%d,%d)\r\n",tlx+PIPE_DX,tly+PIPE_DY,trx+PIPE_DX,try_+PIPE_DY);
    1af4:	00812783          	lw	a5,8(sp)
    1af8:	00c12e83          	lw	t4,12(sp)
    1afc:	005d8613          	addi	a2,s11,5
    1b00:	01b78693          	addi	a3,a5,27
    1b04:	00412783          	lw	a5,4(sp)
    1b08:	005e8713          	addi	a4,t4,5
    1b0c:	0f448513          	addi	a0,s1,244
    1b10:	01b78593          	addi	a1,a5,27
    1b14:	aa1ff0ef          	jal	ra,15b4 <printf_>
d:\PDS\test\Sparrow_RISC-V\MRS\obj/../app/main.c:151
    printf("  左下(%d,%d) 右下(%d,%d)\r\n",blx+PIPE_DX,bly+PIPE_DY,brx+PIPE_DX,bry+PIPE_DY);
    1b18:	00598713          	addi	a4,s3,5
    1b1c:	01b90693          	addi	a3,s2,27
    1b20:	005a0613          	addi	a2,s4,5
    1b24:	01ba8593          	addi	a1,s5,27 # 2000001b <_data+0x1b>
    1b28:	11440513          	addi	a0,s0,276
    1b2c:	a89ff0ef          	jal	ra,15b4 <printf_>
d:\PDS\test\Sparrow_RISC-V\MRS\obj/../app/main.c:152
    printf("===== END =====\r\n\n");
    1b30:	20000537          	lui	a0,0x20000
    1b34:	14850513          	addi	a0,a0,328 # 20000148 <_data+0x148>
    1b38:	0500006f          	j	1b88 <find_plate+0x584>
d:\PDS\test\Sparrow_RISC-V\MRS\obj/../app/main.c:153
}
    1b3c:	05812403          	lw	s0,88(sp)
    1b40:	05c12083          	lw	ra,92(sp)
    1b44:	05412483          	lw	s1,84(sp)
    1b48:	05012903          	lw	s2,80(sp)
    1b4c:	04c12983          	lw	s3,76(sp)
    1b50:	04812a03          	lw	s4,72(sp)
    1b54:	04412a83          	lw	s5,68(sp)
    1b58:	04012b03          	lw	s6,64(sp)
    1b5c:	03c12b83          	lw	s7,60(sp)
    1b60:	03812c03          	lw	s8,56(sp)
    1b64:	03412c83          	lw	s9,52(sp)
    1b68:	03012d03          	lw	s10,48(sp)
    1b6c:	02c12d83          	lw	s11,44(sp)
d:\PDS\test\Sparrow_RISC-V\MRS\obj/../app/main.c:87
        printf("比例不符: %dx%d area=%d\r\n",bw,bh,area_est);
    1b70:	20000537          	lui	a0,0x20000
    1b74:	07450513          	addi	a0,a0,116 # 20000074 <_data+0x74>
d:\PDS\test\Sparrow_RISC-V\MRS\obj/../app/main.c:153
}
    1b78:	06010113          	addi	sp,sp,96
d:\PDS\test\Sparrow_RISC-V\MRS\obj/../app/main.c:87
        printf("比例不符: %dx%d area=%d\r\n",bw,bh,area_est);
    1b7c:	a39ff06f          	j	15b4 <printf_>
d:\PDS\test\Sparrow_RISC-V\MRS\obj/../app/main.c:70 (discriminator 1)
    if(row_max<10){printf("无有效白像素\r\n");return;}
    1b80:	20000537          	lui	a0,0x20000
    1b84:	05c50513          	addi	a0,a0,92 # 2000005c <_data+0x5c>
d:\PDS\test\Sparrow_RISC-V\MRS\obj/../app/main.c:153
}
    1b88:	05812403          	lw	s0,88(sp)
    1b8c:	05c12083          	lw	ra,92(sp)
    1b90:	05412483          	lw	s1,84(sp)
    1b94:	05012903          	lw	s2,80(sp)
    1b98:	04c12983          	lw	s3,76(sp)
    1b9c:	04812a03          	lw	s4,72(sp)
    1ba0:	04412a83          	lw	s5,68(sp)
    1ba4:	04012b03          	lw	s6,64(sp)
    1ba8:	03c12b83          	lw	s7,60(sp)
    1bac:	03812c03          	lw	s8,56(sp)
    1bb0:	03412c83          	lw	s9,52(sp)
    1bb4:	03012d03          	lw	s10,48(sp)
    1bb8:	02c12d83          	lw	s11,44(sp)
    1bbc:	06010113          	addi	sp,sp,96
d:\PDS\test\Sparrow_RISC-V\MRS\obj/../app/main.c:152
    printf("===== END =====\r\n\n");
    1bc0:	9f5ff06f          	j	15b4 <printf_>
d:\PDS\test\Sparrow_RISC-V\MRS\obj/../app/main.c:128 (discriminator 2)
        for(int dx=0;dx<=d&&!found;dx++){
    1bc4:	00188513          	addi	a0,a7,1 # 8001 <__stack_size+0x4001>
    1bc8:	fff80813          	addi	a6,a6,-1
    1bcc:	3c0e0e13          	addi	t3,t3,960 # a00003c0 <_sp+0x7ffc03c0>
    1bd0:	051b8a63          	beq	s7,a7,1c24 <find_plate+0x620>
    1bd4:	00050893          	mv	a7,a0
    1bd8:	e35ff06f          	j	1a0c <find_plate+0x408>
d:\PDS\test\Sparrow_RISC-V\MRS\obj/../app/main.c:117 (discriminator 2)
        for(int dx=0;dx<=d&&!found;dx++){
    1bdc:	001f0513          	addi	a0,t5,1 # 8001 <__stack_size+0x4001>
    1be0:	00180813          	addi	a6,a6,1
    1be4:	3c038393          	addi	t2,t2,960 # 83c0 <__stack_size+0x43c0>
    1be8:	07eb8663          	beq	s7,t5,1c54 <find_plate+0x650>
    1bec:	00050f13          	mv	t5,a0
    1bf0:	dcdff06f          	j	19bc <find_plate+0x3b8>
d:\PDS\test\Sparrow_RISC-V\MRS\obj/../app/main.c:106 (discriminator 2)
        for(int dx=0;dx<=d&&!found;dx++){
    1bf4:	fff88513          	addi	a0,a7,-1
    1bf8:	fff80813          	addi	a6,a6,-1
    1bfc:	c40e0e13          	addi	t3,t3,-960
    1c00:	071c0663          	beq	s8,a7,1c6c <find_plate+0x668>
    1c04:	00050893          	mv	a7,a0
    1c08:	d55ff06f          	j	195c <find_plate+0x358>
d:\PDS\test\Sparrow_RISC-V\MRS\obj/../app/main.c:95 (discriminator 2)
        for(int dx=0;dx<=d&&!found;dx++){
    1c0c:	ffff0513          	addi	a0,t5,-1
    1c10:	001e8e93          	addi	t4,t4,1
    1c14:	c4038393          	addi	t2,t2,-960
    1c18:	03ec0263          	beq	s8,t5,1c3c <find_plate+0x638>
    1c1c:	00050f13          	mv	t5,a0
    1c20:	ce9ff06f          	j	1908 <find_plate+0x304>
d:\PDS\test\Sparrow_RISC-V\MRS\obj/../app/main.c:126 (discriminator 2)
    for(int d=0;d<bw+bh;d++){
    1c24:	001f8f93          	addi	t6,t6,1 # a0000001 <_sp+0x7ffc0001>
    1c28:	c4078793          	addi	a5,a5,-960
    1c2c:	dc6f9ae3          	bne	t6,t1,1a00 <find_plate+0x3fc>
    1c30:	00048993          	mv	s3,s1
    1c34:	00040913          	mv	s2,s0
    1c38:	e0dff06f          	j	1a44 <find_plate+0x440>
d:\PDS\test\Sparrow_RISC-V\MRS\obj/../app/main.c:93 (discriminator 2)
    for(int d=0;d<bw+bh;d++){
    1c3c:	001f8f93          	addi	t6,t6,1
    1c40:	3c028293          	addi	t0,t0,960 # 83c0 <__stack_size+0x43c0>
    1c44:	ca6f9ce3          	bne	t6,t1,18fc <find_plate+0x2f8>
    1c48:	000e0d93          	mv	s11,t3
    1c4c:	01012223          	sw	a6,4(sp)
    1c50:	cf5ff06f          	j	1944 <find_plate+0x340>
d:\PDS\test\Sparrow_RISC-V\MRS\obj/../app/main.c:115 (discriminator 2)
    for(int d=0;d<bw+bh;d++){
    1c54:	001f8f93          	addi	t6,t6,1
    1c58:	c4028293          	addi	t0,t0,-960
    1c5c:	d46f9ae3          	bne	t6,t1,19b0 <find_plate+0x3ac>
    1c60:	00098a13          	mv	s4,s3
    1c64:	00090a93          	mv	s5,s2
    1c68:	d8dff06f          	j	19f4 <find_plate+0x3f0>
d:\PDS\test\Sparrow_RISC-V\MRS\obj/../app/main.c:104 (discriminator 2)
    for(int d=0;d<bw+bh;d++){
    1c6c:	001f0f13          	addi	t5,t5,1
    1c70:	3c078793          	addi	a5,a5,960
    1c74:	cc6f1ee3          	bne	t5,t1,1950 <find_plate+0x34c>
    1c78:	000a8e93          	mv	t4,s5
    1c7c:	01412423          	sw	s4,8(sp)
    1c80:	d15ff06f          	j	1994 <find_plate+0x390>
d:\PDS\test\Sparrow_RISC-V\MRS\obj/../app/main.c:72
    int row_top=SCAN_Y0,row_bot=SCAN_Y1;
    1c84:	06400c13          	li	s8,100
    1c88:	b6dff06f          	j	17f4 <find_plate+0x1f0>
    1c8c:	41900b93          	li	s7,1049
    1c90:	b8dff06f          	j	181c <find_plate+0x218>
d:\PDS\test\Sparrow_RISC-V\MRS\obj/../app/main.c:79
    int col_left=0,col_right=IMG_W-1;
    1c94:	00000c93          	li	s9,0
    1c98:	bd5ff06f          	j	186c <find_plate+0x268>
    1c9c:	77f00d13          	li	s10,1919
    1ca0:	bf5ff06f          	j	1894 <find_plate+0x290>

00001ca4 <SysTick_Handler>:
SysTick_Handler():
d:\PDS\test\Sparrow_RISC-V\MRS\obj/../app/trap_handler.c:23
//定时器中断服务程序
void SysTick_Handler() __attribute__((interrupt("machine")));
void SysTick_Handler()
{
    //printf("interrupt tcmp in original function\n");
}
    1ca4:	30200073          	mret

00001ca8 <HardFault_Handler>:
HardFault_Handler():
d:\PDS\test\Sparrow_RISC-V\MRS\obj/../app/trap_handler.c:38 (discriminator 1)

//硬件错误引发异常
void HardFault_Handler() __attribute__((interrupt("machine")));
void HardFault_Handler()
{
    while(1);
    1ca8:	0000006f          	j	1ca8 <HardFault_Handler>

00001cac <PLIC1_FPIOA_ELI0_Handler>:
PLIC1_FPIOA_ELI0_Handler():
d:\PDS\test\Sparrow_RISC-V\MRS\obj/../app/trap_handler.c:43
}

void PLIC1_FPIOA_ELI0_Handler() __attribute__((interrupt("machine")));
void PLIC1_FPIOA_ELI0_Handler()
{
    1cac:	fc010113          	addi	sp,sp,-64
    1cb0:	02a12623          	sw	a0,44(sp)
d:\PDS\test\Sparrow_RISC-V\MRS\obj/../app/trap_handler.c:44
    csr_msprint_string("PLIC1_Hdler\n");
    1cb4:	20000537          	lui	a0,0x20000
    1cb8:	17050513          	addi	a0,a0,368 # 20000170 <_data+0x170>
d:\PDS\test\Sparrow_RISC-V\MRS\obj/../app/trap_handler.c:43
{
    1cbc:	02112e23          	sw	ra,60(sp)
    1cc0:	02512c23          	sw	t0,56(sp)
    1cc4:	02612a23          	sw	t1,52(sp)
    1cc8:	02712823          	sw	t2,48(sp)
    1ccc:	02b12423          	sw	a1,40(sp)
    1cd0:	02c12223          	sw	a2,36(sp)
    1cd4:	02d12023          	sw	a3,32(sp)
    1cd8:	00e12e23          	sw	a4,28(sp)
    1cdc:	00f12c23          	sw	a5,24(sp)
    1ce0:	01012a23          	sw	a6,20(sp)
    1ce4:	01112823          	sw	a7,16(sp)
    1ce8:	01c12623          	sw	t3,12(sp)
    1cec:	01d12423          	sw	t4,8(sp)
    1cf0:	01e12223          	sw	t5,4(sp)
    1cf4:	01f12023          	sw	t6,0(sp)
d:\PDS\test\Sparrow_RISC-V\MRS\obj/../app/trap_handler.c:44
    csr_msprint_string("PLIC1_Hdler\n");
    1cf8:	d98fe0ef          	jal	ra,290 <csr_msprint_string>
d:\PDS\test\Sparrow_RISC-V\MRS\obj/../app/trap_handler.c:45
}
    1cfc:	03c12083          	lw	ra,60(sp)
    1d00:	03812283          	lw	t0,56(sp)
    1d04:	03412303          	lw	t1,52(sp)
    1d08:	03012383          	lw	t2,48(sp)
    1d0c:	02c12503          	lw	a0,44(sp)
    1d10:	02812583          	lw	a1,40(sp)
    1d14:	02412603          	lw	a2,36(sp)
    1d18:	02012683          	lw	a3,32(sp)
    1d1c:	01c12703          	lw	a4,28(sp)
    1d20:	01812783          	lw	a5,24(sp)
    1d24:	01412803          	lw	a6,20(sp)
    1d28:	01012883          	lw	a7,16(sp)
    1d2c:	00c12e03          	lw	t3,12(sp)
    1d30:	00812e83          	lw	t4,8(sp)
    1d34:	00412f03          	lw	t5,4(sp)
    1d38:	00012f83          	lw	t6,0(sp)
    1d3c:	04010113          	addi	sp,sp,64
    1d40:	30200073          	mret

00001d44 <PLIC2_FPIOA_ELI1_Handler>:
PLIC2_FPIOA_ELI1_Handler():
d:\PDS\test\Sparrow_RISC-V\MRS\obj/../app/trap_handler.c:49

void PLIC2_FPIOA_ELI1_Handler() __attribute__((interrupt("machine")));
void PLIC2_FPIOA_ELI1_Handler()
{
    1d44:	fc010113          	addi	sp,sp,-64
    1d48:	02a12623          	sw	a0,44(sp)
d:\PDS\test\Sparrow_RISC-V\MRS\obj/../app/trap_handler.c:50
    csr_msprint_string("PLIC2_Hdler\n");
    1d4c:	20000537          	lui	a0,0x20000
    1d50:	18050513          	addi	a0,a0,384 # 20000180 <_data+0x180>
d:\PDS\test\Sparrow_RISC-V\MRS\obj/../app/trap_handler.c:49
{
    1d54:	02112e23          	sw	ra,60(sp)
    1d58:	02512c23          	sw	t0,56(sp)
    1d5c:	02612a23          	sw	t1,52(sp)
    1d60:	02712823          	sw	t2,48(sp)
    1d64:	02b12423          	sw	a1,40(sp)
    1d68:	02c12223          	sw	a2,36(sp)
    1d6c:	02d12023          	sw	a3,32(sp)
    1d70:	00e12e23          	sw	a4,28(sp)
    1d74:	00f12c23          	sw	a5,24(sp)
    1d78:	01012a23          	sw	a6,20(sp)
    1d7c:	01112823          	sw	a7,16(sp)
    1d80:	01c12623          	sw	t3,12(sp)
    1d84:	01d12423          	sw	t4,8(sp)
    1d88:	01e12223          	sw	t5,4(sp)
    1d8c:	01f12023          	sw	t6,0(sp)
d:\PDS\test\Sparrow_RISC-V\MRS\obj/../app/trap_handler.c:50
    csr_msprint_string("PLIC2_Hdler\n");
    1d90:	d00fe0ef          	jal	ra,290 <csr_msprint_string>
d:\PDS\test\Sparrow_RISC-V\MRS\obj/../app/trap_handler.c:51
}
    1d94:	03c12083          	lw	ra,60(sp)
    1d98:	03812283          	lw	t0,56(sp)
    1d9c:	03412303          	lw	t1,52(sp)
    1da0:	03012383          	lw	t2,48(sp)
    1da4:	02c12503          	lw	a0,44(sp)
    1da8:	02812583          	lw	a1,40(sp)
    1dac:	02412603          	lw	a2,36(sp)
    1db0:	02012683          	lw	a3,32(sp)
    1db4:	01c12703          	lw	a4,28(sp)
    1db8:	01812783          	lw	a5,24(sp)
    1dbc:	01412803          	lw	a6,20(sp)
    1dc0:	01012883          	lw	a7,16(sp)
    1dc4:	00c12e03          	lw	t3,12(sp)
    1dc8:	00812e83          	lw	t4,8(sp)
    1dcc:	00412f03          	lw	t5,4(sp)
    1dd0:	00012f83          	lw	t6,0(sp)
    1dd4:	04010113          	addi	sp,sp,64
    1dd8:	30200073          	mret

00001ddc <PLIC3_FPIOA_ELI2_Handler>:
PLIC3_FPIOA_ELI2_Handler():
d:\PDS\test\Sparrow_RISC-V\MRS\obj/../app/trap_handler.c:55

void PLIC3_FPIOA_ELI2_Handler() __attribute__((interrupt("machine")));
void PLIC3_FPIOA_ELI2_Handler()
{
    1ddc:	fc010113          	addi	sp,sp,-64
    1de0:	02a12623          	sw	a0,44(sp)
d:\PDS\test\Sparrow_RISC-V\MRS\obj/../app/trap_handler.c:56
    csr_msprint_string("PLIC3_Hdler\n");
    1de4:	20000537          	lui	a0,0x20000
    1de8:	19050513          	addi	a0,a0,400 # 20000190 <_data+0x190>
d:\PDS\test\Sparrow_RISC-V\MRS\obj/../app/trap_handler.c:55
{
    1dec:	02112e23          	sw	ra,60(sp)
    1df0:	02512c23          	sw	t0,56(sp)
    1df4:	02612a23          	sw	t1,52(sp)
    1df8:	02712823          	sw	t2,48(sp)
    1dfc:	02b12423          	sw	a1,40(sp)
    1e00:	02c12223          	sw	a2,36(sp)
    1e04:	02d12023          	sw	a3,32(sp)
    1e08:	00e12e23          	sw	a4,28(sp)
    1e0c:	00f12c23          	sw	a5,24(sp)
    1e10:	01012a23          	sw	a6,20(sp)
    1e14:	01112823          	sw	a7,16(sp)
    1e18:	01c12623          	sw	t3,12(sp)
    1e1c:	01d12423          	sw	t4,8(sp)
    1e20:	01e12223          	sw	t5,4(sp)
    1e24:	01f12023          	sw	t6,0(sp)
d:\PDS\test\Sparrow_RISC-V\MRS\obj/../app/trap_handler.c:56
    csr_msprint_string("PLIC3_Hdler\n");
    1e28:	c68fe0ef          	jal	ra,290 <csr_msprint_string>
d:\PDS\test\Sparrow_RISC-V\MRS\obj/../app/trap_handler.c:57
}
    1e2c:	03c12083          	lw	ra,60(sp)
    1e30:	03812283          	lw	t0,56(sp)
    1e34:	03412303          	lw	t1,52(sp)
    1e38:	03012383          	lw	t2,48(sp)
    1e3c:	02c12503          	lw	a0,44(sp)
    1e40:	02812583          	lw	a1,40(sp)
    1e44:	02412603          	lw	a2,36(sp)
    1e48:	02012683          	lw	a3,32(sp)
    1e4c:	01c12703          	lw	a4,28(sp)
    1e50:	01812783          	lw	a5,24(sp)
    1e54:	01412803          	lw	a6,20(sp)
    1e58:	01012883          	lw	a7,16(sp)
    1e5c:	00c12e03          	lw	t3,12(sp)
    1e60:	00812e83          	lw	t4,8(sp)
    1e64:	00412f03          	lw	t5,4(sp)
    1e68:	00012f83          	lw	t6,0(sp)
    1e6c:	04010113          	addi	sp,sp,64
    1e70:	30200073          	mret

00001e74 <PLIC4_FPIOA_ELI3_Handler>:
PLIC4_FPIOA_ELI3_Handler():
d:\PDS\test\Sparrow_RISC-V\MRS\obj/../app/trap_handler.c:61

void PLIC4_FPIOA_ELI3_Handler() __attribute__((interrupt("machine")));
void PLIC4_FPIOA_ELI3_Handler()
{
    1e74:	fc010113          	addi	sp,sp,-64
    1e78:	02a12623          	sw	a0,44(sp)
d:\PDS\test\Sparrow_RISC-V\MRS\obj/../app/trap_handler.c:62
    csr_msprint_string("PLIC4_Hdler\n");
    1e7c:	20000537          	lui	a0,0x20000
    1e80:	1a050513          	addi	a0,a0,416 # 200001a0 <_data+0x1a0>
d:\PDS\test\Sparrow_RISC-V\MRS\obj/../app/trap_handler.c:61
{
    1e84:	02112e23          	sw	ra,60(sp)
    1e88:	02512c23          	sw	t0,56(sp)
    1e8c:	02612a23          	sw	t1,52(sp)
    1e90:	02712823          	sw	t2,48(sp)
    1e94:	02b12423          	sw	a1,40(sp)
    1e98:	02c12223          	sw	a2,36(sp)
    1e9c:	02d12023          	sw	a3,32(sp)
    1ea0:	00e12e23          	sw	a4,28(sp)
    1ea4:	00f12c23          	sw	a5,24(sp)
    1ea8:	01012a23          	sw	a6,20(sp)
    1eac:	01112823          	sw	a7,16(sp)
    1eb0:	01c12623          	sw	t3,12(sp)
    1eb4:	01d12423          	sw	t4,8(sp)
    1eb8:	01e12223          	sw	t5,4(sp)
    1ebc:	01f12023          	sw	t6,0(sp)
d:\PDS\test\Sparrow_RISC-V\MRS\obj/../app/trap_handler.c:62
    csr_msprint_string("PLIC4_Hdler\n");
    1ec0:	bd0fe0ef          	jal	ra,290 <csr_msprint_string>
d:\PDS\test\Sparrow_RISC-V\MRS\obj/../app/trap_handler.c:63
}
    1ec4:	03c12083          	lw	ra,60(sp)
    1ec8:	03812283          	lw	t0,56(sp)
    1ecc:	03412303          	lw	t1,52(sp)
    1ed0:	03012383          	lw	t2,48(sp)
    1ed4:	02c12503          	lw	a0,44(sp)
    1ed8:	02812583          	lw	a1,40(sp)
    1edc:	02412603          	lw	a2,36(sp)
    1ee0:	02012683          	lw	a3,32(sp)
    1ee4:	01c12703          	lw	a4,28(sp)
    1ee8:	01812783          	lw	a5,24(sp)
    1eec:	01412803          	lw	a6,20(sp)
    1ef0:	01012883          	lw	a7,16(sp)
    1ef4:	00c12e03          	lw	t3,12(sp)
    1ef8:	00812e83          	lw	t4,8(sp)
    1efc:	00412f03          	lw	t5,4(sp)
    1f00:	00012f83          	lw	t6,0(sp)
    1f04:	04010113          	addi	sp,sp,64
    1f08:	30200073          	mret

00001f0c <PLIC5_UART0_TX_Handler>:
PLIC5_UART0_TX_Handler():
d:\PDS\test\Sparrow_RISC-V\MRS\obj/../app/trap_handler.c:67

void PLIC5_UART0_TX_Handler()   __attribute__((interrupt("machine")));
void PLIC5_UART0_TX_Handler()
{
    1f0c:	fc010113          	addi	sp,sp,-64
    1f10:	02a12623          	sw	a0,44(sp)
d:\PDS\test\Sparrow_RISC-V\MRS\obj/../app/trap_handler.c:68
    csr_msprint_string("PLIC5_Hdler\n");
    1f14:	20000537          	lui	a0,0x20000
    1f18:	1b050513          	addi	a0,a0,432 # 200001b0 <_data+0x1b0>
d:\PDS\test\Sparrow_RISC-V\MRS\obj/../app/trap_handler.c:67
{
    1f1c:	02112e23          	sw	ra,60(sp)
    1f20:	02512c23          	sw	t0,56(sp)
    1f24:	02612a23          	sw	t1,52(sp)
    1f28:	02712823          	sw	t2,48(sp)
    1f2c:	02b12423          	sw	a1,40(sp)
    1f30:	02c12223          	sw	a2,36(sp)
    1f34:	02d12023          	sw	a3,32(sp)
    1f38:	00e12e23          	sw	a4,28(sp)
    1f3c:	00f12c23          	sw	a5,24(sp)
    1f40:	01012a23          	sw	a6,20(sp)
    1f44:	01112823          	sw	a7,16(sp)
    1f48:	01c12623          	sw	t3,12(sp)
    1f4c:	01d12423          	sw	t4,8(sp)
    1f50:	01e12223          	sw	t5,4(sp)
    1f54:	01f12023          	sw	t6,0(sp)
d:\PDS\test\Sparrow_RISC-V\MRS\obj/../app/trap_handler.c:68
    csr_msprint_string("PLIC5_Hdler\n");
    1f58:	b38fe0ef          	jal	ra,290 <csr_msprint_string>
d:\PDS\test\Sparrow_RISC-V\MRS\obj/../app/trap_handler.c:69
}
    1f5c:	03c12083          	lw	ra,60(sp)
    1f60:	03812283          	lw	t0,56(sp)
    1f64:	03412303          	lw	t1,52(sp)
    1f68:	03012383          	lw	t2,48(sp)
    1f6c:	02c12503          	lw	a0,44(sp)
    1f70:	02812583          	lw	a1,40(sp)
    1f74:	02412603          	lw	a2,36(sp)
    1f78:	02012683          	lw	a3,32(sp)
    1f7c:	01c12703          	lw	a4,28(sp)
    1f80:	01812783          	lw	a5,24(sp)
    1f84:	01412803          	lw	a6,20(sp)
    1f88:	01012883          	lw	a7,16(sp)
    1f8c:	00c12e03          	lw	t3,12(sp)
    1f90:	00812e83          	lw	t4,8(sp)
    1f94:	00412f03          	lw	t5,4(sp)
    1f98:	00012f83          	lw	t6,0(sp)
    1f9c:	04010113          	addi	sp,sp,64
    1fa0:	30200073          	mret

00001fa4 <PLIC6_UART0_RX_Handler>:
PLIC6_UART0_RX_Handler():
d:\PDS\test\Sparrow_RISC-V\MRS\obj/../app/trap_handler.c:73

void PLIC6_UART0_RX_Handler()   __attribute__((interrupt("machine")));
void PLIC6_UART0_RX_Handler()
{
    1fa4:	fc010113          	addi	sp,sp,-64
    1fa8:	02a12623          	sw	a0,44(sp)
d:\PDS\test\Sparrow_RISC-V\MRS\obj/../app/trap_handler.c:74
    csr_msprint_string("PLIC6_Hdler\n");
    1fac:	20000537          	lui	a0,0x20000
    1fb0:	1c050513          	addi	a0,a0,448 # 200001c0 <_data+0x1c0>
d:\PDS\test\Sparrow_RISC-V\MRS\obj/../app/trap_handler.c:73
{
    1fb4:	02112e23          	sw	ra,60(sp)
    1fb8:	02512c23          	sw	t0,56(sp)
    1fbc:	02612a23          	sw	t1,52(sp)
    1fc0:	02712823          	sw	t2,48(sp)
    1fc4:	02b12423          	sw	a1,40(sp)
    1fc8:	02c12223          	sw	a2,36(sp)
    1fcc:	02d12023          	sw	a3,32(sp)
    1fd0:	00e12e23          	sw	a4,28(sp)
    1fd4:	00f12c23          	sw	a5,24(sp)
    1fd8:	01012a23          	sw	a6,20(sp)
    1fdc:	01112823          	sw	a7,16(sp)
    1fe0:	01c12623          	sw	t3,12(sp)
    1fe4:	01d12423          	sw	t4,8(sp)
    1fe8:	01e12223          	sw	t5,4(sp)
    1fec:	01f12023          	sw	t6,0(sp)
d:\PDS\test\Sparrow_RISC-V\MRS\obj/../app/trap_handler.c:74
    csr_msprint_string("PLIC6_Hdler\n");
    1ff0:	aa0fe0ef          	jal	ra,290 <csr_msprint_string>
d:\PDS\test\Sparrow_RISC-V\MRS\obj/../app/trap_handler.c:75
}
    1ff4:	03c12083          	lw	ra,60(sp)
    1ff8:	03812283          	lw	t0,56(sp)
    1ffc:	03412303          	lw	t1,52(sp)
    2000:	03012383          	lw	t2,48(sp)
    2004:	02c12503          	lw	a0,44(sp)
    2008:	02812583          	lw	a1,40(sp)
    200c:	02412603          	lw	a2,36(sp)
    2010:	02012683          	lw	a3,32(sp)
    2014:	01c12703          	lw	a4,28(sp)
    2018:	01812783          	lw	a5,24(sp)
    201c:	01412803          	lw	a6,20(sp)
    2020:	01012883          	lw	a7,16(sp)
    2024:	00c12e03          	lw	t3,12(sp)
    2028:	00812e83          	lw	t4,8(sp)
    202c:	00412f03          	lw	t5,4(sp)
    2030:	00012f83          	lw	t6,0(sp)
    2034:	04010113          	addi	sp,sp,64
    2038:	30200073          	mret

0000203c <PLIC7_UART1_TX_Handler>:
PLIC7_UART1_TX_Handler():
d:\PDS\test\Sparrow_RISC-V\MRS\obj/../app/trap_handler.c:79

void PLIC7_UART1_TX_Handler()   __attribute__((interrupt("machine")));
void PLIC7_UART1_TX_Handler()
{
    203c:	fc010113          	addi	sp,sp,-64
    2040:	02a12623          	sw	a0,44(sp)
d:\PDS\test\Sparrow_RISC-V\MRS\obj/../app/trap_handler.c:80
    csr_msprint_string("PLIC7_Hdler\n");
    2044:	20000537          	lui	a0,0x20000
    2048:	1d050513          	addi	a0,a0,464 # 200001d0 <_data+0x1d0>
d:\PDS\test\Sparrow_RISC-V\MRS\obj/../app/trap_handler.c:79
{
    204c:	02112e23          	sw	ra,60(sp)
    2050:	02512c23          	sw	t0,56(sp)
    2054:	02612a23          	sw	t1,52(sp)
    2058:	02712823          	sw	t2,48(sp)
    205c:	02b12423          	sw	a1,40(sp)
    2060:	02c12223          	sw	a2,36(sp)
    2064:	02d12023          	sw	a3,32(sp)
    2068:	00e12e23          	sw	a4,28(sp)
    206c:	00f12c23          	sw	a5,24(sp)
    2070:	01012a23          	sw	a6,20(sp)
    2074:	01112823          	sw	a7,16(sp)
    2078:	01c12623          	sw	t3,12(sp)
    207c:	01d12423          	sw	t4,8(sp)
    2080:	01e12223          	sw	t5,4(sp)
    2084:	01f12023          	sw	t6,0(sp)
d:\PDS\test\Sparrow_RISC-V\MRS\obj/../app/trap_handler.c:80
    csr_msprint_string("PLIC7_Hdler\n");
    2088:	a08fe0ef          	jal	ra,290 <csr_msprint_string>
d:\PDS\test\Sparrow_RISC-V\MRS\obj/../app/trap_handler.c:81
}
    208c:	03c12083          	lw	ra,60(sp)
    2090:	03812283          	lw	t0,56(sp)
    2094:	03412303          	lw	t1,52(sp)
    2098:	03012383          	lw	t2,48(sp)
    209c:	02c12503          	lw	a0,44(sp)
    20a0:	02812583          	lw	a1,40(sp)
    20a4:	02412603          	lw	a2,36(sp)
    20a8:	02012683          	lw	a3,32(sp)
    20ac:	01c12703          	lw	a4,28(sp)
    20b0:	01812783          	lw	a5,24(sp)
    20b4:	01412803          	lw	a6,20(sp)
    20b8:	01012883          	lw	a7,16(sp)
    20bc:	00c12e03          	lw	t3,12(sp)
    20c0:	00812e83          	lw	t4,8(sp)
    20c4:	00412f03          	lw	t5,4(sp)
    20c8:	00012f83          	lw	t6,0(sp)
    20cc:	04010113          	addi	sp,sp,64
    20d0:	30200073          	mret

000020d4 <PLIC8_UART1_RX_Handler>:
PLIC8_UART1_RX_Handler():
d:\PDS\test\Sparrow_RISC-V\MRS\obj/../app/trap_handler.c:85

void PLIC8_UART1_RX_Handler()   __attribute__((interrupt("machine")));
void PLIC8_UART1_RX_Handler()
{
    20d4:	fc010113          	addi	sp,sp,-64
    20d8:	02a12623          	sw	a0,44(sp)
d:\PDS\test\Sparrow_RISC-V\MRS\obj/../app/trap_handler.c:86
    csr_msprint_string("PLIC8_Hdler\n");
    20dc:	20000537          	lui	a0,0x20000
    20e0:	1e050513          	addi	a0,a0,480 # 200001e0 <_data+0x1e0>
d:\PDS\test\Sparrow_RISC-V\MRS\obj/../app/trap_handler.c:85
{
    20e4:	02112e23          	sw	ra,60(sp)
    20e8:	02512c23          	sw	t0,56(sp)
    20ec:	02612a23          	sw	t1,52(sp)
    20f0:	02712823          	sw	t2,48(sp)
    20f4:	02b12423          	sw	a1,40(sp)
    20f8:	02c12223          	sw	a2,36(sp)
    20fc:	02d12023          	sw	a3,32(sp)
    2100:	00e12e23          	sw	a4,28(sp)
    2104:	00f12c23          	sw	a5,24(sp)
    2108:	01012a23          	sw	a6,20(sp)
    210c:	01112823          	sw	a7,16(sp)
    2110:	01c12623          	sw	t3,12(sp)
    2114:	01d12423          	sw	t4,8(sp)
    2118:	01e12223          	sw	t5,4(sp)
    211c:	01f12023          	sw	t6,0(sp)
d:\PDS\test\Sparrow_RISC-V\MRS\obj/../app/trap_handler.c:86
    csr_msprint_string("PLIC8_Hdler\n");
    2120:	970fe0ef          	jal	ra,290 <csr_msprint_string>
d:\PDS\test\Sparrow_RISC-V\MRS\obj/../app/trap_handler.c:87
}
    2124:	03c12083          	lw	ra,60(sp)
    2128:	03812283          	lw	t0,56(sp)
    212c:	03412303          	lw	t1,52(sp)
    2130:	03012383          	lw	t2,48(sp)
    2134:	02c12503          	lw	a0,44(sp)
    2138:	02812583          	lw	a1,40(sp)
    213c:	02412603          	lw	a2,36(sp)
    2140:	02012683          	lw	a3,32(sp)
    2144:	01c12703          	lw	a4,28(sp)
    2148:	01812783          	lw	a5,24(sp)
    214c:	01412803          	lw	a6,20(sp)
    2150:	01012883          	lw	a7,16(sp)
    2154:	00c12e03          	lw	t3,12(sp)
    2158:	00812e83          	lw	t4,8(sp)
    215c:	00412f03          	lw	t5,4(sp)
    2160:	00012f83          	lw	t6,0(sp)
    2164:	04010113          	addi	sp,sp,64
    2168:	30200073          	mret

0000216c <PLIC9_TIMER0_OF_Handler>:
PLIC9_TIMER0_OF_Handler():
d:\PDS\test\Sparrow_RISC-V\MRS\obj/../app/trap_handler.c:91

void PLIC9_TIMER0_OF_Handler()  __attribute__((interrupt("machine")));
void PLIC9_TIMER0_OF_Handler()
{
    216c:	fc010113          	addi	sp,sp,-64
    2170:	02a12623          	sw	a0,44(sp)
d:\PDS\test\Sparrow_RISC-V\MRS\obj/../app/trap_handler.c:92
    csr_msprint_string("PLIC9_Hdler\n");
    2174:	20000537          	lui	a0,0x20000
    2178:	1f050513          	addi	a0,a0,496 # 200001f0 <_data+0x1f0>
d:\PDS\test\Sparrow_RISC-V\MRS\obj/../app/trap_handler.c:91
{
    217c:	02112e23          	sw	ra,60(sp)
    2180:	02512c23          	sw	t0,56(sp)
    2184:	02612a23          	sw	t1,52(sp)
    2188:	02712823          	sw	t2,48(sp)
    218c:	02b12423          	sw	a1,40(sp)
    2190:	02c12223          	sw	a2,36(sp)
    2194:	02d12023          	sw	a3,32(sp)
    2198:	00e12e23          	sw	a4,28(sp)
    219c:	00f12c23          	sw	a5,24(sp)
    21a0:	01012a23          	sw	a6,20(sp)
    21a4:	01112823          	sw	a7,16(sp)
    21a8:	01c12623          	sw	t3,12(sp)
    21ac:	01d12423          	sw	t4,8(sp)
    21b0:	01e12223          	sw	t5,4(sp)
    21b4:	01f12023          	sw	t6,0(sp)
d:\PDS\test\Sparrow_RISC-V\MRS\obj/../app/trap_handler.c:92
    csr_msprint_string("PLIC9_Hdler\n");
    21b8:	8d8fe0ef          	jal	ra,290 <csr_msprint_string>
d:\PDS\test\Sparrow_RISC-V\MRS\obj/../app/trap_handler.c:93
}
    21bc:	03c12083          	lw	ra,60(sp)
    21c0:	03812283          	lw	t0,56(sp)
    21c4:	03412303          	lw	t1,52(sp)
    21c8:	03012383          	lw	t2,48(sp)
    21cc:	02c12503          	lw	a0,44(sp)
    21d0:	02812583          	lw	a1,40(sp)
    21d4:	02412603          	lw	a2,36(sp)
    21d8:	02012683          	lw	a3,32(sp)
    21dc:	01c12703          	lw	a4,28(sp)
    21e0:	01812783          	lw	a5,24(sp)
    21e4:	01412803          	lw	a6,20(sp)
    21e8:	01012883          	lw	a7,16(sp)
    21ec:	00c12e03          	lw	t3,12(sp)
    21f0:	00812e83          	lw	t4,8(sp)
    21f4:	00412f03          	lw	t5,4(sp)
    21f8:	00012f83          	lw	t6,0(sp)
    21fc:	04010113          	addi	sp,sp,64
    2200:	30200073          	mret

00002204 <PLIC10_SPI0_END_Handler>:
PLIC10_SPI0_END_Handler():
d:\PDS\test\Sparrow_RISC-V\MRS\obj/../app/trap_handler.c:97

void PLIC10_SPI0_END_Handler()  __attribute__((interrupt("machine")));
void PLIC10_SPI0_END_Handler()
{
    2204:	fc010113          	addi	sp,sp,-64
    2208:	02a12623          	sw	a0,44(sp)
d:\PDS\test\Sparrow_RISC-V\MRS\obj/../app/trap_handler.c:98
    csr_msprint_string("PLIC10_Hdler\n");
    220c:	20000537          	lui	a0,0x20000
    2210:	20050513          	addi	a0,a0,512 # 20000200 <_data+0x200>
d:\PDS\test\Sparrow_RISC-V\MRS\obj/../app/trap_handler.c:97
{
    2214:	02112e23          	sw	ra,60(sp)
    2218:	02512c23          	sw	t0,56(sp)
    221c:	02612a23          	sw	t1,52(sp)
    2220:	02712823          	sw	t2,48(sp)
    2224:	02b12423          	sw	a1,40(sp)
    2228:	02c12223          	sw	a2,36(sp)
    222c:	02d12023          	sw	a3,32(sp)
    2230:	00e12e23          	sw	a4,28(sp)
    2234:	00f12c23          	sw	a5,24(sp)
    2238:	01012a23          	sw	a6,20(sp)
    223c:	01112823          	sw	a7,16(sp)
    2240:	01c12623          	sw	t3,12(sp)
    2244:	01d12423          	sw	t4,8(sp)
    2248:	01e12223          	sw	t5,4(sp)
    224c:	01f12023          	sw	t6,0(sp)
d:\PDS\test\Sparrow_RISC-V\MRS\obj/../app/trap_handler.c:98
    csr_msprint_string("PLIC10_Hdler\n");
    2250:	840fe0ef          	jal	ra,290 <csr_msprint_string>
d:\PDS\test\Sparrow_RISC-V\MRS\obj/../app/trap_handler.c:99
}
    2254:	03c12083          	lw	ra,60(sp)
    2258:	03812283          	lw	t0,56(sp)
    225c:	03412303          	lw	t1,52(sp)
    2260:	03012383          	lw	t2,48(sp)
    2264:	02c12503          	lw	a0,44(sp)
    2268:	02812583          	lw	a1,40(sp)
    226c:	02412603          	lw	a2,36(sp)
    2270:	02012683          	lw	a3,32(sp)
    2274:	01c12703          	lw	a4,28(sp)
    2278:	01812783          	lw	a5,24(sp)
    227c:	01412803          	lw	a6,20(sp)
    2280:	01012883          	lw	a7,16(sp)
    2284:	00c12e03          	lw	t3,12(sp)
    2288:	00812e83          	lw	t4,8(sp)
    228c:	00412f03          	lw	t5,4(sp)
    2290:	00012f83          	lw	t6,0(sp)
    2294:	04010113          	addi	sp,sp,64
    2298:	30200073          	mret

0000229c <__udivdi3>:
__udivdi3():
    229c:	00060813          	mv	a6,a2
    22a0:	00050893          	mv	a7,a0
    22a4:	00058713          	mv	a4,a1
    22a8:	0e069263          	bnez	a3,238c <__udivdi3+0xf0>
    22ac:	14c5f263          	bgeu	a1,a2,23f0 <__udivdi3+0x154>
    22b0:	000107b7          	lui	a5,0x10
    22b4:	20f66263          	bltu	a2,a5,24b8 <__udivdi3+0x21c>
    22b8:	010007b7          	lui	a5,0x1000
    22bc:	00f637b3          	sltu	a5,a2,a5
    22c0:	40f007b3          	neg	a5,a5
    22c4:	ff87f793          	andi	a5,a5,-8
    22c8:	01878793          	addi	a5,a5,24 # 1000018 <_app_prog_size+0xfc0018>
    22cc:	00f65333          	srl	t1,a2,a5
    22d0:	1fffe697          	auipc	a3,0x1fffe
    22d4:	f4068693          	addi	a3,a3,-192 # 20000210 <__clz_tab>
    22d8:	006686b3          	add	a3,a3,t1
    22dc:	0006c683          	lbu	a3,0(a3)
    22e0:	02000313          	li	t1,32
    22e4:	00f687b3          	add	a5,a3,a5
    22e8:	40f306b3          	sub	a3,t1,a5
    22ec:	00f30c63          	beq	t1,a5,2304 <__udivdi3+0x68>
    22f0:	00d59733          	sll	a4,a1,a3
    22f4:	00f557b3          	srl	a5,a0,a5
    22f8:	00d61833          	sll	a6,a2,a3
    22fc:	00e7e733          	or	a4,a5,a4
    2300:	00d518b3          	sll	a7,a0,a3
    2304:	01085613          	srli	a2,a6,0x10
    2308:	02c75533          	divu	a0,a4,a2
    230c:	01081693          	slli	a3,a6,0x10
    2310:	0106d693          	srli	a3,a3,0x10
    2314:	0108d793          	srli	a5,a7,0x10
    2318:	02c77733          	remu	a4,a4,a2
    231c:	02a685b3          	mul	a1,a3,a0
    2320:	01071713          	slli	a4,a4,0x10
    2324:	00e7e7b3          	or	a5,a5,a4
    2328:	00b7fc63          	bgeu	a5,a1,2340 <__udivdi3+0xa4>
    232c:	00f807b3          	add	a5,a6,a5
    2330:	fff50713          	addi	a4,a0,-1
    2334:	0107e463          	bltu	a5,a6,233c <__udivdi3+0xa0>
    2338:	40b7e263          	bltu	a5,a1,273c <__udivdi3+0x4a0>
    233c:	00070513          	mv	a0,a4
    2340:	40b787b3          	sub	a5,a5,a1
    2344:	02c7d733          	divu	a4,a5,a2
    2348:	01089893          	slli	a7,a7,0x10
    234c:	0108d893          	srli	a7,a7,0x10
    2350:	02c7f7b3          	remu	a5,a5,a2
    2354:	02e686b3          	mul	a3,a3,a4
    2358:	01079793          	slli	a5,a5,0x10
    235c:	00f8e8b3          	or	a7,a7,a5
    2360:	00d8fe63          	bgeu	a7,a3,237c <__udivdi3+0xe0>
    2364:	011808b3          	add	a7,a6,a7
    2368:	fff70793          	addi	a5,a4,-1
    236c:	0108e663          	bltu	a7,a6,2378 <__udivdi3+0xdc>
    2370:	ffe70713          	addi	a4,a4,-2
    2374:	00d8e463          	bltu	a7,a3,237c <__udivdi3+0xe0>
    2378:	00078713          	mv	a4,a5
    237c:	01051513          	slli	a0,a0,0x10
    2380:	00e56533          	or	a0,a0,a4
    2384:	00000593          	li	a1,0
    2388:	00008067          	ret
    238c:	00d5f863          	bgeu	a1,a3,239c <__udivdi3+0x100>
    2390:	00000593          	li	a1,0
    2394:	00000513          	li	a0,0
    2398:	00008067          	ret
    239c:	000107b7          	lui	a5,0x10
    23a0:	1ef6ea63          	bltu	a3,a5,2594 <__udivdi3+0x2f8>
    23a4:	010007b7          	lui	a5,0x1000
    23a8:	00f6b7b3          	sltu	a5,a3,a5
    23ac:	40f007b3          	neg	a5,a5
    23b0:	ff87f793          	andi	a5,a5,-8
    23b4:	01878793          	addi	a5,a5,24 # 1000018 <_app_prog_size+0xfc0018>
    23b8:	00f6d833          	srl	a6,a3,a5
    23bc:	1fffe717          	auipc	a4,0x1fffe
    23c0:	e5470713          	addi	a4,a4,-428 # 20000210 <__clz_tab>
    23c4:	01070733          	add	a4,a4,a6
    23c8:	00074703          	lbu	a4,0(a4)
    23cc:	02000893          	li	a7,32
    23d0:	00f70733          	add	a4,a4,a5
    23d4:	40e88833          	sub	a6,a7,a4
    23d8:	1ee89663          	bne	a7,a4,25c4 <__udivdi3+0x328>
    23dc:	32b6e463          	bltu	a3,a1,2704 <__udivdi3+0x468>
    23e0:	00c53533          	sltu	a0,a0,a2
    23e4:	00154513          	xori	a0,a0,1
    23e8:	00000593          	li	a1,0
    23ec:	00008067          	ret
    23f0:	0c060c63          	beqz	a2,24c8 <__udivdi3+0x22c>
    23f4:	000107b7          	lui	a5,0x10
    23f8:	2ef67c63          	bgeu	a2,a5,26f0 <__udivdi3+0x454>
    23fc:	10063713          	sltiu	a4,a2,256
    2400:	00174713          	xori	a4,a4,1
    2404:	00371713          	slli	a4,a4,0x3
    2408:	00e656b3          	srl	a3,a2,a4
    240c:	1fffe797          	auipc	a5,0x1fffe
    2410:	e0478793          	addi	a5,a5,-508 # 20000210 <__clz_tab>
    2414:	00d787b3          	add	a5,a5,a3
    2418:	0007c783          	lbu	a5,0(a5)
    241c:	02000693          	li	a3,32
    2420:	00e787b3          	add	a5,a5,a4
    2424:	40f68eb3          	sub	t4,a3,a5
    2428:	0cf69463          	bne	a3,a5,24f0 <__udivdi3+0x254>
    242c:	40c587b3          	sub	a5,a1,a2
    2430:	01065693          	srli	a3,a2,0x10
    2434:	01061613          	slli	a2,a2,0x10
    2438:	01065613          	srli	a2,a2,0x10
    243c:	00100593          	li	a1,1
    2440:	02d7d533          	divu	a0,a5,a3
    2444:	0108d713          	srli	a4,a7,0x10
    2448:	02d7f7b3          	remu	a5,a5,a3
    244c:	02c50333          	mul	t1,a0,a2
    2450:	01079793          	slli	a5,a5,0x10
    2454:	00f767b3          	or	a5,a4,a5
    2458:	0067fc63          	bgeu	a5,t1,2470 <__udivdi3+0x1d4>
    245c:	00f807b3          	add	a5,a6,a5
    2460:	fff50713          	addi	a4,a0,-1
    2464:	0107e463          	bltu	a5,a6,246c <__udivdi3+0x1d0>
    2468:	2c67e463          	bltu	a5,t1,2730 <__udivdi3+0x494>
    246c:	00070513          	mv	a0,a4
    2470:	406787b3          	sub	a5,a5,t1
    2474:	02d7d733          	divu	a4,a5,a3
    2478:	01089893          	slli	a7,a7,0x10
    247c:	0108d893          	srli	a7,a7,0x10
    2480:	02d7f7b3          	remu	a5,a5,a3
    2484:	02c70633          	mul	a2,a4,a2
    2488:	01079793          	slli	a5,a5,0x10
    248c:	00f8e8b3          	or	a7,a7,a5
    2490:	00c8fe63          	bgeu	a7,a2,24ac <__udivdi3+0x210>
    2494:	011808b3          	add	a7,a6,a7
    2498:	fff70793          	addi	a5,a4,-1
    249c:	0108e663          	bltu	a7,a6,24a8 <__udivdi3+0x20c>
    24a0:	ffe70713          	addi	a4,a4,-2
    24a4:	00c8e463          	bltu	a7,a2,24ac <__udivdi3+0x210>
    24a8:	00078713          	mv	a4,a5
    24ac:	01051513          	slli	a0,a0,0x10
    24b0:	00e56533          	or	a0,a0,a4
    24b4:	00008067          	ret
    24b8:	10063793          	sltiu	a5,a2,256
    24bc:	0017c793          	xori	a5,a5,1
    24c0:	00379793          	slli	a5,a5,0x3
    24c4:	e09ff06f          	j	22cc <__udivdi3+0x30>
    24c8:	00000693          	li	a3,0
    24cc:	1fffe797          	auipc	a5,0x1fffe
    24d0:	d4478793          	addi	a5,a5,-700 # 20000210 <__clz_tab>
    24d4:	00d787b3          	add	a5,a5,a3
    24d8:	0007c783          	lbu	a5,0(a5)
    24dc:	00000713          	li	a4,0
    24e0:	02000693          	li	a3,32
    24e4:	00e787b3          	add	a5,a5,a4
    24e8:	40f68eb3          	sub	t4,a3,a5
    24ec:	f4f680e3          	beq	a3,a5,242c <__udivdi3+0x190>
    24f0:	01d61833          	sll	a6,a2,t4
    24f4:	00f5d333          	srl	t1,a1,a5
    24f8:	01085693          	srli	a3,a6,0x10
    24fc:	02d35e33          	divu	t3,t1,a3
    2500:	01081613          	slli	a2,a6,0x10
    2504:	01d595b3          	sll	a1,a1,t4
    2508:	01065613          	srli	a2,a2,0x10
    250c:	00f557b3          	srl	a5,a0,a5
    2510:	00b7e7b3          	or	a5,a5,a1
    2514:	0107d713          	srli	a4,a5,0x10
    2518:	01d518b3          	sll	a7,a0,t4
    251c:	02d37333          	remu	t1,t1,a3
    2520:	03c605b3          	mul	a1,a2,t3
    2524:	01031313          	slli	t1,t1,0x10
    2528:	00676733          	or	a4,a4,t1
    252c:	00b77e63          	bgeu	a4,a1,2548 <__udivdi3+0x2ac>
    2530:	00e80733          	add	a4,a6,a4
    2534:	fffe0513          	addi	a0,t3,-1
    2538:	1f076463          	bltu	a4,a6,2720 <__udivdi3+0x484>
    253c:	1eb77263          	bgeu	a4,a1,2720 <__udivdi3+0x484>
    2540:	ffee0e13          	addi	t3,t3,-2
    2544:	01070733          	add	a4,a4,a6
    2548:	40b70733          	sub	a4,a4,a1
    254c:	02d75533          	divu	a0,a4,a3
    2550:	01079793          	slli	a5,a5,0x10
    2554:	0107d793          	srli	a5,a5,0x10
    2558:	02d77733          	remu	a4,a4,a3
    255c:	02a60333          	mul	t1,a2,a0
    2560:	01071713          	slli	a4,a4,0x10
    2564:	00e7e7b3          	or	a5,a5,a4
    2568:	0067fe63          	bgeu	a5,t1,2584 <__udivdi3+0x2e8>
    256c:	00f807b3          	add	a5,a6,a5
    2570:	fff50713          	addi	a4,a0,-1
    2574:	1907ee63          	bltu	a5,a6,2710 <__udivdi3+0x474>
    2578:	1867fc63          	bgeu	a5,t1,2710 <__udivdi3+0x474>
    257c:	ffe50513          	addi	a0,a0,-2
    2580:	010787b3          	add	a5,a5,a6
    2584:	010e1593          	slli	a1,t3,0x10
    2588:	406787b3          	sub	a5,a5,t1
    258c:	00a5e5b3          	or	a1,a1,a0
    2590:	eb1ff06f          	j	2440 <__udivdi3+0x1a4>
    2594:	1006b793          	sltiu	a5,a3,256
    2598:	0017c793          	xori	a5,a5,1
    259c:	00379793          	slli	a5,a5,0x3
    25a0:	00f6d833          	srl	a6,a3,a5
    25a4:	1fffe717          	auipc	a4,0x1fffe
    25a8:	c6c70713          	addi	a4,a4,-916 # 20000210 <__clz_tab>
    25ac:	01070733          	add	a4,a4,a6
    25b0:	00074703          	lbu	a4,0(a4)
    25b4:	02000893          	li	a7,32
    25b8:	00f70733          	add	a4,a4,a5
    25bc:	40e88833          	sub	a6,a7,a4
    25c0:	e0e88ee3          	beq	a7,a4,23dc <__udivdi3+0x140>
    25c4:	00e65e33          	srl	t3,a2,a4
    25c8:	010696b3          	sll	a3,a3,a6
    25cc:	00de6e33          	or	t3,t3,a3
    25d0:	00e5d8b3          	srl	a7,a1,a4
    25d4:	010e5e93          	srli	t4,t3,0x10
    25d8:	03d8d7b3          	divu	a5,a7,t4
    25dc:	010e1313          	slli	t1,t3,0x10
    25e0:	010595b3          	sll	a1,a1,a6
    25e4:	01035313          	srli	t1,t1,0x10
    25e8:	00e55733          	srl	a4,a0,a4
    25ec:	00b76733          	or	a4,a4,a1
    25f0:	01075693          	srli	a3,a4,0x10
    25f4:	01061633          	sll	a2,a2,a6
    25f8:	03d8f8b3          	remu	a7,a7,t4
    25fc:	02f305b3          	mul	a1,t1,a5
    2600:	01089893          	slli	a7,a7,0x10
    2604:	0116e6b3          	or	a3,a3,a7
    2608:	00b6fe63          	bgeu	a3,a1,2624 <__udivdi3+0x388>
    260c:	00de06b3          	add	a3,t3,a3
    2610:	fff78893          	addi	a7,a5,-1
    2614:	11c6ea63          	bltu	a3,t3,2728 <__udivdi3+0x48c>
    2618:	10b6f863          	bgeu	a3,a1,2728 <__udivdi3+0x48c>
    261c:	ffe78793          	addi	a5,a5,-2
    2620:	01c686b3          	add	a3,a3,t3
    2624:	40b686b3          	sub	a3,a3,a1
    2628:	03d6d5b3          	divu	a1,a3,t4
    262c:	01071713          	slli	a4,a4,0x10
    2630:	01075713          	srli	a4,a4,0x10
    2634:	03d6f6b3          	remu	a3,a3,t4
    2638:	02b308b3          	mul	a7,t1,a1
    263c:	01069693          	slli	a3,a3,0x10
    2640:	00d76733          	or	a4,a4,a3
    2644:	01177e63          	bgeu	a4,a7,2660 <__udivdi3+0x3c4>
    2648:	00ee0733          	add	a4,t3,a4
    264c:	fff58693          	addi	a3,a1,-1
    2650:	0dc76463          	bltu	a4,t3,2718 <__udivdi3+0x47c>
    2654:	0d177263          	bgeu	a4,a7,2718 <__udivdi3+0x47c>
    2658:	ffe58593          	addi	a1,a1,-2
    265c:	01c70733          	add	a4,a4,t3
    2660:	01079793          	slli	a5,a5,0x10
    2664:	00010eb7          	lui	t4,0x10
    2668:	00b7e7b3          	or	a5,a5,a1
    266c:	fffe8693          	addi	a3,t4,-1 # ffff <__stack_size+0xbfff>
    2670:	00d7f5b3          	and	a1,a5,a3
    2674:	0107d313          	srli	t1,a5,0x10
    2678:	00d676b3          	and	a3,a2,a3
    267c:	01065613          	srli	a2,a2,0x10
    2680:	02d58e33          	mul	t3,a1,a3
    2684:	41170733          	sub	a4,a4,a7
    2688:	02d306b3          	mul	a3,t1,a3
    268c:	010e5893          	srli	a7,t3,0x10
    2690:	02c585b3          	mul	a1,a1,a2
    2694:	00d585b3          	add	a1,a1,a3
    2698:	00b885b3          	add	a1,a7,a1
    269c:	02c30333          	mul	t1,t1,a2
    26a0:	00d5f463          	bgeu	a1,a3,26a8 <__udivdi3+0x40c>
    26a4:	01d30333          	add	t1,t1,t4
    26a8:	0105d693          	srli	a3,a1,0x10
    26ac:	006686b3          	add	a3,a3,t1
    26b0:	02d76a63          	bltu	a4,a3,26e4 <__udivdi3+0x448>
    26b4:	00d70863          	beq	a4,a3,26c4 <__udivdi3+0x428>
    26b8:	00078513          	mv	a0,a5
    26bc:	00000593          	li	a1,0
    26c0:	00008067          	ret
    26c4:	000106b7          	lui	a3,0x10
    26c8:	fff68693          	addi	a3,a3,-1 # ffff <__stack_size+0xbfff>
    26cc:	00d5f733          	and	a4,a1,a3
    26d0:	01071713          	slli	a4,a4,0x10
    26d4:	00de7e33          	and	t3,t3,a3
    26d8:	01051533          	sll	a0,a0,a6
    26dc:	01c70733          	add	a4,a4,t3
    26e0:	fce57ce3          	bgeu	a0,a4,26b8 <__udivdi3+0x41c>
    26e4:	fff78513          	addi	a0,a5,-1
    26e8:	00000593          	li	a1,0
    26ec:	00008067          	ret
    26f0:	010007b7          	lui	a5,0x1000
    26f4:	04f67a63          	bgeu	a2,a5,2748 <__udivdi3+0x4ac>
    26f8:	01065693          	srli	a3,a2,0x10
    26fc:	01000713          	li	a4,16
    2700:	d0dff06f          	j	240c <__udivdi3+0x170>
    2704:	00000593          	li	a1,0
    2708:	00100513          	li	a0,1
    270c:	00008067          	ret
    2710:	00070513          	mv	a0,a4
    2714:	e71ff06f          	j	2584 <__udivdi3+0x2e8>
    2718:	00068593          	mv	a1,a3
    271c:	f45ff06f          	j	2660 <__udivdi3+0x3c4>
    2720:	00050e13          	mv	t3,a0
    2724:	e25ff06f          	j	2548 <__udivdi3+0x2ac>
    2728:	00088793          	mv	a5,a7
    272c:	ef9ff06f          	j	2624 <__udivdi3+0x388>
    2730:	ffe50513          	addi	a0,a0,-2
    2734:	010787b3          	add	a5,a5,a6
    2738:	d39ff06f          	j	2470 <__udivdi3+0x1d4>
    273c:	ffe50513          	addi	a0,a0,-2
    2740:	010787b3          	add	a5,a5,a6
    2744:	bfdff06f          	j	2340 <__udivdi3+0xa4>
    2748:	01865693          	srli	a3,a2,0x18
    274c:	01800713          	li	a4,24
    2750:	cbdff06f          	j	240c <__udivdi3+0x170>

00002754 <__umoddi3>:
__umoddi3():
    2754:	00060813          	mv	a6,a2
    2758:	00050893          	mv	a7,a0
    275c:	00058313          	mv	t1,a1
    2760:	00058713          	mv	a4,a1
    2764:	0c069a63          	bnez	a3,2838 <__umoddi3+0xe4>
    2768:	12c5fe63          	bgeu	a1,a2,28a4 <__umoddi3+0x150>
    276c:	000107b7          	lui	a5,0x10
    2770:	1ef66063          	bltu	a2,a5,2950 <__umoddi3+0x1fc>
    2774:	010007b7          	lui	a5,0x1000
    2778:	00f637b3          	sltu	a5,a2,a5
    277c:	40f007b3          	neg	a5,a5
    2780:	ff87f793          	andi	a5,a5,-8
    2784:	01878793          	addi	a5,a5,24 # 1000018 <_app_prog_size+0xfc0018>
    2788:	00f65333          	srl	t1,a2,a5
    278c:	1fffe697          	auipc	a3,0x1fffe
    2790:	a8468693          	addi	a3,a3,-1404 # 20000210 <__clz_tab>
    2794:	006686b3          	add	a3,a3,t1
    2798:	0006c683          	lbu	a3,0(a3)
    279c:	02000313          	li	t1,32
    27a0:	00f687b3          	add	a5,a3,a5
    27a4:	40f306b3          	sub	a3,t1,a5
    27a8:	00f30c63          	beq	t1,a5,27c0 <__umoddi3+0x6c>
    27ac:	00d59733          	sll	a4,a1,a3
    27b0:	00f557b3          	srl	a5,a0,a5
    27b4:	00d61833          	sll	a6,a2,a3
    27b8:	00e7e733          	or	a4,a5,a4
    27bc:	00d518b3          	sll	a7,a0,a3
    27c0:	01085593          	srli	a1,a6,0x10
    27c4:	02b75633          	divu	a2,a4,a1
    27c8:	01081313          	slli	t1,a6,0x10
    27cc:	01035313          	srli	t1,t1,0x10
    27d0:	0108d793          	srli	a5,a7,0x10
    27d4:	02b77733          	remu	a4,a4,a1
    27d8:	02660633          	mul	a2,a2,t1
    27dc:	01071713          	slli	a4,a4,0x10
    27e0:	00e7e7b3          	or	a5,a5,a4
    27e4:	00c7f863          	bgeu	a5,a2,27f4 <__umoddi3+0xa0>
    27e8:	00f807b3          	add	a5,a6,a5
    27ec:	0107e463          	bltu	a5,a6,27f4 <__umoddi3+0xa0>
    27f0:	3cc7e463          	bltu	a5,a2,2bb8 <__umoddi3+0x464>
    27f4:	40c787b3          	sub	a5,a5,a2
    27f8:	02b7d733          	divu	a4,a5,a1
    27fc:	01089513          	slli	a0,a7,0x10
    2800:	01055513          	srli	a0,a0,0x10
    2804:	02b7f7b3          	remu	a5,a5,a1
    2808:	02670733          	mul	a4,a4,t1
    280c:	01079793          	slli	a5,a5,0x10
    2810:	00f56533          	or	a0,a0,a5
    2814:	00e57a63          	bgeu	a0,a4,2828 <__umoddi3+0xd4>
    2818:	00a80533          	add	a0,a6,a0
    281c:	01056663          	bltu	a0,a6,2828 <__umoddi3+0xd4>
    2820:	00e57463          	bgeu	a0,a4,2828 <__umoddi3+0xd4>
    2824:	01050533          	add	a0,a0,a6
    2828:	40e50533          	sub	a0,a0,a4
    282c:	00d55533          	srl	a0,a0,a3
    2830:	00000593          	li	a1,0
    2834:	00008067          	ret
    2838:	00d5f463          	bgeu	a1,a3,2840 <__umoddi3+0xec>
    283c:	00008067          	ret
    2840:	000107b7          	lui	a5,0x10
    2844:	1cf6e863          	bltu	a3,a5,2a14 <__umoddi3+0x2c0>
    2848:	010007b7          	lui	a5,0x1000
    284c:	00f6b7b3          	sltu	a5,a3,a5
    2850:	40f007b3          	neg	a5,a5
    2854:	ff87f793          	andi	a5,a5,-8
    2858:	01878793          	addi	a5,a5,24 # 1000018 <_app_prog_size+0xfc0018>
    285c:	00f6d833          	srl	a6,a3,a5
    2860:	1fffe717          	auipc	a4,0x1fffe
    2864:	9b070713          	addi	a4,a4,-1616 # 20000210 <__clz_tab>
    2868:	01070733          	add	a4,a4,a6
    286c:	00074703          	lbu	a4,0(a4)
    2870:	02000e13          	li	t3,32
    2874:	00f70733          	add	a4,a4,a5
    2878:	40ee0833          	sub	a6,t3,a4
    287c:	1cee1463          	bne	t3,a4,2a44 <__umoddi3+0x2f0>
    2880:	00b6e463          	bltu	a3,a1,2888 <__umoddi3+0x134>
    2884:	00c56a63          	bltu	a0,a2,2898 <__umoddi3+0x144>
    2888:	40c508b3          	sub	a7,a0,a2
    288c:	40d586b3          	sub	a3,a1,a3
    2890:	01153333          	sltu	t1,a0,a7
    2894:	40668333          	sub	t1,a3,t1
    2898:	00088513          	mv	a0,a7
    289c:	00030593          	mv	a1,t1
    28a0:	00008067          	ret
    28a4:	0a060e63          	beqz	a2,2960 <__umoddi3+0x20c>
    28a8:	000107b7          	lui	a5,0x10
    28ac:	2ef67463          	bgeu	a2,a5,2b94 <__umoddi3+0x440>
    28b0:	10063713          	sltiu	a4,a2,256
    28b4:	00174713          	xori	a4,a4,1
    28b8:	00371713          	slli	a4,a4,0x3
    28bc:	00e656b3          	srl	a3,a2,a4
    28c0:	1fffe797          	auipc	a5,0x1fffe
    28c4:	95078793          	addi	a5,a5,-1712 # 20000210 <__clz_tab>
    28c8:	00d787b3          	add	a5,a5,a3
    28cc:	0007c783          	lbu	a5,0(a5)
    28d0:	02000313          	li	t1,32
    28d4:	00e787b3          	add	a5,a5,a4
    28d8:	40f306b3          	sub	a3,t1,a5
    28dc:	0af31663          	bne	t1,a5,2988 <__umoddi3+0x234>
    28e0:	40c58733          	sub	a4,a1,a2
    28e4:	01065313          	srli	t1,a2,0x10
    28e8:	01061613          	slli	a2,a2,0x10
    28ec:	01065613          	srli	a2,a2,0x10
    28f0:	026755b3          	divu	a1,a4,t1
    28f4:	0108d793          	srli	a5,a7,0x10
    28f8:	02677733          	remu	a4,a4,t1
    28fc:	02c585b3          	mul	a1,a1,a2
    2900:	01071713          	slli	a4,a4,0x10
    2904:	00e7e7b3          	or	a5,a5,a4
    2908:	00b7fa63          	bgeu	a5,a1,291c <__umoddi3+0x1c8>
    290c:	00f807b3          	add	a5,a6,a5
    2910:	0107e663          	bltu	a5,a6,291c <__umoddi3+0x1c8>
    2914:	00b7f463          	bgeu	a5,a1,291c <__umoddi3+0x1c8>
    2918:	010787b3          	add	a5,a5,a6
    291c:	40b787b3          	sub	a5,a5,a1
    2920:	0267d733          	divu	a4,a5,t1
    2924:	01089893          	slli	a7,a7,0x10
    2928:	0108d893          	srli	a7,a7,0x10
    292c:	0267f7b3          	remu	a5,a5,t1
    2930:	02c70733          	mul	a4,a4,a2
    2934:	01079513          	slli	a0,a5,0x10
    2938:	00a8e533          	or	a0,a7,a0
    293c:	ece56ee3          	bltu	a0,a4,2818 <__umoddi3+0xc4>
    2940:	40e50533          	sub	a0,a0,a4
    2944:	00d55533          	srl	a0,a0,a3
    2948:	00000593          	li	a1,0
    294c:	00008067          	ret
    2950:	10063793          	sltiu	a5,a2,256
    2954:	0017c793          	xori	a5,a5,1
    2958:	00379793          	slli	a5,a5,0x3
    295c:	e2dff06f          	j	2788 <__umoddi3+0x34>
    2960:	00000693          	li	a3,0
    2964:	1fffe797          	auipc	a5,0x1fffe
    2968:	8ac78793          	addi	a5,a5,-1876 # 20000210 <__clz_tab>
    296c:	00d787b3          	add	a5,a5,a3
    2970:	0007c783          	lbu	a5,0(a5)
    2974:	00000713          	li	a4,0
    2978:	02000313          	li	t1,32
    297c:	00e787b3          	add	a5,a5,a4
    2980:	40f306b3          	sub	a3,t1,a5
    2984:	f4f30ee3          	beq	t1,a5,28e0 <__umoddi3+0x18c>
    2988:	00d61833          	sll	a6,a2,a3
    298c:	00f5de33          	srl	t3,a1,a5
    2990:	01085313          	srli	t1,a6,0x10
    2994:	026e5eb3          	divu	t4,t3,t1
    2998:	01081613          	slli	a2,a6,0x10
    299c:	00d595b3          	sll	a1,a1,a3
    29a0:	00f55733          	srl	a4,a0,a5
    29a4:	01065613          	srli	a2,a2,0x10
    29a8:	00b76733          	or	a4,a4,a1
    29ac:	01075793          	srli	a5,a4,0x10
    29b0:	00d518b3          	sll	a7,a0,a3
    29b4:	026e7e33          	remu	t3,t3,t1
    29b8:	02ce85b3          	mul	a1,t4,a2
    29bc:	010e1e13          	slli	t3,t3,0x10
    29c0:	01c7e7b3          	or	a5,a5,t3
    29c4:	00b7fa63          	bgeu	a5,a1,29d8 <__umoddi3+0x284>
    29c8:	00f807b3          	add	a5,a6,a5
    29cc:	0107e663          	bltu	a5,a6,29d8 <__umoddi3+0x284>
    29d0:	00b7f463          	bgeu	a5,a1,29d8 <__umoddi3+0x284>
    29d4:	010787b3          	add	a5,a5,a6
    29d8:	40b787b3          	sub	a5,a5,a1
    29dc:	0267d5b3          	divu	a1,a5,t1
    29e0:	01071713          	slli	a4,a4,0x10
    29e4:	01075713          	srli	a4,a4,0x10
    29e8:	0267f7b3          	remu	a5,a5,t1
    29ec:	02c585b3          	mul	a1,a1,a2
    29f0:	01079793          	slli	a5,a5,0x10
    29f4:	00f76733          	or	a4,a4,a5
    29f8:	00b77a63          	bgeu	a4,a1,2a0c <__umoddi3+0x2b8>
    29fc:	00e80733          	add	a4,a6,a4
    2a00:	01076663          	bltu	a4,a6,2a0c <__umoddi3+0x2b8>
    2a04:	00b77463          	bgeu	a4,a1,2a0c <__umoddi3+0x2b8>
    2a08:	01070733          	add	a4,a4,a6
    2a0c:	40b70733          	sub	a4,a4,a1
    2a10:	ee1ff06f          	j	28f0 <__umoddi3+0x19c>
    2a14:	1006b793          	sltiu	a5,a3,256
    2a18:	0017c793          	xori	a5,a5,1
    2a1c:	00379793          	slli	a5,a5,0x3
    2a20:	00f6d833          	srl	a6,a3,a5
    2a24:	1fffd717          	auipc	a4,0x1fffd
    2a28:	7ec70713          	addi	a4,a4,2028 # 20000210 <__clz_tab>
    2a2c:	01070733          	add	a4,a4,a6
    2a30:	00074703          	lbu	a4,0(a4)
    2a34:	02000e13          	li	t3,32
    2a38:	00f70733          	add	a4,a4,a5
    2a3c:	40ee0833          	sub	a6,t3,a4
    2a40:	e4ee00e3          	beq	t3,a4,2880 <__umoddi3+0x12c>
    2a44:	010696b3          	sll	a3,a3,a6
    2a48:	00e658b3          	srl	a7,a2,a4
    2a4c:	00d8e8b3          	or	a7,a7,a3
    2a50:	00e5de33          	srl	t3,a1,a4
    2a54:	0108df13          	srli	t5,a7,0x10
    2a58:	03ee57b3          	divu	a5,t3,t5
    2a5c:	01089e93          	slli	t4,a7,0x10
    2a60:	010ede93          	srli	t4,t4,0x10
    2a64:	00e556b3          	srl	a3,a0,a4
    2a68:	01051333          	sll	t1,a0,a6
    2a6c:	010595b3          	sll	a1,a1,a6
    2a70:	00b6e5b3          	or	a1,a3,a1
    2a74:	0105d693          	srli	a3,a1,0x10
    2a78:	01061633          	sll	a2,a2,a6
    2a7c:	03ee7e33          	remu	t3,t3,t5
    2a80:	02fe8533          	mul	a0,t4,a5
    2a84:	010e1e13          	slli	t3,t3,0x10
    2a88:	01c6e6b3          	or	a3,a3,t3
    2a8c:	00a6fe63          	bgeu	a3,a0,2aa8 <__umoddi3+0x354>
    2a90:	00d886b3          	add	a3,a7,a3
    2a94:	fff78e13          	addi	t3,a5,-1
    2a98:	1116ec63          	bltu	a3,a7,2bb0 <__umoddi3+0x45c>
    2a9c:	10a6fa63          	bgeu	a3,a0,2bb0 <__umoddi3+0x45c>
    2aa0:	ffe78793          	addi	a5,a5,-2
    2aa4:	011686b3          	add	a3,a3,a7
    2aa8:	40a686b3          	sub	a3,a3,a0
    2aac:	03e6d533          	divu	a0,a3,t5
    2ab0:	01059593          	slli	a1,a1,0x10
    2ab4:	0105d593          	srli	a1,a1,0x10
    2ab8:	03e6f6b3          	remu	a3,a3,t5
    2abc:	02ae8eb3          	mul	t4,t4,a0
    2ac0:	01069693          	slli	a3,a3,0x10
    2ac4:	00d5e5b3          	or	a1,a1,a3
    2ac8:	01d5fe63          	bgeu	a1,t4,2ae4 <__umoddi3+0x390>
    2acc:	00b885b3          	add	a1,a7,a1
    2ad0:	fff50693          	addi	a3,a0,-1
    2ad4:	0d15ea63          	bltu	a1,a7,2ba8 <__umoddi3+0x454>
    2ad8:	0dd5f863          	bgeu	a1,t4,2ba8 <__umoddi3+0x454>
    2adc:	ffe50513          	addi	a0,a0,-2
    2ae0:	011585b3          	add	a1,a1,a7
    2ae4:	01079693          	slli	a3,a5,0x10
    2ae8:	000102b7          	lui	t0,0x10
    2aec:	00a6e6b3          	or	a3,a3,a0
    2af0:	fff28513          	addi	a0,t0,-1 # ffff <__stack_size+0xbfff>
    2af4:	00a6fe33          	and	t3,a3,a0
    2af8:	01065f93          	srli	t6,a2,0x10
    2afc:	0106d693          	srli	a3,a3,0x10
    2b00:	00a67533          	and	a0,a2,a0
    2b04:	02ae0f33          	mul	t5,t3,a0
    2b08:	41d585b3          	sub	a1,a1,t4
    2b0c:	02a68533          	mul	a0,a3,a0
    2b10:	010f5793          	srli	a5,t5,0x10
    2b14:	03fe0e33          	mul	t3,t3,t6
    2b18:	00ae0e33          	add	t3,t3,a0
    2b1c:	01c787b3          	add	a5,a5,t3
    2b20:	03f686b3          	mul	a3,a3,t6
    2b24:	00a7f463          	bgeu	a5,a0,2b2c <__umoddi3+0x3d8>
    2b28:	005686b3          	add	a3,a3,t0
    2b2c:	00010eb7          	lui	t4,0x10
    2b30:	fffe8e93          	addi	t4,t4,-1 # ffff <__stack_size+0xbfff>
    2b34:	01d7f533          	and	a0,a5,t4
    2b38:	0107de13          	srli	t3,a5,0x10
    2b3c:	01051513          	slli	a0,a0,0x10
    2b40:	01df7f33          	and	t5,t5,t4
    2b44:	00de07b3          	add	a5,t3,a3
    2b48:	01e50533          	add	a0,a0,t5
    2b4c:	02f5e863          	bltu	a1,a5,2b7c <__umoddi3+0x428>
    2b50:	02f58463          	beq	a1,a5,2b78 <__umoddi3+0x424>
    2b54:	40a30533          	sub	a0,t1,a0
    2b58:	00a33333          	sltu	t1,t1,a0
    2b5c:	40f585b3          	sub	a1,a1,a5
    2b60:	406585b3          	sub	a1,a1,t1
    2b64:	00e59733          	sll	a4,a1,a4
    2b68:	01055533          	srl	a0,a0,a6
    2b6c:	00a76533          	or	a0,a4,a0
    2b70:	0105d5b3          	srl	a1,a1,a6
    2b74:	00008067          	ret
    2b78:	fca37ee3          	bgeu	t1,a0,2b54 <__umoddi3+0x400>
    2b7c:	40c50633          	sub	a2,a0,a2
    2b80:	00c53533          	sltu	a0,a0,a2
    2b84:	011508b3          	add	a7,a0,a7
    2b88:	411787b3          	sub	a5,a5,a7
    2b8c:	00060513          	mv	a0,a2
    2b90:	fc5ff06f          	j	2b54 <__umoddi3+0x400>
    2b94:	010007b7          	lui	a5,0x1000
    2b98:	02f67463          	bgeu	a2,a5,2bc0 <__umoddi3+0x46c>
    2b9c:	01065693          	srli	a3,a2,0x10
    2ba0:	01000713          	li	a4,16
    2ba4:	d1dff06f          	j	28c0 <__umoddi3+0x16c>
    2ba8:	00068513          	mv	a0,a3
    2bac:	f39ff06f          	j	2ae4 <__umoddi3+0x390>
    2bb0:	000e0793          	mv	a5,t3
    2bb4:	ef5ff06f          	j	2aa8 <__umoddi3+0x354>
    2bb8:	010787b3          	add	a5,a5,a6
    2bbc:	c39ff06f          	j	27f4 <__umoddi3+0xa0>
    2bc0:	01865693          	srli	a3,a2,0x18
    2bc4:	01800713          	li	a4,24
    2bc8:	cf9ff06f          	j	28c0 <__umoddi3+0x16c>
