
SparrowRV_APP.elf:     file format elf32-littleriscv
SparrowRV_APP.elf
architecture: riscv:rv32, flags 0x00000112:
EXEC_P, HAS_SYMS, D_PAGED
start address 0x00000000

Program Header:
0x70000003 off    0x00037769 vaddr 0x00000000 paddr 0x00000000 align 2**0
         filesz 0x00000034 memsz 0x00000000 flags r--
    LOAD off    0x00001000 vaddr 0x00000000 paddr 0x00000000 align 2**12
         filesz 0x00003a52 memsz 0x00003a54 flags rwx
    LOAD off    0x00005000 vaddr 0x20000000 paddr 0x00003a54 align 2**12
         filesz 0x00021688 memsz 0x00021688 flags rw-
    LOAD off    0x00000688 vaddr 0x20021688 paddr 0x20021688 align 2**12
         filesz 0x00000000 memsz 0x00000014 flags rw-
    LOAD off    0x00000000 vaddr 0x2003c000 paddr 0x2002169c align 2**12
         filesz 0x00000000 memsz 0x00004000 flags rw-

Sections:
Idx Name              Size      VMA       LMA       File off  Algn  Flags
  0 .init             000000a8  00000000  00000000  00001000  2**0  CONTENTS, ALLOC, LOAD, READONLY, CODE
  1 .text             000039aa  000000a8  000000a8  000010a8  2**2  CONTENTS, ALLOC, LOAD, READONLY, CODE
  2 .lalign           00000002  00003a52  00003a52  00004a52  2**0  ALLOC
  3 .dalign           00000000  20000000  20000000  00026688  2**0  CONTENTS
  4 .data             00021688  20000000  00003a54  00005000  2**2  CONTENTS, ALLOC, LOAD, DATA
  5 .bss              00000014  20021688  20021688  00026688  2**2  ALLOC
  6 .stack            00004000  2003c000  2002169c  00027000  2**0  ALLOC
  7 .debug_info       00004220  00000000  00000000  00026688  2**0  CONTENTS, READONLY, DEBUGGING, OCTETS
  8 .debug_abbrev     00000d14  00000000  00000000  0002a8a8  2**0  CONTENTS, READONLY, DEBUGGING, OCTETS
  9 .debug_loclists   00003e06  00000000  00000000  0002b5bc  2**0  CONTENTS, READONLY, DEBUGGING, OCTETS
 10 .debug_aranges    000002e0  00000000  00000000  0002f3c8  2**3  CONTENTS, READONLY, DEBUGGING, OCTETS
 11 .debug_rnglists   00000ff9  00000000  00000000  0002f6a8  2**0  CONTENTS, READONLY, DEBUGGING, OCTETS
 12 .debug_line       00006014  00000000  00000000  000306a1  2**0  CONTENTS, READONLY, DEBUGGING, OCTETS
 13 .debug_str        00000ccf  00000000  00000000  000366b5  2**0  CONTENTS, READONLY, DEBUGGING, OCTETS
 14 .debug_line_str   000003b4  00000000  00000000  00037384  2**0  CONTENTS, READONLY, DEBUGGING, OCTETS
 15 .comment          00000031  00000000  00000000  00037738  2**0  CONTENTS, READONLY
 16 .riscv.attributes 00000034  00000000  00000000  00037769  2**0  CONTENTS, READONLY
 17 .debug_frame      00000918  00000000  00000000  000377a0  2**2  CONTENTS, READONLY, DEBUGGING, OCTETS
SYMBOL TABLE:
00000000 l    d  .init	00000000 .init
000000a8 l    d  .text	00000000 .text
00003a52 l    d  .lalign	00000000 .lalign
20000000 l    d  .dalign	00000000 .dalign
20000000 l    d  .data	00000000 .data
20021688 l    d  .bss	00000000 .bss
2003c000 l    d  .stack	00000000 .stack
00000000 l    d  .debug_info	00000000 .debug_info
00000000 l    d  .debug_abbrev	00000000 .debug_abbrev
00000000 l    d  .debug_loclists	00000000 .debug_loclists
00000000 l    d  .debug_aranges	00000000 .debug_aranges
00000000 l    d  .debug_rnglists	00000000 .debug_rnglists
00000000 l    d  .debug_line	00000000 .debug_line
00000000 l    d  .debug_str	00000000 .debug_str
00000000 l    d  .debug_line_str	00000000 .debug_line_str
00000000 l    d  .comment	00000000 .comment
00000000 l    d  .riscv.attributes	00000000 .riscv.attributes
00000000 l    d  .debug_frame	00000000 .debug_frame
00000000 l    df *ABS*	00000000 startup.o
00000064 l       .init	00000000 loop
00000000 l    df *ABS*	00000000 main.c
00000000 l    df *ABS*	00000000 init.c
00000000 l    df *ABS*	00000000 core.c
00000000 l    df *ABS*	00000000 fpioa.c
00000000 l    df *ABS*	00000000 uart.c
00000000 l    df *ABS*	00000000 printf.c
00000278 l     F .text	00000004 _out_null
0000027c l     F .text	000004d8 _ntoa_format
00000754 l     F .text	00000020 _out_char
00000774 l     F .text	00000d8c _vsnprintf
00000000 l    df *ABS*	00000000 trap_handler.c
00000000 l    df *ABS*	00000000 _udivdi3.o
00000000 l    df *ABS*	00000000 _umoddi3.o
00000000 l    df *ABS*	00000000 lib_a-strlen.o
2001aad0 g     O .data	00000800 template_data_12
2000fad0 g     O .data	00000800 template_data_36
2000bad0 g     O .data	00000800 template_data_44
2000dad0 g     O .data	00000800 template_data_40
20021e80 g       .data	00000000 __global_pointer$
00040000 g       *ABS*	00000000 _app_prog_size
00002b1c g     F .text	00000004 HardFault_Handler
00002b18 g     F .text	00000004 SysTick_Handler
2001d2d0 g     O .data	00000800 template_data_7
00002b20 g     F .text	00000098 PLIC1_FPIOA_ELI0_Handler
20018ad0 g     O .data	00000800 template_data_16
2000f2d0 g     O .data	00000800 template_data_37
200032d0 g     O .data	00000800 template_data_61
20004ad0 g     O .data	00000800 template_data_58
00004000 g       *ABS*	00000000 __stack_size
00002bb8 g     F .text	00000098 PLIC2_FPIOA_ELI1_Handler
000001d4  w      .text	00000000 PLIC0_Handler
20000ad0 g     O .data	00000800 template_data_66
2001f2d0 g     O .data	00000800 template_data_3
200182d0 g     O .data	00000800 template_data_17
200082d0 g     O .data	00000800 template_data_51
00000000 g       *ABS*	00000000 _app_base_addr
2002168c g     O .bss	00000004 system_sram_size
200162d0 g     O .data	00000800 template_data_22
00040000 g       *ABS*	00000000 _cpu_sram_size
2001bad0 g     O .data	00000800 template_data_10
20001ad0 g     O .data	00000800 template_data_64
2000cad0 g     O .data	00000800 template_data_42
000017d4 g     F .text	00001344 pipeline
20006ad0 g     O .data	00000800 template_data_54
20020ad0 g     O .data	00000800 template_data_0
20010ad0 g     O .data	00000800 template_data_34
2001cad0 g     O .data	00000800 template_data_8
000035c8 g     F .text	00000478 .hidden __umoddi3
00003110 g     F .text	000004b8 .hidden __udivdi3
00002e18 g     F .text	00000098 PLIC6_UART0_RX_Handler
20019ad0 g     O .data	00000800 template_data_14
00001500 g     F .text	0000003c init_uart0_printf
00000260 g     F .text	00000018 uart_send_date
200102d0 g     O .data	00000800 template_data_35
200092d0 g     O .data	00000800 template_data_49
20005ad0 g     O .data	00000800 template_data_56
00000168 g     F .text	00000060 sparrowrv_system_init
2000d2d0 g     O .data	00000800 template_data_41
200132d0 g     O .data	00000800 template_data_29
00000000 g       *ABS*	00000000 _use_sd_iap
200192d0 g     O .data	00000800 template_data_15
00000218 g     F .text	00000014 fpioa_perips_out_set
200172d0 g     O .data	00000800 template_data_20
2001e2d0 g     O .data	00000800 template_data_5
20000000 g       *ABS*	00000000 _sram_base_addr
20040000 g       .stack	00000000 _sp
20021694 g     O .bss	00000004 system_cpu_freqM
20021470 g     O .data	00000210 template_lib
20002ad0 g     O .data	00000800 template_data_62
00000000 g     F .init	00000000 _start
200142d0 g     O .data	00000800 template_data_27
200042d0 g     O .data	00000800 template_data_59
00002fe0 g     F .text	00000098 PLIC9_TIMER0_OF_Handler
00002eb0 g     F .text	00000098 PLIC7_UART1_TX_Handler
20007ad0 g     O .data	00000800 template_data_52
2000e2d0 g     O .data	00000800 template_data_39
20011ad0 g     O .data	00000800 template_data_32
200002d0 g     O .data	00000800 template_data_67
20021688 g     O .bss	00000004 system_vendorid
00000250 g     F .text	00000010 uart_band_ctrl
00000068 g       .init	00000000 trap_vector_tab
20003ad0 g     O .data	00000800 template_data_60
20015ad0 g     O .data	00000800 template_data_23
00040000 g       *ABS*	00000000 _cpu_iram_size
2000a2d0 g     O .data	00000800 template_data_47
2001b2d0 g     O .data	00000800 template_data_11
200112d0 g     O .data	00000800 template_data_33
20021688 g       .bss	00000000 __bss_start
000000a8 g     F .text	000000c0 main
20021698 g     O .bss	00000004 system_cpu_freq
00000200 g     F .text	00000018 csr_msprint_string
200062d0 g     O .data	00000800 template_data_55
2001ead0 g     O .data	00000800 template_data_4
2001a2d0 g     O .data	00000800 template_data_13
2000b2d0 g     O .data	00000800 template_data_45
20009ad0 g     O .data	00000800 template_data_48
20021370 g     O .data	00000100 .hidden __clz_tab
00002f48 g     F .text	00000098 PLIC8_UART1_RX_Handler
0000158c g     F .text	00000248 init_map
00004000 g       *ABS*	00000000 _cpu_stack_size
0000022c g     F .text	00000024 uart_enable_ctrl
20013ad0 g     O .data	00000800 template_data_28
200152d0 g     O .data	00000800 template_data_25
00002c50 g     F .text	00000098 PLIC3_FPIOA_ELI2_Handler
200052d0 g     O .data	00000800 template_data_57
20000000 g       .dalign	00000000 _data
2000ead0 g     O .data	00000800 template_data_38
00002d80 g     F .text	00000098 PLIC5_UART0_TX_Handler
200012d0 g     O .data	00000800 template_data_65
000001cc  w      .text	00000000 SW_Handler
20008ad0 g     O .data	00000800 template_data_50
0000153c g     F .text	00000050 printf_
20021688 g       .bss	00000000 _edata
200202d0 g     O .data	00000800 template_data_1
200216a0 g       .bss	00000000 _end
20016ad0 g     O .data	00000800 template_data_21
20021680 g     O .data	00000004 num_templates
20012ad0 g     O .data	00000800 template_data_30
00003a54 g       .lalign	00000000 _data_lma
20014ad0 g     O .data	00000800 template_data_26
2001c2d0 g     O .data	00000800 template_data_9
2001fad0 g     O .data	00000800 template_data_2
00000000 g       *ABS*	00000000 _iap_prog_size
200122d0 g     O .data	00000800 template_data_31
200022d0 g     O .data	00000800 template_data_63
200072d0 g     O .data	00000800 template_data_53
00003078 g     F .text	00000098 PLIC10_SPI0_END_Handler
00003a40 g     F .text	00000012 strlen
20017ad0 g     O .data	00000800 template_data_19
2000aad0 g     O .data	00000800 template_data_46
2000c2d0 g     O .data	00000800 template_data_43
20021690 g     O .bss	00000004 system_iram_size
2001dad0 g     O .data	00000800 template_data_6
00002ce8 g     F .text	00000098 PLIC4_FPIOA_ELI3_Handler



Disassembly of section .init:

00000000 <_start>:
_start():
d:\PDS\SparrowRV-master\bsp\bsp_app\obj/../lib/startup/startup.S:10
   0:	00000013          	nop
d:\PDS\SparrowRV-master\bsp\bsp_app\obj/../lib/startup/startup.S:11
   4:	20022197          	auipc	gp,0x20022
   8:	e7c18193          	addi	gp,gp,-388 # 20021e80 <__global_pointer$>
d:\PDS\SparrowRV-master\bsp\bsp_app\obj/../lib/startup/startup.S:13
   c:	20040117          	auipc	sp,0x20040
  10:	ff410113          	addi	sp,sp,-12 # 20040000 <_sp>
d:\PDS\SparrowRV-master\bsp\bsp_app\obj/../lib/startup/startup.S:16
  14:	00004517          	auipc	a0,0x4
  18:	a4050513          	addi	a0,a0,-1472 # 3a54 <_data_lma>
d:\PDS\SparrowRV-master\bsp\bsp_app\obj/../lib/startup/startup.S:17
  1c:	20000597          	auipc	a1,0x20000
  20:	fe458593          	addi	a1,a1,-28 # 20000000 <_data>
d:\PDS\SparrowRV-master\bsp\bsp_app\obj/../lib/startup/startup.S:18
  24:	80818613          	addi	a2,gp,-2040 # 20021688 <system_vendorid>
d:\PDS\SparrowRV-master\bsp\bsp_app\obj/../lib/startup/startup.S:19
  28:	00c5fc63          	bgeu	a1,a2,40 <_start+0x40>
d:\PDS\SparrowRV-master\bsp\bsp_app\obj/../lib/startup/startup.S:21
  2c:	00052283          	lw	t0,0(a0)
d:\PDS\SparrowRV-master\bsp\bsp_app\obj/../lib/startup/startup.S:22
  30:	0055a023          	sw	t0,0(a1)
d:\PDS\SparrowRV-master\bsp\bsp_app\obj/../lib/startup/startup.S:23
  34:	00450513          	addi	a0,a0,4
d:\PDS\SparrowRV-master\bsp\bsp_app\obj/../lib/startup/startup.S:24
  38:	00458593          	addi	a1,a1,4
d:\PDS\SparrowRV-master\bsp\bsp_app\obj/../lib/startup/startup.S:25
  3c:	fec5e8e3          	bltu	a1,a2,2c <_start+0x2c>
d:\PDS\SparrowRV-master\bsp\bsp_app\obj/../lib/startup/startup.S:30
  40:	80818513          	addi	a0,gp,-2040 # 20021688 <system_vendorid>
d:\PDS\SparrowRV-master\bsp\bsp_app\obj/../lib/startup/startup.S:31
  44:	82018593          	addi	a1,gp,-2016 # 200216a0 <_end>
d:\PDS\SparrowRV-master\bsp\bsp_app\obj/../lib/startup/startup.S:32
  48:	00b57863          	bgeu	a0,a1,58 <_start+0x58>
d:\PDS\SparrowRV-master\bsp\bsp_app\obj/../lib/startup/startup.S:34
  4c:	00052023          	sw	zero,0(a0)
d:\PDS\SparrowRV-master\bsp\bsp_app\obj/../lib/startup/startup.S:35
  50:	00450513          	addi	a0,a0,4
d:\PDS\SparrowRV-master\bsp\bsp_app\obj/../lib/startup/startup.S:36
  54:	feb56ce3          	bltu	a0,a1,4c <_start+0x4c>
d:\PDS\SparrowRV-master\bsp\bsp_app\obj/../lib/startup/startup.S:40
  58:	110000ef          	jal	ra,168 <sparrowrv_system_init>
d:\PDS\SparrowRV-master\bsp\bsp_app\obj/../lib/startup/startup.S:41
  5c:	04c000ef          	jal	ra,a8 <main>
d:\PDS\SparrowRV-master\bsp\bsp_app\obj/../lib/startup/startup.S:43
  60:	3470d073          	csrwi	0x347,1

00000064 <loop>:
loop():
d:\PDS\SparrowRV-master\bsp\bsp_app\obj/../lib/startup/startup.S:45
  64:	0000006f          	j	64 <loop>

00000068 <trap_vector_tab>:
trap_vector_tab():
d:\PDS\SparrowRV-master\bsp\bsp_app\obj/../lib/startup/startup.S:54
  68:	f99ff06f          	j	0 <_start>
d:\PDS\SparrowRV-master\bsp\bsp_app\obj/../lib/startup/startup.S:55
  6c:	2b10206f          	j	2b1c <HardFault_Handler>
d:\PDS\SparrowRV-master\bsp\bsp_app\obj/../lib/startup/startup.S:56
  70:	15c0006f          	j	1cc <SW_Handler>
d:\PDS\SparrowRV-master\bsp\bsp_app\obj/../lib/startup/startup.S:57
  74:	2a50206f          	j	2b18 <SysTick_Handler>
d:\PDS\SparrowRV-master\bsp\bsp_app\obj/../lib/startup/startup.S:58
  78:	15c0006f          	j	1d4 <PLIC0_Handler>
d:\PDS\SparrowRV-master\bsp\bsp_app\obj/../lib/startup/startup.S:59
  7c:	2a50206f          	j	2b20 <PLIC1_FPIOA_ELI0_Handler>
d:\PDS\SparrowRV-master\bsp\bsp_app\obj/../lib/startup/startup.S:60
  80:	3390206f          	j	2bb8 <PLIC2_FPIOA_ELI1_Handler>
d:\PDS\SparrowRV-master\bsp\bsp_app\obj/../lib/startup/startup.S:61
  84:	3cd0206f          	j	2c50 <PLIC3_FPIOA_ELI2_Handler>
d:\PDS\SparrowRV-master\bsp\bsp_app\obj/../lib/startup/startup.S:62
  88:	4610206f          	j	2ce8 <PLIC4_FPIOA_ELI3_Handler>
d:\PDS\SparrowRV-master\bsp\bsp_app\obj/../lib/startup/startup.S:63
  8c:	4f50206f          	j	2d80 <PLIC5_UART0_TX_Handler>
d:\PDS\SparrowRV-master\bsp\bsp_app\obj/../lib/startup/startup.S:64
  90:	5890206f          	j	2e18 <PLIC6_UART0_RX_Handler>
d:\PDS\SparrowRV-master\bsp\bsp_app\obj/../lib/startup/startup.S:65
  94:	61d0206f          	j	2eb0 <PLIC7_UART1_TX_Handler>
d:\PDS\SparrowRV-master\bsp\bsp_app\obj/../lib/startup/startup.S:66
  98:	6b10206f          	j	2f48 <PLIC8_UART1_RX_Handler>
d:\PDS\SparrowRV-master\bsp\bsp_app\obj/../lib/startup/startup.S:67
  9c:	7450206f          	j	2fe0 <PLIC9_TIMER0_OF_Handler>
d:\PDS\SparrowRV-master\bsp\bsp_app\obj/../lib/startup/startup.S:68
  a0:	7d90206f          	j	3078 <PLIC10_SPI0_END_Handler>
  a4:	00000000          	.word	0x00000000

Disassembly of section .text:

000000a8 <main>:
main():
d:\PDS\test\Sparrow_RISC-V\MRS\obj/../app/main.c:205
    }
    printf("完成!\r\n");
}

int main(){
    init_uart0_printf(115200,0);
      a8:	0001c537          	lui	a0,0x1c
d:\PDS\test\Sparrow_RISC-V\MRS\obj/../app/main.c:204
int main(){
      ac:	fe010113          	addi	sp,sp,-32
d:\PDS\test\Sparrow_RISC-V\MRS\obj/../app/main.c:205
    init_uart0_printf(115200,0);
      b0:	00000593          	li	a1,0
      b4:	20050513          	addi	a0,a0,512 # 1c200 <__stack_size+0x18200>
d:\PDS\test\Sparrow_RISC-V\MRS\obj/../app/main.c:204
int main(){
      b8:	00112e23          	sw	ra,28(sp)
d:\PDS\test\Sparrow_RISC-V\MRS\obj/../app/main.c:205
    init_uart0_printf(115200,0);
      bc:	444010ef          	jal	ra,1500 <init_uart0_printf>
d:\PDS\test\Sparrow_RISC-V\MRS\obj/../app/main.c:206
    printf("===== 蓝牌识别(图像发送) =====\r\n");
      c0:	20000537          	lui	a0,0x20000
      c4:	18450513          	addi	a0,a0,388 # 20000184 <_data+0x184>
      c8:	474010ef          	jal	ra,153c <printf_>
d:\PDS\test\Sparrow_RISC-V\MRS\obj/../app/main.c:207
    init_map(740,477,1180,476,742,607,1185,607);
      cc:	25f00793          	li	a5,607
      d0:	2e600713          	li	a4,742
      d4:	25f00893          	li	a7,607
      d8:	4a100813          	li	a6,1185
      dc:	1dc00693          	li	a3,476
      e0:	49c00613          	li	a2,1180
      e4:	1dd00593          	li	a1,477
      e8:	2e400513          	li	a0,740
      ec:	4a0010ef          	jal	ra,158c <init_map>
delay():
d:\PDS\test\Sparrow_RISC-V\MRS\obj/../app/main.c:28
void delay(uint32_t c){for(volatile uint32_t i=0;i<c;i++);}
      f0:	00012623          	sw	zero,12(sp)
      f4:	00c12783          	lw	a5,12(sp)
      f8:	01c9c737          	lui	a4,0x1c9c
      fc:	37f70713          	addi	a4,a4,895 # 1c9c37f <_app_prog_size+0x1c5c37f>
     100:	00f76c63          	bltu	a4,a5,118 <main+0x70>
     104:	00c12783          	lw	a5,12(sp)
     108:	00178793          	addi	a5,a5,1
     10c:	00f12623          	sw	a5,12(sp)
     110:	00c12783          	lw	a5,12(sp)
     114:	fef778e3          	bgeu	a4,a5,104 <main+0x5c>
main():
d:\PDS\test\Sparrow_RISC-V\MRS\obj/../app/main.c:211
    delay(30000000);
    int f=0;
    while(1){
        printf("\r\n--- 第%d帧 ---\r\n",++f);
     118:	20000537          	lui	a0,0x20000
     11c:	00100593          	li	a1,1
     120:	1b050513          	addi	a0,a0,432 # 200001b0 <_data+0x1b0>
     124:	418010ef          	jal	ra,153c <printf_>
d:\PDS\test\Sparrow_RISC-V\MRS\obj/../app/main.c:212
        pipeline(max(0,740-20),max(0,477-10),min(RAW_IMG_W-1,1185+20),min(IMG_H-1,607+10));
     128:	26900693          	li	a3,617
     12c:	4b500613          	li	a2,1205
     130:	1d300593          	li	a1,467
     134:	2d000513          	li	a0,720
     138:	69c010ef          	jal	ra,17d4 <pipeline>
delay():
d:\PDS\test\Sparrow_RISC-V\MRS\obj/../app/main.c:28
void delay(uint32_t c){for(volatile uint32_t i=0;i<c;i++);}
     13c:	00012423          	sw	zero,8(sp)
     140:	00812783          	lw	a5,8(sp)
     144:	02faf737          	lui	a4,0x2faf
     148:	07f70713          	addi	a4,a4,127 # 2faf07f <_app_prog_size+0x2f6f07f>
     14c:	00f76c63          	bltu	a4,a5,164 <main+0xbc>
     150:	00812783          	lw	a5,8(sp)
     154:	00178793          	addi	a5,a5,1
     158:	00f12423          	sw	a5,8(sp)
     15c:	00812783          	lw	a5,8(sp)
     160:	fef778e3          	bgeu	a4,a5,150 <main+0xa8>
main():
d:\PDS\test\Sparrow_RISC-V\MRS\obj/../app/main.c:215 (discriminator 1)
        delay(50000000);break;
    }
    while(1);
     164:	0000006f          	j	164 <main+0xbc>

00000168 <sparrowrv_system_init>:
sparrowrv_system_init():
d:\PDS\SparrowRV-master\bsp\bsp_app\obj/../lib/startup/init.c:28
     168:	06800793          	li	a5,104
     16c:	30579073          	csrw	mtvec,a5
d:\PDS\SparrowRV-master\bsp\bsp_app\obj/../lib/startup/init.c:30
     170:	f13027f3          	csrr	a5,mimpid
d:\PDS\SparrowRV-master\bsp\bsp_app\obj/../lib/startup/init.c:31
     174:	000026b7          	lui	a3,0x2
     178:	01179713          	slli	a4,a5,0x11
     17c:	71068693          	addi	a3,a3,1808 # 2710 <pipeline+0xf3c>
     180:	01175713          	srli	a4,a4,0x11
     184:	02d70733          	mul	a4,a4,a3
d:\PDS\SparrowRV-master\bsp\bsp_app\obj/../lib/startup/init.c:32
     188:	000f46b7          	lui	a3,0xf4
     18c:	24068693          	addi	a3,a3,576 # f4240 <_app_prog_size+0xb4240>
d:\PDS\SparrowRV-master\bsp\bsp_app\obj/../lib/startup/init.c:33
     190:	0107d613          	srli	a2,a5,0x10
     194:	0ff67613          	zext.b	a2,a2
     198:	00a61613          	slli	a2,a2,0xa
d:\PDS\SparrowRV-master\bsp\bsp_app\obj/../lib/startup/init.c:34
     19c:	0187d793          	srli	a5,a5,0x18
     1a0:	00a79793          	slli	a5,a5,0xa
d:\PDS\SparrowRV-master\bsp\bsp_app\obj/../lib/startup/init.c:32
     1a4:	02d756b3          	divu	a3,a4,a3
d:\PDS\SparrowRV-master\bsp\bsp_app\obj/../lib/startup/init.c:31
     1a8:	80e1ac23          	sw	a4,-2024(gp) # 20021698 <system_cpu_freq>
d:\PDS\SparrowRV-master\bsp\bsp_app\obj/../lib/startup/init.c:33
     1ac:	80c1a823          	sw	a2,-2032(gp) # 20021690 <system_iram_size>
d:\PDS\SparrowRV-master\bsp\bsp_app\obj/../lib/startup/init.c:34
     1b0:	80f1a623          	sw	a5,-2036(gp) # 2002168c <system_sram_size>
d:\PDS\SparrowRV-master\bsp\bsp_app\obj/../lib/startup/init.c:32
     1b4:	80d1aa23          	sw	a3,-2028(gp) # 20021694 <system_cpu_freqM>
d:\PDS\SparrowRV-master\bsp\bsp_app\obj/../lib/startup/init.c:35
     1b8:	f1102773          	csrr	a4,mvendorid
     1bc:	200217b7          	lui	a5,0x20021
     1c0:	68e7a423          	sw	a4,1672(a5) # 20021688 <system_vendorid>
d:\PDS\SparrowRV-master\bsp\bsp_app\obj/../lib/startup/init.c:38
     1c4:	00008067          	ret
d:\PDS\SparrowRV-master\bsp\bsp_app\obj/../lib/startup/startup.S:88
     1c8:	0000006f          	j	1c8 <sparrowrv_system_init+0x60>

000001cc <SW_Handler>:
SW_Handler():
d:\PDS\SparrowRV-master\bsp\bsp_app\obj/../lib/startup/startup.S:89
     1cc:	0000006f          	j	1cc <SW_Handler>
d:\PDS\SparrowRV-master\bsp\bsp_app\obj/../lib/startup/startup.S:90
     1d0:	0000006f          	j	1d0 <SW_Handler+0x4>

000001d4 <PLIC0_Handler>:
PLIC0_Handler():
d:\PDS\SparrowRV-master\bsp\bsp_app\obj/../lib/startup/startup.S:91
     1d4:	0000006f          	j	1d4 <PLIC0_Handler>
d:\PDS\SparrowRV-master\bsp\bsp_app\obj/../lib/startup/startup.S:92
     1d8:	0000006f          	j	1d8 <PLIC0_Handler+0x4>
d:\PDS\SparrowRV-master\bsp\bsp_app\obj/../lib/startup/startup.S:93
     1dc:	0000006f          	j	1dc <PLIC0_Handler+0x8>
d:\PDS\SparrowRV-master\bsp\bsp_app\obj/../lib/startup/startup.S:94
     1e0:	0000006f          	j	1e0 <PLIC0_Handler+0xc>
d:\PDS\SparrowRV-master\bsp\bsp_app\obj/../lib/startup/startup.S:95
     1e4:	0000006f          	j	1e4 <PLIC0_Handler+0x10>
d:\PDS\SparrowRV-master\bsp\bsp_app\obj/../lib/startup/startup.S:96
     1e8:	0000006f          	j	1e8 <PLIC0_Handler+0x14>
d:\PDS\SparrowRV-master\bsp\bsp_app\obj/../lib/startup/startup.S:97
     1ec:	0000006f          	j	1ec <PLIC0_Handler+0x18>
d:\PDS\SparrowRV-master\bsp\bsp_app\obj/../lib/startup/startup.S:98
     1f0:	0000006f          	j	1f0 <PLIC0_Handler+0x1c>
d:\PDS\SparrowRV-master\bsp\bsp_app\obj/../lib/startup/startup.S:99
     1f4:	0000006f          	j	1f4 <PLIC0_Handler+0x20>
d:\PDS\SparrowRV-master\bsp\bsp_app\obj/../lib/startup/startup.S:100
     1f8:	0000006f          	j	1f8 <PLIC0_Handler+0x24>
d:\PDS\SparrowRV-master\bsp\bsp_app\obj/../lib/startup/startup.S:101
     1fc:	0000006f          	j	1fc <PLIC0_Handler+0x28>

00000200 <csr_msprint_string>:
csr_msprint_string():
d:\PDS\test\Sparrow_RISC-V\MRS\obj/../lib/perip/src/core.c:211
 *
 * @return  无
 */
void csr_msprint_string(uint8_t *str)
{
    while (*str)//检测字符串结束标志
     200:	00c0006f          	j	20c <csr_msprint_string+0xc>
d:\PDS\test\Sparrow_RISC-V\MRS\obj/../lib/perip/src/core.c:213 (discriminator 2)
    {
        write_csr(msprint, *str++);//msprint打印当前字符
     204:	00150513          	addi	a0,a0,1
     208:	34679073          	csrw	0x346,a5
d:\PDS\test\Sparrow_RISC-V\MRS\obj/../lib/perip/src/core.c:211 (discriminator 2)
    while (*str)//检测字符串结束标志
     20c:	00054783          	lbu	a5,0(a0)
     210:	fe079ae3          	bnez	a5,204 <csr_msprint_string+0x4>
d:\PDS\test\Sparrow_RISC-V\MRS\obj/../lib/perip/src/core.c:215
    }
     214:	00008067          	ret

00000218 <fpioa_perips_out_set>:
fpioa_perips_out_set():
d:\PDS\test\Sparrow_RISC-V\MRS\obj/../lib/perip/src/fpioa.c:15
 *
 * @return  无
 */
void fpioa_perips_out_set(uint8_t fpioa_perips_o, uint8_t FPIOAx)
{
    SYS_RWMEM_B(FPIOA_OT_BASE + FPIOAx) = fpioa_perips_o;
     218:	400017b7          	lui	a5,0x40001
     21c:	f0078793          	addi	a5,a5,-256 # 40000f00 <_sp+0x1ffc0f00>
     220:	00f585b3          	add	a1,a1,a5
     224:	00a58023          	sb	a0,0(a1)
d:\PDS\test\Sparrow_RISC-V\MRS\obj/../lib/perip/src/fpioa.c:16
}
     228:	00008067          	ret

0000022c <uart_enable_ctrl>:
uart_enable_ctrl():
d:\PDS\test\Sparrow_RISC-V\MRS\obj/../lib/perip/src/uart.c:19
 * @return  无
 */
void uart_enable_ctrl(uint32_t UARTx, uint32_t uart_en)
{
    uint32_t tmp;
    tmp = SYS_RWMEM_W(UART_CTRL(UARTx));
     22c:	00052783          	lw	a5,0(a0)
d:\PDS\test\Sparrow_RISC-V\MRS\obj/../lib/perip/src/uart.c:20
    if(uart_en == ENABLE)
     230:	00100713          	li	a4,1
     234:	00e58863          	beq	a1,a4,244 <uart_enable_ctrl+0x18>
d:\PDS\test\Sparrow_RISC-V\MRS\obj/../lib/perip/src/uart.c:26
    {
        SYS_RWMEM_W(UART_CTRL(UARTx)) = tmp | 0b0011;
    }
    else
    {
        SYS_RWMEM_W(UART_CTRL(UARTx)) = tmp & 0b1100;
     238:	00c7f793          	andi	a5,a5,12
     23c:	00f52023          	sw	a5,0(a0)
d:\PDS\test\Sparrow_RISC-V\MRS\obj/../lib/perip/src/uart.c:28
    }
}
     240:	00008067          	ret
d:\PDS\test\Sparrow_RISC-V\MRS\obj/../lib/perip/src/uart.c:22
        SYS_RWMEM_W(UART_CTRL(UARTx)) = tmp | 0b0011;
     244:	0037e793          	ori	a5,a5,3
     248:	00f52023          	sw	a5,0(a0)
     24c:	00008067          	ret

00000250 <uart_band_ctrl>:
uart_band_ctrl():
d:\PDS\test\Sparrow_RISC-V\MRS\obj/../lib/perip/src/uart.c:43
 *
 * @return  无
 */
void uart_band_ctrl(uint32_t UARTx, uint32_t uart_band)
{
    SYS_RWMEM_W(UART_BAUD(UARTx)) = system_cpu_freq / uart_band ; //计算出分频器的值
     250:	8181a783          	lw	a5,-2024(gp) # 20021698 <system_cpu_freq>
     254:	02b7d7b3          	divu	a5,a5,a1
     258:	00f52423          	sw	a5,8(a0)
d:\PDS\test\Sparrow_RISC-V\MRS\obj/../lib/perip/src/uart.c:44
}
     25c:	00008067          	ret

00000260 <uart_send_date>:
uart_send_date():
d:\PDS\test\Sparrow_RISC-V\MRS\obj/../lib/perip/src/uart.c:59
 *
 * @return  无
 */
void uart_send_date(uint32_t UARTx, uint8_t uart_send)
{
    while (SYS_RWMEM_W(UART_STATUS(UARTx)) & 0x1); //等待上一个操作结束
     260:	00450713          	addi	a4,a0,4
d:\PDS\test\Sparrow_RISC-V\MRS\obj/../lib/perip/src/uart.c:59 (discriminator 1)
     264:	00072783          	lw	a5,0(a4)
     268:	0017f793          	andi	a5,a5,1
     26c:	fe079ce3          	bnez	a5,264 <uart_send_date+0x4>
d:\PDS\test\Sparrow_RISC-V\MRS\obj/../lib/perip/src/uart.c:60
    SYS_RWMEM_W(UART_TXDATA(UARTx)) = uart_send;
     270:	00b52623          	sw	a1,12(a0)
d:\PDS\test\Sparrow_RISC-V\MRS\obj/../lib/perip/src/uart.c:61
}
     274:	00008067          	ret

00000278 <_out_null>:
_out_null():
d:\PDS\test\Sparrow_RISC-V\MRS\obj/../lib/driver/src/printf.c:169

// internal null output
static inline void _out_null(char character, void* buffer, size_t idx, size_t maxlen)
{
  (void)character; (void)buffer; (void)idx; (void)maxlen;
}
     278:	00008067          	ret

0000027c <_ntoa_format>:
_ntoa_format():
d:\PDS\test\Sparrow_RISC-V\MRS\obj/../lib/driver/src/printf.c:252
}


// internal itoa format
static size_t _ntoa_format(out_fct_type out, char* buffer, size_t idx, size_t maxlen, char* buf, size_t len, bool negative, unsigned int base, unsigned int prec, unsigned int width, unsigned int flags)
{
     27c:	fd010113          	addi	sp,sp,-48
     280:	03812303          	lw	t1,56(sp)
     284:	02812423          	sw	s0,40(sp)
     288:	03212023          	sw	s2,32(sp)
     28c:	01312e23          	sw	s3,28(sp)
     290:	01412c23          	sw	s4,24(sp)
     294:	01512a23          	sw	s5,20(sp)
     298:	01612823          	sw	s6,16(sp)
     29c:	01712623          	sw	s7,12(sp)
     2a0:	01812423          	sw	s8,8(sp)
     2a4:	02112623          	sw	ra,44(sp)
     2a8:	02912223          	sw	s1,36(sp)
     2ac:	01912223          	sw	s9,4(sp)
d:\PDS\test\Sparrow_RISC-V\MRS\obj/../lib/driver/src/printf.c:254
  // pad leading zeros
  if (!(flags & FLAGS_LEFT)) {
     2b0:	00237c13          	andi	s8,t1,2
d:\PDS\test\Sparrow_RISC-V\MRS\obj/../lib/driver/src/printf.c:252
{
     2b4:	03012e03          	lw	t3,48(sp)
     2b8:	03412b83          	lw	s7,52(sp)
     2bc:	00050993          	mv	s3,a0
     2c0:	00058a13          	mv	s4,a1
     2c4:	00060b13          	mv	s6,a2
     2c8:	00068a93          	mv	s5,a3
     2cc:	00070913          	mv	s2,a4
     2d0:	00078413          	mv	s0,a5
d:\PDS\test\Sparrow_RISC-V\MRS\obj/../lib/driver/src/printf.c:254
  if (!(flags & FLAGS_LEFT)) {
     2d4:	060c1463          	bnez	s8,33c <_ntoa_format+0xc0>
d:\PDS\test\Sparrow_RISC-V\MRS\obj/../lib/driver/src/printf.c:255
    if (width && (flags & FLAGS_ZEROPAD) && (negative || (flags & (FLAGS_PLUS | FLAGS_SPACE)))) {
     2d8:	160b9463          	bnez	s7,440 <_ntoa_format+0x1c4>
d:\PDS\test\Sparrow_RISC-V\MRS\obj/../lib/driver/src/printf.c:258
      width--;
    }
    while ((len < prec) && (len < PRINTF_NTOA_BUFFER_SIZE)) {
     2dc:	07c7f063          	bgeu	a5,t3,33c <_ntoa_format+0xc0>
     2e0:	02000793          	li	a5,32
d:\PDS\test\Sparrow_RISC-V\MRS\obj/../lib/driver/src/printf.c:255
    if (width && (flags & FLAGS_ZEROPAD) && (negative || (flags & (FLAGS_PLUS | FLAGS_SPACE)))) {
     2e4:	00137613          	andi	a2,t1,1
d:\PDS\test\Sparrow_RISC-V\MRS\obj/../lib/driver/src/printf.c:258
    while ((len < prec) && (len < PRINTF_NTOA_BUFFER_SIZE)) {
     2e8:	3cf40e63          	beq	s0,a5,6c4 <_ntoa_format+0x448>
d:\PDS\test\Sparrow_RISC-V\MRS\obj/../lib/driver/src/printf.c:259
      buf[len++] = '0';
     2ec:	03000713          	li	a4,48
d:\PDS\test\Sparrow_RISC-V\MRS\obj/../lib/driver/src/printf.c:258
    while ((len < prec) && (len < PRINTF_NTOA_BUFFER_SIZE)) {
     2f0:	02000693          	li	a3,32
     2f4:	0080006f          	j	2fc <_ntoa_format+0x80>
d:\PDS\test\Sparrow_RISC-V\MRS\obj/../lib/driver/src/printf.c:258 (discriminator 1)
     2f8:	20d40a63          	beq	s0,a3,50c <_ntoa_format+0x290>
d:\PDS\test\Sparrow_RISC-V\MRS\obj/../lib/driver/src/printf.c:259
      buf[len++] = '0';
     2fc:	00140413          	addi	s0,s0,1
     300:	008907b3          	add	a5,s2,s0
     304:	fee78fa3          	sb	a4,-1(a5)
d:\PDS\test\Sparrow_RISC-V\MRS\obj/../lib/driver/src/printf.c:258
    while ((len < prec) && (len < PRINTF_NTOA_BUFFER_SIZE)) {
     308:	ffc468e3          	bltu	s0,t3,2f8 <_ntoa_format+0x7c>
d:\PDS\test\Sparrow_RISC-V\MRS\obj/../lib/driver/src/printf.c:261
    }
    while ((flags & FLAGS_ZEROPAD) && (len < width) && (len < PRINTF_NTOA_BUFFER_SIZE)) {
     30c:	02060863          	beqz	a2,33c <_ntoa_format+0xc0>
     310:	03747663          	bgeu	s0,s7,33c <_ntoa_format+0xc0>
     314:	02000793          	li	a5,32
d:\PDS\test\Sparrow_RISC-V\MRS\obj/../lib/driver/src/printf.c:262
      buf[len++] = '0';
     318:	03000713          	li	a4,48
d:\PDS\test\Sparrow_RISC-V\MRS\obj/../lib/driver/src/printf.c:261
    while ((flags & FLAGS_ZEROPAD) && (len < width) && (len < PRINTF_NTOA_BUFFER_SIZE)) {
     31c:	02000693          	li	a3,32
     320:	00f41663          	bne	s0,a5,32c <_ntoa_format+0xb0>
     324:	1f00006f          	j	514 <_ntoa_format+0x298>
d:\PDS\test\Sparrow_RISC-V\MRS\obj/../lib/driver/src/printf.c:261 (discriminator 2)
     328:	14d40863          	beq	s0,a3,478 <_ntoa_format+0x1fc>
d:\PDS\test\Sparrow_RISC-V\MRS\obj/../lib/driver/src/printf.c:262
      buf[len++] = '0';
     32c:	00140413          	addi	s0,s0,1
     330:	008907b3          	add	a5,s2,s0
     334:	fee78fa3          	sb	a4,-1(a5)
d:\PDS\test\Sparrow_RISC-V\MRS\obj/../lib/driver/src/printf.c:261
    while ((flags & FLAGS_ZEROPAD) && (len < width) && (len < PRINTF_NTOA_BUFFER_SIZE)) {
     338:	ff7418e3          	bne	s0,s7,328 <_ntoa_format+0xac>
d:\PDS\test\Sparrow_RISC-V\MRS\obj/../lib/driver/src/printf.c:267
    }
  }

  // handle hash
  if (flags & FLAGS_HASH) {
     33c:	01037793          	andi	a5,t1,16
     340:	0e078263          	beqz	a5,424 <_ntoa_format+0x1a8>
d:\PDS\test\Sparrow_RISC-V\MRS\obj/../lib/driver/src/printf.c:268
    if (!(flags & FLAGS_PRECISION) && len && ((len == prec) || (len == width))) {
     344:	40037793          	andi	a5,t1,1024
     348:	14079663          	bnez	a5,494 <_ntoa_format+0x218>
d:\PDS\test\Sparrow_RISC-V\MRS\obj/../lib/driver/src/printf.c:268 (discriminator 1)
     34c:	14041063          	bnez	s0,48c <_ntoa_format+0x210>
d:\PDS\test\Sparrow_RISC-V\MRS\obj/../lib/driver/src/printf.c:274
      len--;
      if (len && (base == 16U)) {
        len--;
      }
    }
    if ((base == 16U) && !(flags & FLAGS_UPPERCASE) && (len < PRINTF_NTOA_BUFFER_SIZE)) {
     350:	01000793          	li	a5,16
     354:	2cf88263          	beq	a7,a5,618 <_ntoa_format+0x39c>
d:\PDS\test\Sparrow_RISC-V\MRS\obj/../lib/driver/src/printf.c:280
      buf[len++] = 'x';
    }
    else if ((base == 16U) && (flags & FLAGS_UPPERCASE) && (len < PRINTF_NTOA_BUFFER_SIZE)) {
      buf[len++] = 'X';
    }
    else if ((base == 2U) && (len < PRINTF_NTOA_BUFFER_SIZE)) {
     358:	00200793          	li	a5,2
     35c:	36f88063          	beq	a7,a5,6bc <_ntoa_format+0x440>
d:\PDS\test\Sparrow_RISC-V\MRS\obj/../lib/driver/src/printf.c:284
      buf[len++] = 'b';
    }
    if (len < PRINTF_NTOA_BUFFER_SIZE) {
      buf[len++] = '0';
     360:	03000793          	li	a5,48
     364:	00f90023          	sb	a5,0(s2)
     368:	00100413          	li	s0,1
     36c:	00337793          	andi	a5,t1,3
d:\PDS\test\Sparrow_RISC-V\MRS\obj/../lib/driver/src/printf.c:289
    }
  }

  if (len < PRINTF_NTOA_BUFFER_SIZE) {
    if (negative) {
     370:	1e081a63          	bnez	a6,564 <_ntoa_format+0x2e8>
d:\PDS\test\Sparrow_RISC-V\MRS\obj/../lib/driver/src/printf.c:292
      buf[len++] = '-';
    }
    else if (flags & FLAGS_PLUS) {
     374:	00437713          	andi	a4,t1,4
     378:	28070263          	beqz	a4,5fc <_ntoa_format+0x380>
d:\PDS\test\Sparrow_RISC-V\MRS\obj/../lib/driver/src/printf.c:293
      buf[len++] = '+';  // ignore the space if the '+' exists
     37c:	00890733          	add	a4,s2,s0
     380:	02b00693          	li	a3,43
     384:	00d70023          	sb	a3,0(a4)
     388:	00140413          	addi	s0,s0,1
_out_rev():
d:\PDS\test\Sparrow_RISC-V\MRS\obj/../lib/driver/src/printf.c:228
  if (!(flags & FLAGS_LEFT) && !(flags & FLAGS_ZEROPAD)) {
     38c:	000b0493          	mv	s1,s6
     390:	00079463          	bnez	a5,398 <_ntoa_format+0x11c>
d:\PDS\test\Sparrow_RISC-V\MRS\obj/../lib/driver/src/printf.c:229
    for (size_t i = len; i < width; i++) {
     394:	13746663          	bltu	s0,s7,4c0 <_ntoa_format+0x244>
     398:	00940cb3          	add	s9,s0,s1
     39c:	408c8633          	sub	a2,s9,s0
d:\PDS\test\Sparrow_RISC-V\MRS\obj/../lib/driver/src/printf.c:236
    out(buf[--len], buffer, idx++, maxlen);
     3a0:	fff40413          	addi	s0,s0,-1
     3a4:	008907b3          	add	a5,s2,s0
     3a8:	0007c503          	lbu	a0,0(a5)
     3ac:	000a8693          	mv	a3,s5
     3b0:	000a0593          	mv	a1,s4
     3b4:	000c8493          	mv	s1,s9
     3b8:	000980e7          	jalr	s3
d:\PDS\test\Sparrow_RISC-V\MRS\obj/../lib/driver/src/printf.c:235
  while (len) {
     3bc:	fe0410e3          	bnez	s0,39c <_ntoa_format+0x120>
d:\PDS\test\Sparrow_RISC-V\MRS\obj/../lib/driver/src/printf.c:240
  if (flags & FLAGS_LEFT) {
     3c0:	020c0663          	beqz	s8,3ec <_ntoa_format+0x170>
d:\PDS\test\Sparrow_RISC-V\MRS\obj/../lib/driver/src/printf.c:241
    while (idx - start_idx < width) {
     3c4:	41648b33          	sub	s6,s1,s6
     3c8:	037b7263          	bgeu	s6,s7,3ec <_ntoa_format+0x170>
d:\PDS\test\Sparrow_RISC-V\MRS\obj/../lib/driver/src/printf.c:242
      out(' ', buffer, idx++, maxlen);
     3cc:	00048613          	mv	a2,s1
d:\PDS\test\Sparrow_RISC-V\MRS\obj/../lib/driver/src/printf.c:241
    while (idx - start_idx < width) {
     3d0:	001b0b13          	addi	s6,s6,1
d:\PDS\test\Sparrow_RISC-V\MRS\obj/../lib/driver/src/printf.c:242
      out(' ', buffer, idx++, maxlen);
     3d4:	000a8693          	mv	a3,s5
     3d8:	000a0593          	mv	a1,s4
     3dc:	02000513          	li	a0,32
     3e0:	00148493          	addi	s1,s1,1
     3e4:	000980e7          	jalr	s3
d:\PDS\test\Sparrow_RISC-V\MRS\obj/../lib/driver/src/printf.c:241
    while (idx - start_idx < width) {
     3e8:	ff7b62e3          	bltu	s6,s7,3cc <_ntoa_format+0x150>
_ntoa_format():
d:\PDS\test\Sparrow_RISC-V\MRS\obj/../lib/driver/src/printf.c:301
      buf[len++] = ' ';
    }
  }

  return _out_rev(out, buffer, idx, maxlen, buf, len, width, flags);
}
     3ec:	02c12083          	lw	ra,44(sp)
     3f0:	02812403          	lw	s0,40(sp)
     3f4:	02012903          	lw	s2,32(sp)
     3f8:	01c12983          	lw	s3,28(sp)
     3fc:	01812a03          	lw	s4,24(sp)
     400:	01412a83          	lw	s5,20(sp)
     404:	01012b03          	lw	s6,16(sp)
     408:	00c12b83          	lw	s7,12(sp)
     40c:	00812c03          	lw	s8,8(sp)
     410:	00412c83          	lw	s9,4(sp)
     414:	00048513          	mv	a0,s1
     418:	02412483          	lw	s1,36(sp)
     41c:	03010113          	addi	sp,sp,48
     420:	00008067          	ret
     424:	00337793          	andi	a5,t1,3
d:\PDS\test\Sparrow_RISC-V\MRS\obj/../lib/driver/src/printf.c:288
  if (len < PRINTF_NTOA_BUFFER_SIZE) {
     428:	02000713          	li	a4,32
     42c:	f4e412e3          	bne	s0,a4,370 <_ntoa_format+0xf4>
_out_rev():
d:\PDS\test\Sparrow_RISC-V\MRS\obj/../lib/driver/src/printf.c:228
  if (!(flags & FLAGS_LEFT) && !(flags & FLAGS_ZEROPAD)) {
     430:	00079463          	bnez	a5,438 <_ntoa_format+0x1bc>
d:\PDS\test\Sparrow_RISC-V\MRS\obj/../lib/driver/src/printf.c:229
    for (size_t i = len; i < width; i++) {
     434:	09746663          	bltu	s0,s7,4c0 <_ntoa_format+0x244>
d:\PDS\test\Sparrow_RISC-V\MRS\obj/../lib/driver/src/printf.c:228
  if (!(flags & FLAGS_LEFT) && !(flags & FLAGS_ZEROPAD)) {
     438:	000b0493          	mv	s1,s6
     43c:	f5dff06f          	j	398 <_ntoa_format+0x11c>
_ntoa_format():
d:\PDS\test\Sparrow_RISC-V\MRS\obj/../lib/driver/src/printf.c:255 (discriminator 1)
    if (width && (flags & FLAGS_ZEROPAD) && (negative || (flags & (FLAGS_PLUS | FLAGS_SPACE)))) {
     440:	00137613          	andi	a2,t1,1
     444:	12060a63          	beqz	a2,578 <_ntoa_format+0x2fc>
d:\PDS\test\Sparrow_RISC-V\MRS\obj/../lib/driver/src/printf.c:255 (discriminator 2)
     448:	16081663          	bnez	a6,5b4 <_ntoa_format+0x338>
d:\PDS\test\Sparrow_RISC-V\MRS\obj/../lib/driver/src/printf.c:255 (discriminator 3)
     44c:	00c37793          	andi	a5,t1,12
     450:	16079263          	bnez	a5,5b4 <_ntoa_format+0x338>
d:\PDS\test\Sparrow_RISC-V\MRS\obj/../lib/driver/src/printf.c:258
    while ((len < prec) && (len < PRINTF_NTOA_BUFFER_SIZE)) {
     454:	ebc47ee3          	bgeu	s0,t3,310 <_ntoa_format+0x94>
     458:	02000793          	li	a5,32
     45c:	e8f418e3          	bne	s0,a5,2ec <_ntoa_format+0x70>
d:\PDS\test\Sparrow_RISC-V\MRS\obj/../lib/driver/src/printf.c:267
  if (flags & FLAGS_HASH) {
     460:	01037793          	andi	a5,t1,16
d:\PDS\test\Sparrow_RISC-V\MRS\obj/../lib/driver/src/printf.c:261
    while ((flags & FLAGS_ZEROPAD) && (len < width) && (len < PRINTF_NTOA_BUFFER_SIZE)) {
     464:	0b746863          	bltu	s0,s7,514 <_ntoa_format+0x298>
d:\PDS\test\Sparrow_RISC-V\MRS\obj/../lib/driver/src/printf.c:267
  if (flags & FLAGS_HASH) {
     468:	ec079ee3          	bnez	a5,344 <_ntoa_format+0xc8>
     46c:	00337793          	andi	a5,t1,3
_out_rev():
d:\PDS\test\Sparrow_RISC-V\MRS\obj/../lib/driver/src/printf.c:228
  if (!(flags & FLAGS_LEFT) && !(flags & FLAGS_ZEROPAD)) {
     470:	fc0794e3          	bnez	a5,438 <_ntoa_format+0x1bc>
     474:	fc1ff06f          	j	434 <_ntoa_format+0x1b8>
_ntoa_format():
d:\PDS\test\Sparrow_RISC-V\MRS\obj/../lib/driver/src/printf.c:267
  if (flags & FLAGS_HASH) {
     478:	01037793          	andi	a5,t1,16
     47c:	14078663          	beqz	a5,5c8 <_ntoa_format+0x34c>
d:\PDS\test\Sparrow_RISC-V\MRS\obj/../lib/driver/src/printf.c:268
    if (!(flags & FLAGS_PRECISION) && len && ((len == prec) || (len == width))) {
     480:	40037793          	andi	a5,t1,1024
     484:	02000413          	li	s0,32
     488:	00079663          	bnez	a5,494 <_ntoa_format+0x218>
d:\PDS\test\Sparrow_RISC-V\MRS\obj/../lib/driver/src/printf.c:268 (discriminator 2)
     48c:	128e0863          	beq	t3,s0,5bc <_ntoa_format+0x340>
d:\PDS\test\Sparrow_RISC-V\MRS\obj/../lib/driver/src/printf.c:268 (discriminator 3)
     490:	13740663          	beq	s0,s7,5bc <_ntoa_format+0x340>
d:\PDS\test\Sparrow_RISC-V\MRS\obj/../lib/driver/src/printf.c:274
    if ((base == 16U) && !(flags & FLAGS_UPPERCASE) && (len < PRINTF_NTOA_BUFFER_SIZE)) {
     494:	01000793          	li	a5,16
     498:	12f88e63          	beq	a7,a5,5d4 <_ntoa_format+0x358>
d:\PDS\test\Sparrow_RISC-V\MRS\obj/../lib/driver/src/printf.c:280
    else if ((base == 2U) && (len < PRINTF_NTOA_BUFFER_SIZE)) {
     49c:	00200793          	li	a5,2
     4a0:	0ef88c63          	beq	a7,a5,598 <_ntoa_format+0x31c>
_out_rev():
d:\PDS\test\Sparrow_RISC-V\MRS\obj/../lib/driver/src/printf.c:228
  if (!(flags & FLAGS_LEFT) && !(flags & FLAGS_ZEROPAD)) {
     4a4:	00337793          	andi	a5,t1,3
_ntoa_format():
d:\PDS\test\Sparrow_RISC-V\MRS\obj/../lib/driver/src/printf.c:283
    if (len < PRINTF_NTOA_BUFFER_SIZE) {
     4a8:	02000693          	li	a3,32
_out_rev():
d:\PDS\test\Sparrow_RISC-V\MRS\obj/../lib/driver/src/printf.c:228
  if (!(flags & FLAGS_LEFT) && !(flags & FLAGS_ZEROPAD)) {
     4ac:	00078713          	mv	a4,a5
_ntoa_format():
d:\PDS\test\Sparrow_RISC-V\MRS\obj/../lib/driver/src/printf.c:283
    if (len < PRINTF_NTOA_BUFFER_SIZE) {
     4b0:	1ed41463          	bne	s0,a3,698 <_ntoa_format+0x41c>
_out_rev():
d:\PDS\test\Sparrow_RISC-V\MRS\obj/../lib/driver/src/printf.c:228
  if (!(flags & FLAGS_LEFT) && !(flags & FLAGS_ZEROPAD)) {
     4b4:	0e071a63          	bnez	a4,5a8 <_ntoa_format+0x32c>
d:\PDS\test\Sparrow_RISC-V\MRS\obj/../lib/driver/src/printf.c:229
    for (size_t i = len; i < width; i++) {
     4b8:	02000413          	li	s0,32
     4bc:	f7747ee3          	bgeu	s0,s7,438 <_ntoa_format+0x1bc>
     4c0:	000b0493          	mv	s1,s6
     4c4:	41640cb3          	sub	s9,s0,s6
d:\PDS\test\Sparrow_RISC-V\MRS\obj/../lib/driver/src/printf.c:230
      out(' ', buffer, idx++, maxlen);
     4c8:	00048613          	mv	a2,s1
     4cc:	000a8693          	mv	a3,s5
     4d0:	000a0593          	mv	a1,s4
     4d4:	02000513          	li	a0,32
     4d8:	00148493          	addi	s1,s1,1
     4dc:	000980e7          	jalr	s3
d:\PDS\test\Sparrow_RISC-V\MRS\obj/../lib/driver/src/printf.c:229
    for (size_t i = len; i < width; i++) {
     4e0:	009c87b3          	add	a5,s9,s1
     4e4:	ff77e2e3          	bltu	a5,s7,4c8 <_ntoa_format+0x24c>
d:\PDS\test\Sparrow_RISC-V\MRS\obj/../lib/driver/src/printf.c:230
      out(' ', buffer, idx++, maxlen);
     4e8:	00140793          	addi	a5,s0,1
     4ec:	00000493          	li	s1,0
     4f0:	00fbe663          	bltu	s7,a5,4fc <_ntoa_format+0x280>
     4f4:	fffb8493          	addi	s1,s7,-1
     4f8:	408484b3          	sub	s1,s1,s0
     4fc:	001b0793          	addi	a5,s6,1
     500:	00f484b3          	add	s1,s1,a5
d:\PDS\test\Sparrow_RISC-V\MRS\obj/../lib/driver/src/printf.c:235
  while (len) {
     504:	e8041ae3          	bnez	s0,398 <_ntoa_format+0x11c>
     508:	eb9ff06f          	j	3c0 <_ntoa_format+0x144>
_ntoa_format():
d:\PDS\test\Sparrow_RISC-V\MRS\obj/../lib/driver/src/printf.c:261
    while ((flags & FLAGS_ZEROPAD) && (len < width) && (len < PRINTF_NTOA_BUFFER_SIZE)) {
     50c:	1c060e63          	beqz	a2,6e8 <_ntoa_format+0x46c>
     510:	f77474e3          	bgeu	s0,s7,478 <_ntoa_format+0x1fc>
d:\PDS\test\Sparrow_RISC-V\MRS\obj/../lib/driver/src/printf.c:267
  if (flags & FLAGS_HASH) {
     514:	01037793          	andi	a5,t1,16
     518:	0a078863          	beqz	a5,5c8 <_ntoa_format+0x34c>
d:\PDS\test\Sparrow_RISC-V\MRS\obj/../lib/driver/src/printf.c:268
    if (!(flags & FLAGS_PRECISION) && len && ((len == prec) || (len == width))) {
     51c:	40037793          	andi	a5,t1,1024
     520:	1e079263          	bnez	a5,704 <_ntoa_format+0x488>
     524:	02000793          	li	a5,32
     528:	1efe0a63          	beq	t3,a5,71c <_ntoa_format+0x4a0>
     52c:	02000413          	li	s0,32
     530:	f6fb92e3          	bne	s7,a5,494 <_ntoa_format+0x218>
d:\PDS\test\Sparrow_RISC-V\MRS\obj/../lib/driver/src/printf.c:269
      len--;
     534:	02000b93          	li	s7,32
     538:	02000413          	li	s0,32
     53c:	01f00713          	li	a4,31
d:\PDS\test\Sparrow_RISC-V\MRS\obj/../lib/driver/src/printf.c:270
      if (len && (base == 16U)) {
     540:	01000793          	li	a5,16
     544:	12f88a63          	beq	a7,a5,678 <_ntoa_format+0x3fc>
d:\PDS\test\Sparrow_RISC-V\MRS\obj/../lib/driver/src/printf.c:280
    else if ((base == 2U) && (len < PRINTF_NTOA_BUFFER_SIZE)) {
     548:	00200793          	li	a5,2
     54c:	16f88063          	beq	a7,a5,6ac <_ntoa_format+0x430>
     550:	00337793          	andi	a5,t1,3
d:\PDS\test\Sparrow_RISC-V\MRS\obj/../lib/driver/src/printf.c:284
      buf[len++] = '0';
     554:	00e90733          	add	a4,s2,a4
     558:	03000693          	li	a3,48
     55c:	00d70023          	sb	a3,0(a4)
     560:	ec9ff06f          	j	428 <_ntoa_format+0x1ac>
d:\PDS\test\Sparrow_RISC-V\MRS\obj/../lib/driver/src/printf.c:290
      buf[len++] = '-';
     564:	00890733          	add	a4,s2,s0
     568:	02d00693          	li	a3,45
     56c:	00d70023          	sb	a3,0(a4)
     570:	00140413          	addi	s0,s0,1
     574:	e19ff06f          	j	38c <_ntoa_format+0x110>
d:\PDS\test\Sparrow_RISC-V\MRS\obj/../lib/driver/src/printf.c:258
    while ((len < prec) && (len < PRINTF_NTOA_BUFFER_SIZE)) {
     578:	ddc7f2e3          	bgeu	a5,t3,33c <_ntoa_format+0xc0>
     57c:	02000793          	li	a5,32
     580:	d6f416e3          	bne	s0,a5,2ec <_ntoa_format+0x70>
d:\PDS\test\Sparrow_RISC-V\MRS\obj/../lib/driver/src/printf.c:267
  if (flags & FLAGS_HASH) {
     584:	01037793          	andi	a5,t1,16
     588:	ee0782e3          	beqz	a5,46c <_ntoa_format+0x1f0>
d:\PDS\test\Sparrow_RISC-V\MRS\obj/../lib/driver/src/printf.c:268
    if (!(flags & FLAGS_PRECISION) && len && ((len == prec) || (len == width))) {
     58c:	40037793          	andi	a5,t1,1024
     590:	f00792e3          	bnez	a5,494 <_ntoa_format+0x218>
     594:	ef9ff06f          	j	48c <_ntoa_format+0x210>
d:\PDS\test\Sparrow_RISC-V\MRS\obj/../lib/driver/src/printf.c:280 (discriminator 1)
    else if ((base == 2U) && (len < PRINTF_NTOA_BUFFER_SIZE)) {
     598:	02000793          	li	a5,32
     59c:	10f41463          	bne	s0,a5,6a4 <_ntoa_format+0x428>
_out_rev():
d:\PDS\test\Sparrow_RISC-V\MRS\obj/../lib/driver/src/printf.c:228
  if (!(flags & FLAGS_LEFT) && !(flags & FLAGS_ZEROPAD)) {
     5a0:	00337313          	andi	t1,t1,3
     5a4:	f0030ae3          	beqz	t1,4b8 <_ntoa_format+0x23c>
     5a8:	000b0493          	mv	s1,s6
     5ac:	02000413          	li	s0,32
     5b0:	de9ff06f          	j	398 <_ntoa_format+0x11c>
_ntoa_format():
d:\PDS\test\Sparrow_RISC-V\MRS\obj/../lib/driver/src/printf.c:256
      width--;
     5b4:	fffb8b93          	addi	s7,s7,-1
     5b8:	e9dff06f          	j	454 <_ntoa_format+0x1d8>
d:\PDS\test\Sparrow_RISC-V\MRS\obj/../lib/driver/src/printf.c:269
      len--;
     5bc:	fff40713          	addi	a4,s0,-1
d:\PDS\test\Sparrow_RISC-V\MRS\obj/../lib/driver/src/printf.c:270
      if (len && (base == 16U)) {
     5c0:	d80708e3          	beqz	a4,350 <_ntoa_format+0xd4>
     5c4:	f7dff06f          	j	540 <_ntoa_format+0x2c4>
d:\PDS\test\Sparrow_RISC-V\MRS\obj/../lib/driver/src/printf.c:267
  if (flags & FLAGS_HASH) {
     5c8:	02000413          	li	s0,32
     5cc:	00337793          	andi	a5,t1,3
     5d0:	ea1ff06f          	j	470 <_ntoa_format+0x1f4>
d:\PDS\test\Sparrow_RISC-V\MRS\obj/../lib/driver/src/printf.c:274 (discriminator 1)
    if ((base == 16U) && !(flags & FLAGS_UPPERCASE) && (len < PRINTF_NTOA_BUFFER_SIZE)) {
     5d4:	02037793          	andi	a5,t1,32
     5d8:	06079463          	bnez	a5,640 <_ntoa_format+0x3c4>
d:\PDS\test\Sparrow_RISC-V\MRS\obj/../lib/driver/src/printf.c:274 (discriminator 2)
     5dc:	02000713          	li	a4,32
     5e0:	00337793          	andi	a5,t1,3
     5e4:	dae404e3          	beq	s0,a4,38c <_ntoa_format+0x110>
d:\PDS\test\Sparrow_RISC-V\MRS\obj/../lib/driver/src/printf.c:275
      buf[len++] = 'x';
     5e8:	008907b3          	add	a5,s2,s0
     5ec:	07800713          	li	a4,120
     5f0:	00e78023          	sb	a4,0(a5)
     5f4:	00140413          	addi	s0,s0,1
     5f8:	eadff06f          	j	4a4 <_ntoa_format+0x228>
d:\PDS\test\Sparrow_RISC-V\MRS\obj/../lib/driver/src/printf.c:295
    else if (flags & FLAGS_SPACE) {
     5fc:	00837313          	andi	t1,t1,8
     600:	04031e63          	bnez	t1,65c <_ntoa_format+0x3e0>
_out_rev():
d:\PDS\test\Sparrow_RISC-V\MRS\obj/../lib/driver/src/printf.c:228
  if (!(flags & FLAGS_LEFT) && !(flags & FLAGS_ZEROPAD)) {
     604:	000b0493          	mv	s1,s6
     608:	ee079ee3          	bnez	a5,504 <_ntoa_format+0x288>
d:\PDS\test\Sparrow_RISC-V\MRS\obj/../lib/driver/src/printf.c:229
    for (size_t i = len; i < width; i++) {
     60c:	eb746ae3          	bltu	s0,s7,4c0 <_ntoa_format+0x244>
d:\PDS\test\Sparrow_RISC-V\MRS\obj/../lib/driver/src/printf.c:235
  while (len) {
     610:	d80414e3          	bnez	s0,398 <_ntoa_format+0x11c>
     614:	dadff06f          	j	3c0 <_ntoa_format+0x144>
_ntoa_format():
d:\PDS\test\Sparrow_RISC-V\MRS\obj/../lib/driver/src/printf.c:274
    if ((base == 16U) && !(flags & FLAGS_UPPERCASE) && (len < PRINTF_NTOA_BUFFER_SIZE)) {
     618:	02037793          	andi	a5,t1,32
     61c:	04079a63          	bnez	a5,670 <_ntoa_format+0x3f4>
     620:	07800793          	li	a5,120
d:\PDS\test\Sparrow_RISC-V\MRS\obj/../lib/driver/src/printf.c:275
      buf[len++] = 'x';
     624:	00f90023          	sb	a5,0(s2)
d:\PDS\test\Sparrow_RISC-V\MRS\obj/../lib/driver/src/printf.c:284
      buf[len++] = '0';
     628:	03000793          	li	a5,48
     62c:	00f900a3          	sb	a5,1(s2)
     630:	00200413          	li	s0,2
     634:	00337793          	andi	a5,t1,3
d:\PDS\test\Sparrow_RISC-V\MRS\obj/../lib/driver/src/printf.c:289
    if (negative) {
     638:	d2080ee3          	beqz	a6,374 <_ntoa_format+0xf8>
     63c:	f29ff06f          	j	564 <_ntoa_format+0x2e8>
d:\PDS\test\Sparrow_RISC-V\MRS\obj/../lib/driver/src/printf.c:277
    else if ((base == 16U) && (flags & FLAGS_UPPERCASE) && (len < PRINTF_NTOA_BUFFER_SIZE)) {
     640:	02000793          	li	a5,32
     644:	f4f40ee3          	beq	s0,a5,5a0 <_ntoa_format+0x324>
d:\PDS\test\Sparrow_RISC-V\MRS\obj/../lib/driver/src/printf.c:278
      buf[len++] = 'X';
     648:	008907b3          	add	a5,s2,s0
     64c:	05800713          	li	a4,88
     650:	00e78023          	sb	a4,0(a5)
     654:	00140413          	addi	s0,s0,1
     658:	e4dff06f          	j	4a4 <_ntoa_format+0x228>
d:\PDS\test\Sparrow_RISC-V\MRS\obj/../lib/driver/src/printf.c:296
      buf[len++] = ' ';
     65c:	00890733          	add	a4,s2,s0
     660:	02000693          	li	a3,32
     664:	00d70023          	sb	a3,0(a4)
     668:	00140413          	addi	s0,s0,1
     66c:	d21ff06f          	j	38c <_ntoa_format+0x110>
d:\PDS\test\Sparrow_RISC-V\MRS\obj/../lib/driver/src/printf.c:278
      buf[len++] = 'X';
     670:	05800793          	li	a5,88
     674:	fb1ff06f          	j	624 <_ntoa_format+0x3a8>
d:\PDS\test\Sparrow_RISC-V\MRS\obj/../lib/driver/src/printf.c:271
        len--;
     678:	ffe40793          	addi	a5,s0,-2
d:\PDS\test\Sparrow_RISC-V\MRS\obj/../lib/driver/src/printf.c:274
    if ((base == 16U) && !(flags & FLAGS_UPPERCASE) && (len < PRINTF_NTOA_BUFFER_SIZE)) {
     67c:	02037693          	andi	a3,t1,32
d:\PDS\test\Sparrow_RISC-V\MRS\obj/../lib/driver/src/printf.c:275
      buf[len++] = 'x';
     680:	00f907b3          	add	a5,s2,a5
d:\PDS\test\Sparrow_RISC-V\MRS\obj/../lib/driver/src/printf.c:274
    if ((base == 16U) && !(flags & FLAGS_UPPERCASE) && (len < PRINTF_NTOA_BUFFER_SIZE)) {
     684:	04069863          	bnez	a3,6d4 <_ntoa_format+0x458>
d:\PDS\test\Sparrow_RISC-V\MRS\obj/../lib/driver/src/printf.c:275
      buf[len++] = 'x';
     688:	07800693          	li	a3,120
     68c:	00d78023          	sb	a3,0(a5)
     690:	00070413          	mv	s0,a4
     694:	00337793          	andi	a5,t1,3
_out_rev():
d:\PDS\test\Sparrow_RISC-V\MRS\obj/../lib/driver/src/printf.c:229
    for (size_t i = len; i < width; i++) {
     698:	00040713          	mv	a4,s0
     69c:	00140413          	addi	s0,s0,1
     6a0:	eb5ff06f          	j	554 <_ntoa_format+0x2d8>
     6a4:	00040713          	mv	a4,s0
     6a8:	00140413          	addi	s0,s0,1
_ntoa_format():
d:\PDS\test\Sparrow_RISC-V\MRS\obj/../lib/driver/src/printf.c:281
      buf[len++] = 'b';
     6ac:	00e90733          	add	a4,s2,a4
     6b0:	06200793          	li	a5,98
     6b4:	00f70023          	sb	a5,0(a4)
     6b8:	dedff06f          	j	4a4 <_ntoa_format+0x228>
d:\PDS\test\Sparrow_RISC-V\MRS\obj/../lib/driver/src/printf.c:280
    else if ((base == 2U) && (len < PRINTF_NTOA_BUFFER_SIZE)) {
     6bc:	06200793          	li	a5,98
     6c0:	f65ff06f          	j	624 <_ntoa_format+0x3a8>
d:\PDS\test\Sparrow_RISC-V\MRS\obj/../lib/driver/src/printf.c:267
  if (flags & FLAGS_HASH) {
     6c4:	01037793          	andi	a5,t1,16
d:\PDS\test\Sparrow_RISC-V\MRS\obj/../lib/driver/src/printf.c:261
    while ((flags & FLAGS_ZEROPAD) && (len < width) && (len < PRINTF_NTOA_BUFFER_SIZE)) {
     6c8:	ec0600e3          	beqz	a2,588 <_ntoa_format+0x30c>
d:\PDS\test\Sparrow_RISC-V\MRS\obj/../lib/driver/src/printf.c:267
  if (flags & FLAGS_HASH) {
     6cc:	c6079ce3          	bnez	a5,344 <_ntoa_format+0xc8>
     6d0:	d9dff06f          	j	46c <_ntoa_format+0x1f0>
d:\PDS\test\Sparrow_RISC-V\MRS\obj/../lib/driver/src/printf.c:278
      buf[len++] = 'X';
     6d4:	05800713          	li	a4,88
     6d8:	00e78023          	sb	a4,0(a5)
_out_rev():
d:\PDS\test\Sparrow_RISC-V\MRS\obj/../lib/driver/src/printf.c:229
    for (size_t i = len; i < width; i++) {
     6dc:	fff40413          	addi	s0,s0,-1
_ntoa_format():
d:\PDS\test\Sparrow_RISC-V\MRS\obj/../lib/driver/src/printf.c:283
    if (len < PRINTF_NTOA_BUFFER_SIZE) {
     6e0:	00337793          	andi	a5,t1,3
     6e4:	fb5ff06f          	j	698 <_ntoa_format+0x41c>
d:\PDS\test\Sparrow_RISC-V\MRS\obj/../lib/driver/src/printf.c:267
  if (flags & FLAGS_HASH) {
     6e8:	01037793          	andi	a5,t1,16
     6ec:	d80780e3          	beqz	a5,46c <_ntoa_format+0x1f0>
d:\PDS\test\Sparrow_RISC-V\MRS\obj/../lib/driver/src/printf.c:268
    if (!(flags & FLAGS_PRECISION) && len && ((len == prec) || (len == width))) {
     6f0:	40037793          	andi	a5,t1,1024
     6f4:	04079463          	bnez	a5,73c <_ntoa_format+0x4c0>
     6f8:	02000793          	li	a5,32
     6fc:	d8fb9ce3          	bne	s7,a5,494 <_ntoa_format+0x218>
     700:	e35ff06f          	j	534 <_ntoa_format+0x2b8>
d:\PDS\test\Sparrow_RISC-V\MRS\obj/../lib/driver/src/printf.c:274
    if ((base == 16U) && !(flags & FLAGS_UPPERCASE) && (len < PRINTF_NTOA_BUFFER_SIZE)) {
     704:	01000793          	li	a5,16
     708:	02f88063          	beq	a7,a5,728 <_ntoa_format+0x4ac>
d:\PDS\test\Sparrow_RISC-V\MRS\obj/../lib/driver/src/printf.c:280
    else if ((base == 2U) && (len < PRINTF_NTOA_BUFFER_SIZE)) {
     70c:	00200793          	li	a5,2
_out_rev():
d:\PDS\test\Sparrow_RISC-V\MRS\obj/../lib/driver/src/printf.c:228
  if (!(flags & FLAGS_LEFT) && !(flags & FLAGS_ZEROPAD)) {
     710:	00337713          	andi	a4,t1,3
_ntoa_format():
d:\PDS\test\Sparrow_RISC-V\MRS\obj/../lib/driver/src/printf.c:280
    else if ((base == 2U) && (len < PRINTF_NTOA_BUFFER_SIZE)) {
     714:	daf890e3          	bne	a7,a5,4b4 <_ntoa_format+0x238>
     718:	e89ff06f          	j	5a0 <_ntoa_format+0x324>
d:\PDS\test\Sparrow_RISC-V\MRS\obj/../lib/driver/src/printf.c:268
    if (!(flags & FLAGS_PRECISION) && len && ((len == prec) || (len == width))) {
     71c:	02000413          	li	s0,32
d:\PDS\test\Sparrow_RISC-V\MRS\obj/../lib/driver/src/printf.c:269
      len--;
     720:	01f00713          	li	a4,31
     724:	e1dff06f          	j	540 <_ntoa_format+0x2c4>
d:\PDS\test\Sparrow_RISC-V\MRS\obj/../lib/driver/src/printf.c:274
    if ((base == 16U) && !(flags & FLAGS_UPPERCASE) && (len < PRINTF_NTOA_BUFFER_SIZE)) {
     728:	02037793          	andi	a5,t1,32
     72c:	e6079ae3          	bnez	a5,5a0 <_ntoa_format+0x324>
     730:	02000413          	li	s0,32
     734:	00337793          	andi	a5,t1,3
     738:	c55ff06f          	j	38c <_ntoa_format+0x110>
     73c:	01000793          	li	a5,16
     740:	fcf896e3          	bne	a7,a5,70c <_ntoa_format+0x490>
     744:	02037793          	andi	a5,t1,32
     748:	e4079ce3          	bnez	a5,5a0 <_ntoa_format+0x324>
     74c:	00337793          	andi	a5,t1,3
     750:	c3dff06f          	j	38c <_ntoa_format+0x110>

00000754 <_out_char>:
_out_char():
d:\PDS\test\Sparrow_RISC-V\MRS\obj/../lib/driver/src/printf.c:176
  if (character) {
     754:	00050e63          	beqz	a0,770 <_out_char+0x1c>
_putchar():
d:\PDS\test\Sparrow_RISC-V\MRS\obj/../lib/driver/src/printf.c:57
  while (SYS_RWMEM_W(UART_STATUS(UART0)) & 0x1); //等待上一个操作结束
     758:	40000737          	lui	a4,0x40000
     75c:	00472783          	lw	a5,4(a4) # 40000004 <_sp+0x1ffc0004>
     760:	0017f793          	andi	a5,a5,1
     764:	fe079ce3          	bnez	a5,75c <_out_char+0x8>
d:\PDS\test\Sparrow_RISC-V\MRS\obj/../lib/driver/src/printf.c:58
  SYS_RWMEM_W(UART_TXDATA(UART0)) = character;
     768:	00a72623          	sw	a0,12(a4)
d:\PDS\test\Sparrow_RISC-V\MRS\obj/../lib/driver/src/printf.c:60
  write_csr(msprint, character);//msprint
     76c:	34651073          	csrw	0x346,a0
_out_char():
d:\PDS\test\Sparrow_RISC-V\MRS\obj/../lib/driver/src/printf.c:179
}
     770:	00008067          	ret

00000774 <_vsnprintf>:
_vsnprintf():
d:\PDS\test\Sparrow_RISC-V\MRS\obj/../lib/driver/src/printf.c:602
#endif  // PRINTF_SUPPORT_FLOAT


// internal vsnprintf
static int _vsnprintf(out_fct_type out, char* buffer, const size_t maxlen, const char* format, va_list va)
{
     774:	f6010113          	addi	sp,sp,-160
     778:	09212823          	sw	s2,144(sp)
     77c:	09312623          	sw	s3,140(sp)
     780:	09412423          	sw	s4,136(sp)
     784:	07812c23          	sw	s8,120(sp)
     788:	07a12823          	sw	s10,112(sp)
     78c:	08112e23          	sw	ra,156(sp)
     790:	08812c23          	sw	s0,152(sp)
     794:	08912a23          	sw	s1,148(sp)
     798:	09512223          	sw	s5,132(sp)
     79c:	09612023          	sw	s6,128(sp)
     7a0:	07712e23          	sw	s7,124(sp)
     7a4:	07912a23          	sw	s9,116(sp)
     7a8:	07b12623          	sw	s11,108(sp)
     7ac:	00058993          	mv	s3,a1
     7b0:	00060913          	mv	s2,a2
     7b4:	00068c13          	mv	s8,a3
     7b8:	00070d13          	mv	s10,a4
     7bc:	00050a13          	mv	s4,a0
d:\PDS\test\Sparrow_RISC-V\MRS\obj/../lib/driver/src/printf.c:606
  unsigned int flags, width, precision, n;
  size_t idx = 0U;

  if (!buffer) {
     7c0:	54058663          	beqz	a1,d0c <_vsnprintf+0x598>
d:\PDS\test\Sparrow_RISC-V\MRS\obj/../lib/driver/src/printf.c:611
    // use null output function
    out = _out_null;
  }

  while (*format)
     7c4:	000c4503          	lbu	a0,0(s8)
     7c8:	00000413          	li	s0,0
     7cc:	54050863          	beqz	a0,d1c <_vsnprintf+0x5a8>
d:\PDS\test\Sparrow_RISC-V\MRS\obj/../lib/driver/src/printf.c:707
      default :
        break;
    }

    // evaluate specifier
    switch (*format) {
     7d0:	001217b7          	lui	a5,0x121
d:\PDS\test\Sparrow_RISC-V\MRS\obj/../lib/driver/src/printf.c:628
      switch (*format) {
     7d4:	20000ab7          	lui	s5,0x20000
d:\PDS\test\Sparrow_RISC-V\MRS\obj/../lib/driver/src/printf.c:707
    switch (*format) {
     7d8:	82178793          	addi	a5,a5,-2015 # 120821 <_app_prog_size+0xe0821>
d:\PDS\test\Sparrow_RISC-V\MRS\obj/../lib/driver/src/printf.c:614
    if (*format != '%') {
     7dc:	02500b13          	li	s6,37
d:\PDS\test\Sparrow_RISC-V\MRS\obj/../lib/driver/src/printf.c:628
      switch (*format) {
     7e0:	01000493          	li	s1,16
     7e4:	000a8a93          	mv	s5,s5
d:\PDS\test\Sparrow_RISC-V\MRS\obj/../lib/driver/src/printf.c:640
    if (_is_digit(*format)) {
     7e8:	00900b93          	li	s7,9
d:\PDS\test\Sparrow_RISC-V\MRS\obj/../lib/driver/src/printf.c:707
    switch (*format) {
     7ec:	00f12c23          	sw	a5,24(sp)
     7f0:	00040313          	mv	t1,s0
     7f4:	0240006f          	j	818 <_vsnprintf+0xa4>
d:\PDS\test\Sparrow_RISC-V\MRS\obj/../lib/driver/src/printf.c:870
        out('%', buffer, idx++, maxlen);
        format++;
        break;

      default :
        out(*format, buffer, idx++, maxlen);
     7f8:	00030613          	mv	a2,t1
     7fc:	00090693          	mv	a3,s2
     800:	00098593          	mv	a1,s3
     804:	00130413          	addi	s0,t1,1
     808:	000a00e7          	jalr	s4
     80c:	00040313          	mv	t1,s0
d:\PDS\test\Sparrow_RISC-V\MRS\obj/../lib/driver/src/printf.c:611
  while (*format)
     810:	000c4503          	lbu	a0,0(s8)
     814:	10050663          	beqz	a0,920 <_vsnprintf+0x1ac>
d:\PDS\test\Sparrow_RISC-V\MRS\obj/../lib/driver/src/printf.c:617
      format++;
     818:	001c0c13          	addi	s8,s8,1
d:\PDS\test\Sparrow_RISC-V\MRS\obj/../lib/driver/src/printf.c:614
    if (*format != '%') {
     81c:	fd651ee3          	bne	a0,s6,7f8 <_vsnprintf+0x84>
d:\PDS\test\Sparrow_RISC-V\MRS\obj/../lib/driver/src/printf.c:626
    flags = 0U;
     820:	00000693          	li	a3,0
d:\PDS\test\Sparrow_RISC-V\MRS\obj/../lib/driver/src/printf.c:628
      switch (*format) {
     824:	000c4503          	lbu	a0,0(s8)
d:\PDS\test\Sparrow_RISC-V\MRS\obj/../lib/driver/src/printf.c:652
      format++;
     828:	001c0713          	addi	a4,s8,1
d:\PDS\test\Sparrow_RISC-V\MRS\obj/../lib/driver/src/printf.c:628
      switch (*format) {
     82c:	fe050793          	addi	a5,a0,-32
     830:	0ff7f793          	zext.b	a5,a5
     834:	00f4ea63          	bltu	s1,a5,848 <_vsnprintf+0xd4>
     838:	00279793          	slli	a5,a5,0x2
     83c:	015787b3          	add	a5,a5,s5
     840:	0007a783          	lw	a5,0(a5)
     844:	00078067          	jr	a5
_is_digit():
d:\PDS\test\Sparrow_RISC-V\MRS\obj/../lib/driver/src/printf.c:207
  return (ch >= '0') && (ch <= '9');
     848:	fd050793          	addi	a5,a0,-48
_vsnprintf():
d:\PDS\test\Sparrow_RISC-V\MRS\obj/../lib/driver/src/printf.c:640
    if (_is_digit(*format)) {
     84c:	0ff7f793          	zext.b	a5,a5
     850:	2cfbfc63          	bgeu	s7,a5,b28 <_vsnprintf+0x3b4>
d:\PDS\test\Sparrow_RISC-V\MRS\obj/../lib/driver/src/printf.c:643
    else if (*format == '*') {
     854:	02a00793          	li	a5,42
d:\PDS\test\Sparrow_RISC-V\MRS\obj/../lib/driver/src/printf.c:639
    width = 0U;
     858:	00000413          	li	s0,0
d:\PDS\test\Sparrow_RISC-V\MRS\obj/../lib/driver/src/printf.c:643
    else if (*format == '*') {
     85c:	36f50a63          	beq	a0,a5,bd0 <_vsnprintf+0x45c>
d:\PDS\test\Sparrow_RISC-V\MRS\obj/../lib/driver/src/printf.c:657
    if (*format == '.') {
     860:	02e00793          	li	a5,46
d:\PDS\test\Sparrow_RISC-V\MRS\obj/../lib/driver/src/printf.c:656
    precision = 0U;
     864:	00000e13          	li	t3,0
d:\PDS\test\Sparrow_RISC-V\MRS\obj/../lib/driver/src/printf.c:657
    if (*format == '.') {
     868:	30f50663          	beq	a0,a5,b74 <_vsnprintf+0x400>
d:\PDS\test\Sparrow_RISC-V\MRS\obj/../lib/driver/src/printf.c:671
    switch (*format) {
     86c:	06c00793          	li	a5,108
d:\PDS\test\Sparrow_RISC-V\MRS\obj/../lib/driver/src/printf.c:674
        format++;
     870:	00070613          	mv	a2,a4
d:\PDS\test\Sparrow_RISC-V\MRS\obj/../lib/driver/src/printf.c:671
    switch (*format) {
     874:	32f50c63          	beq	a0,a5,bac <_vsnprintf+0x438>
     878:	34a7e263          	bltu	a5,a0,bbc <_vsnprintf+0x448>
     87c:	06800793          	li	a5,104
     880:	38f50263          	beq	a0,a5,c04 <_vsnprintf+0x490>
     884:	06a00793          	li	a5,106
     888:	16f516e3          	bne	a0,a5,11f4 <_vsnprintf+0xa80>
d:\PDS\test\Sparrow_RISC-V\MRS\obj/../lib/driver/src/printf.c:675
        if (*format == 'l') {
     88c:	001c4503          	lbu	a0,1(s8)
d:\PDS\test\Sparrow_RISC-V\MRS\obj/../lib/driver/src/printf.c:695
        flags |= (sizeof(intmax_t) == sizeof(long) ? FLAGS_LONG : FLAGS_LONG_LONG);
     890:	2006e693          	ori	a3,a3,512
d:\PDS\test\Sparrow_RISC-V\MRS\obj/../lib/driver/src/printf.c:707
    switch (*format) {
     894:	07800793          	li	a5,120
d:\PDS\test\Sparrow_RISC-V\MRS\obj/../lib/driver/src/printf.c:778
        format++;
     898:	00160c13          	addi	s8,a2,1
d:\PDS\test\Sparrow_RISC-V\MRS\obj/../lib/driver/src/printf.c:707
    switch (*format) {
     89c:	f4a7eee3          	bltu	a5,a0,7f8 <_vsnprintf+0x84>
     8a0:	06300793          	li	a5,99
     8a4:	12a7e463          	bltu	a5,a0,9cc <_vsnprintf+0x258>
     8a8:	06200713          	li	a4,98
     8ac:	66e50c63          	beq	a0,a4,f24 <_vsnprintf+0x7b0>
     8b0:	1cf51663          	bne	a0,a5,a7c <_vsnprintf+0x308>
d:\PDS\test\Sparrow_RISC-V\MRS\obj/../lib/driver/src/printf.c:755
            const long value = va_arg(va, long);
     8b4:	004d0793          	addi	a5,s10,4
d:\PDS\test\Sparrow_RISC-V\MRS\obj/../lib/driver/src/printf.c:803
        if (!(flags & FLAGS_LEFT)) {
     8b8:	0026f693          	andi	a3,a3,2
d:\PDS\test\Sparrow_RISC-V\MRS\obj/../lib/driver/src/printf.c:755
            const long value = va_arg(va, long);
     8bc:	00f12e23          	sw	a5,28(sp)
d:\PDS\test\Sparrow_RISC-V\MRS\obj/../lib/driver/src/printf.c:616
      out(*format, buffer, idx++, maxlen);
     8c0:	00130c93          	addi	s9,t1,1
d:\PDS\test\Sparrow_RISC-V\MRS\obj/../lib/driver/src/printf.c:803
        if (!(flags & FLAGS_LEFT)) {
     8c4:	4e068a63          	beqz	a3,db8 <_vsnprintf+0x644>
d:\PDS\test\Sparrow_RISC-V\MRS\obj/../lib/driver/src/printf.c:809
        out((char)va_arg(va, int), buffer, idx++, maxlen);
     8c8:	000d4503          	lbu	a0,0(s10)
     8cc:	00030613          	mv	a2,t1
     8d0:	02612023          	sw	t1,32(sp)
     8d4:	00090693          	mv	a3,s2
     8d8:	00098593          	mv	a1,s3
     8dc:	000a00e7          	jalr	s4
d:\PDS\test\Sparrow_RISC-V\MRS\obj/../lib/driver/src/printf.c:812
          while (l++ < width) {
     8e0:	02012303          	lw	t1,32(sp)
     8e4:	00100793          	li	a5,1
     8e8:	00830333          	add	t1,t1,s0
     8ec:	0e87fee3          	bgeu	a5,s0,11e8 <_vsnprintf+0xa74>
     8f0:	00030413          	mv	s0,t1
d:\PDS\test\Sparrow_RISC-V\MRS\obj/../lib/driver/src/printf.c:813
            out(' ', buffer, idx++, maxlen);
     8f4:	000c8613          	mv	a2,s9
     8f8:	00090693          	mv	a3,s2
     8fc:	001c8c93          	addi	s9,s9,1
     900:	00098593          	mv	a1,s3
     904:	02000513          	li	a0,32
     908:	000a00e7          	jalr	s4
d:\PDS\test\Sparrow_RISC-V\MRS\obj/../lib/driver/src/printf.c:812
          while (l++ < width) {
     90c:	fe8c94e3          	bne	s9,s0,8f4 <_vsnprintf+0x180>
     910:	00040313          	mv	t1,s0
d:\PDS\test\Sparrow_RISC-V\MRS\obj/../lib/driver/src/printf.c:821
        const char* p = va_arg(va, char*);
     914:	01c12d03          	lw	s10,28(sp)
d:\PDS\test\Sparrow_RISC-V\MRS\obj/../lib/driver/src/printf.c:611
  while (*format)
     918:	000c4503          	lbu	a0,0(s8)
     91c:	ee051ee3          	bnez	a0,818 <_vsnprintf+0xa4>
d:\PDS\test\Sparrow_RISC-V\MRS\obj/../lib/driver/src/printf.c:880

  // termination
  out((char)0, buffer, idx < maxlen ? idx : maxlen - 1U, maxlen);

  // return written chars without terminating \0
  return (int)idx;
     920:	00030413          	mv	s0,t1
     924:	00030493          	mv	s1,t1
d:\PDS\test\Sparrow_RISC-V\MRS\obj/../lib/driver/src/printf.c:877
  out((char)0, buffer, idx < maxlen ? idx : maxlen - 1U, maxlen);
     928:	01246463          	bltu	s0,s2,930 <_vsnprintf+0x1bc>
d:\PDS\test\Sparrow_RISC-V\MRS\obj/../lib/driver/src/printf.c:877 (discriminator 1)
     92c:	fff90413          	addi	s0,s2,-1
d:\PDS\test\Sparrow_RISC-V\MRS\obj/../lib/driver/src/printf.c:877 (discriminator 4)
     930:	00090693          	mv	a3,s2
     934:	00040613          	mv	a2,s0
     938:	00098593          	mv	a1,s3
     93c:	00000513          	li	a0,0
     940:	000a00e7          	jalr	s4
d:\PDS\test\Sparrow_RISC-V\MRS\obj/../lib/driver/src/printf.c:881 (discriminator 4)
}
     944:	09c12083          	lw	ra,156(sp)
     948:	09812403          	lw	s0,152(sp)
     94c:	09012903          	lw	s2,144(sp)
     950:	08c12983          	lw	s3,140(sp)
     954:	08812a03          	lw	s4,136(sp)
     958:	08412a83          	lw	s5,132(sp)
     95c:	08012b03          	lw	s6,128(sp)
     960:	07c12b83          	lw	s7,124(sp)
     964:	07812c03          	lw	s8,120(sp)
     968:	07412c83          	lw	s9,116(sp)
     96c:	07012d03          	lw	s10,112(sp)
     970:	06c12d83          	lw	s11,108(sp)
     974:	00048513          	mv	a0,s1
     978:	09412483          	lw	s1,148(sp)
     97c:	0a010113          	addi	sp,sp,160
     980:	00008067          	ret
d:\PDS\test\Sparrow_RISC-V\MRS\obj/../lib/driver/src/printf.c:629
        case '0': flags |= FLAGS_ZEROPAD; format++; n = 1U; break;
     984:	0016e693          	ori	a3,a3,1
d:\PDS\test\Sparrow_RISC-V\MRS\obj/../lib/driver/src/printf.c:652
      format++;
     988:	00070c13          	mv	s8,a4
     98c:	e99ff06f          	j	824 <_vsnprintf+0xb0>
d:\PDS\test\Sparrow_RISC-V\MRS\obj/../lib/driver/src/printf.c:630
        case '-': flags |= FLAGS_LEFT;    format++; n = 1U; break;
     990:	0026e693          	ori	a3,a3,2
d:\PDS\test\Sparrow_RISC-V\MRS\obj/../lib/driver/src/printf.c:652
      format++;
     994:	00070c13          	mv	s8,a4
     998:	e8dff06f          	j	824 <_vsnprintf+0xb0>
d:\PDS\test\Sparrow_RISC-V\MRS\obj/../lib/driver/src/printf.c:631
        case '+': flags |= FLAGS_PLUS;    format++; n = 1U; break;
     99c:	0046e693          	ori	a3,a3,4
d:\PDS\test\Sparrow_RISC-V\MRS\obj/../lib/driver/src/printf.c:652
      format++;
     9a0:	00070c13          	mv	s8,a4
     9a4:	e81ff06f          	j	824 <_vsnprintf+0xb0>
d:\PDS\test\Sparrow_RISC-V\MRS\obj/../lib/driver/src/printf.c:633
        case '#': flags |= FLAGS_HASH;    format++; n = 1U; break;
     9a8:	0106e693          	ori	a3,a3,16
d:\PDS\test\Sparrow_RISC-V\MRS\obj/../lib/driver/src/printf.c:652
      format++;
     9ac:	00070c13          	mv	s8,a4
     9b0:	e75ff06f          	j	824 <_vsnprintf+0xb0>
d:\PDS\test\Sparrow_RISC-V\MRS\obj/../lib/driver/src/printf.c:632
        case ' ': flags |= FLAGS_SPACE;   format++; n = 1U; break;
     9b4:	0086e693          	ori	a3,a3,8
d:\PDS\test\Sparrow_RISC-V\MRS\obj/../lib/driver/src/printf.c:652
      format++;
     9b8:	00070c13          	mv	s8,a4
     9bc:	e69ff06f          	j	824 <_vsnprintf+0xb0>
d:\PDS\test\Sparrow_RISC-V\MRS\obj/../lib/driver/src/printf.c:707
    switch (*format) {
     9c0:	07800793          	li	a5,120
d:\PDS\test\Sparrow_RISC-V\MRS\obj/../lib/driver/src/printf.c:778
        format++;
     9c4:	00070c13          	mv	s8,a4
d:\PDS\test\Sparrow_RISC-V\MRS\obj/../lib/driver/src/printf.c:707
    switch (*format) {
     9c8:	e2a7e8e3          	bltu	a5,a0,7f8 <_vsnprintf+0x84>
     9cc:	f9c50793          	addi	a5,a0,-100
     9d0:	00100c93          	li	s9,1
     9d4:	00fc9cb3          	sll	s9,s9,a5
     9d8:	01812783          	lw	a5,24(sp)
     9dc:	00fcfcb3          	and	s9,s9,a5
     9e0:	000c9ee3          	bnez	s9,11fc <_vsnprintf+0xa88>
     9e4:	07300793          	li	a5,115
     9e8:	22f50663          	beq	a0,a5,c14 <_vsnprintf+0x4a0>
     9ec:	07000793          	li	a5,112
     9f0:	e0f514e3          	bne	a0,a5,7f8 <_vsnprintf+0x84>
d:\PDS\test\Sparrow_RISC-V\MRS\obj/../lib/driver/src/printf.c:856
          idx = _ntoa_long(out, buffer, idx, maxlen, (unsigned long)((uintptr_t)va_arg(va, void*)), false, 16U, precision, width, flags);
     9f4:	000d2783          	lw	a5,0(s10)
d:\PDS\test\Sparrow_RISC-V\MRS\obj/../lib/driver/src/printf.c:848
        flags |= FLAGS_ZEROPAD | FLAGS_UPPERCASE;
     9f8:	0216e593          	ori	a1,a3,33
d:\PDS\test\Sparrow_RISC-V\MRS\obj/../lib/driver/src/printf.c:856
          idx = _ntoa_long(out, buffer, idx, maxlen, (unsigned long)((uintptr_t)va_arg(va, void*)), false, 16U, precision, width, flags);
     9fc:	004d0d13          	addi	s10,s10,4
_ntoa_long():
d:\PDS\test\Sparrow_RISC-V\MRS\obj/../lib/driver/src/printf.c:311
  if (!value) {
     a00:	38078863          	beqz	a5,d90 <_vsnprintf+0x61c>
     a04:	04010713          	addi	a4,sp,64
d:\PDS\test\Sparrow_RISC-V\MRS\obj/../lib/driver/src/printf.c:319
      buf[len++] = digit < 10 ? '0' + digit : (flags & FLAGS_UPPERCASE ? 'A' : 'a') + digit - 10;
     a08:	00900813          	li	a6,9
d:\PDS\test\Sparrow_RISC-V\MRS\obj/../lib/driver/src/printf.c:321
    } while (value && (len < PRINTF_NTOA_BUFFER_SIZE));
     a0c:	00f00513          	li	a0,15
     a10:	02000893          	li	a7,32
     a14:	00c0006f          	j	a20 <_vsnprintf+0x2ac>
     a18:	031c8663          	beq	s9,a7,a44 <_vsnprintf+0x2d0>
d:\PDS\test\Sparrow_RISC-V\MRS\obj/../lib/driver/src/printf.c:320
      value /= base;
     a1c:	00068793          	mv	a5,a3
d:\PDS\test\Sparrow_RISC-V\MRS\obj/../lib/driver/src/printf.c:318
      const char digit = (char)(value % base);
     a20:	00f7fe93          	andi	t4,a5,15
d:\PDS\test\Sparrow_RISC-V\MRS\obj/../lib/driver/src/printf.c:319
      buf[len++] = digit < 10 ? '0' + digit : (flags & FLAGS_UPPERCASE ? 'A' : 'a') + digit - 10;
     a24:	037e8613          	addi	a2,t4,55
     a28:	01d86463          	bltu	a6,t4,a30 <_vsnprintf+0x2bc>
     a2c:	030e8613          	addi	a2,t4,48
     a30:	001c8c93          	addi	s9,s9,1
     a34:	019706b3          	add	a3,a4,s9
     a38:	fec68fa3          	sb	a2,-1(a3)
d:\PDS\test\Sparrow_RISC-V\MRS\obj/../lib/driver/src/printf.c:320
      value /= base;
     a3c:	0047d693          	srli	a3,a5,0x4
d:\PDS\test\Sparrow_RISC-V\MRS\obj/../lib/driver/src/printf.c:321
    } while (value && (len < PRINTF_NTOA_BUFFER_SIZE));
     a40:	fcf56ce3          	bltu	a0,a5,a18 <_vsnprintf+0x2a4>
d:\PDS\test\Sparrow_RISC-V\MRS\obj/../lib/driver/src/printf.c:324
  return _ntoa_format(out, buffer, idx, maxlen, buf, len, negative, (unsigned int)base, prec, width, flags);
     a44:	00800793          	li	a5,8
     a48:	00f12223          	sw	a5,4(sp)
     a4c:	00030613          	mv	a2,t1
     a50:	00b12423          	sw	a1,8(sp)
     a54:	01c12023          	sw	t3,0(sp)
     a58:	01000893          	li	a7,16
     a5c:	00000813          	li	a6,0
     a60:	000c8793          	mv	a5,s9
     a64:	00090693          	mv	a3,s2
     a68:	00098593          	mv	a1,s3
     a6c:	000a0513          	mv	a0,s4
     a70:	80dff0ef          	jal	ra,27c <_ntoa_format>
     a74:	00050313          	mv	t1,a0
_vsnprintf():
d:\PDS\test\Sparrow_RISC-V\MRS\obj/../lib/driver/src/printf.c:861
        break;
     a78:	d99ff06f          	j	810 <_vsnprintf+0x9c>
d:\PDS\test\Sparrow_RISC-V\MRS\obj/../lib/driver/src/printf.c:707
    switch (*format) {
     a7c:	03651263          	bne	a0,s6,aa0 <_vsnprintf+0x32c>
d:\PDS\test\Sparrow_RISC-V\MRS\obj/../lib/driver/src/printf.c:865
        out('%', buffer, idx++, maxlen);
     a80:	00030613          	mv	a2,t1
     a84:	00090693          	mv	a3,s2
     a88:	00098593          	mv	a1,s3
     a8c:	02500513          	li	a0,37
     a90:	00130413          	addi	s0,t1,1
     a94:	000a00e7          	jalr	s4
     a98:	00040313          	mv	t1,s0
d:\PDS\test\Sparrow_RISC-V\MRS\obj/../lib/driver/src/printf.c:867
        break;
     a9c:	d75ff06f          	j	810 <_vsnprintf+0x9c>
d:\PDS\test\Sparrow_RISC-V\MRS\obj/../lib/driver/src/printf.c:707
    switch (*format) {
     aa0:	05800793          	li	a5,88
     aa4:	d4f51ae3          	bne	a0,a5,7f8 <_vsnprintf+0x84>
d:\PDS\test\Sparrow_RISC-V\MRS\obj/../lib/driver/src/printf.c:741
        if (flags & FLAGS_PRECISION) {
     aa8:	4006f513          	andi	a0,a3,1024
     aac:	4a050463          	beqz	a0,f54 <_vsnprintf+0x7e0>
d:\PDS\test\Sparrow_RISC-V\MRS\obj/../lib/driver/src/printf.c:742
          flags &= ~FLAGS_ZEROPAD;
     ab0:	ff26f693          	andi	a3,a3,-14
     ab4:	0206e693          	ori	a3,a3,32
     ab8:	01000f13          	li	t5,16
     abc:	00000613          	li	a2,0
     ac0:	01000893          	li	a7,16
d:\PDS\test\Sparrow_RISC-V\MRS\obj/../lib/driver/src/printf.c:765
          if (flags & FLAGS_LONG_LONG) {
     ac4:	2006f593          	andi	a1,a3,512
     ac8:	50059663          	bnez	a1,fd4 <_vsnprintf+0x860>
d:\PDS\test\Sparrow_RISC-V\MRS\obj/../lib/driver/src/printf.c:770
          else if (flags & FLAGS_LONG) {
     acc:	1006f793          	andi	a5,a3,256
d:\PDS\test\Sparrow_RISC-V\MRS\obj/../lib/driver/src/printf.c:755
            const long value = va_arg(va, long);
     ad0:	004d0c93          	addi	s9,s10,4
d:\PDS\test\Sparrow_RISC-V\MRS\obj/../lib/driver/src/printf.c:770
          else if (flags & FLAGS_LONG) {
     ad4:	60079a63          	bnez	a5,10e8 <_vsnprintf+0x974>
d:\PDS\test\Sparrow_RISC-V\MRS\obj/../lib/driver/src/printf.c:774
            const unsigned int value = (flags & FLAGS_CHAR) ? (unsigned char)va_arg(va, unsigned int) : (flags & FLAGS_SHORT) ? (unsigned short int)va_arg(va, unsigned int) : va_arg(va, unsigned int);
     ad8:	0406f713          	andi	a4,a3,64
     adc:	6a070063          	beqz	a4,117c <_vsnprintf+0xa08>
     ae0:	000d4583          	lbu	a1,0(s10)
_ntoa_long():
d:\PDS\test\Sparrow_RISC-V\MRS\obj/../lib/driver/src/printf.c:311 (discriminator 8)
  if (!value) {
     ae4:	48059663          	bnez	a1,f70 <_vsnprintf+0x7fc>
d:\PDS\test\Sparrow_RISC-V\MRS\obj/../lib/driver/src/printf.c:312
    flags &= ~FLAGS_HASH;
     ae8:	fef6f693          	andi	a3,a3,-17
d:\PDS\test\Sparrow_RISC-V\MRS\obj/../lib/driver/src/printf.c:316
  if (!(flags & FLAGS_PRECISION) || value) {
     aec:	48050263          	beqz	a0,f70 <_vsnprintf+0x7fc>
d:\PDS\test\Sparrow_RISC-V\MRS\obj/../lib/driver/src/printf.c:308
  size_t len = 0U;
     af0:	00000793          	li	a5,0
     af4:	04010713          	addi	a4,sp,64
d:\PDS\test\Sparrow_RISC-V\MRS\obj/../lib/driver/src/printf.c:324
  return _ntoa_format(out, buffer, idx, maxlen, buf, len, negative, (unsigned int)base, prec, width, flags);
     af8:	00030613          	mv	a2,t1
     afc:	00d12423          	sw	a3,8(sp)
     b00:	00812223          	sw	s0,4(sp)
     b04:	01c12023          	sw	t3,0(sp)
     b08:	00000813          	li	a6,0
     b0c:	00090693          	mv	a3,s2
     b10:	00098593          	mv	a1,s3
     b14:	000a0513          	mv	a0,s4
     b18:	f64ff0ef          	jal	ra,27c <_ntoa_format>
     b1c:	00050313          	mv	t1,a0
     b20:	000c8d13          	mv	s10,s9
_vsnprintf():
d:\PDS\test\Sparrow_RISC-V\MRS\obj/../lib/driver/src/printf.c:779
        break;
     b24:	cedff06f          	j	810 <_vsnprintf+0x9c>
_atoi():
d:\PDS\test\Sparrow_RISC-V\MRS\obj/../lib/driver/src/printf.c:214
  unsigned int i = 0U;
     b28:	00000413          	li	s0,0
     b2c:	00040613          	mv	a2,s0
     b30:	0080006f          	j	b38 <_vsnprintf+0x3c4>
     b34:	00170713          	addi	a4,a4,1
d:\PDS\test\Sparrow_RISC-V\MRS\obj/../lib/driver/src/printf.c:216
    i = i * 10U + (unsigned int)(*((*str)++) - '0');
     b38:	00261413          	slli	s0,a2,0x2
     b3c:	00c40433          	add	s0,s0,a2
     b40:	00141413          	slli	s0,s0,0x1
     b44:	00a40433          	add	s0,s0,a0
d:\PDS\test\Sparrow_RISC-V\MRS\obj/../lib/driver/src/printf.c:215
  while (_is_digit(**str)) {
     b48:	00074503          	lbu	a0,0(a4)
d:\PDS\test\Sparrow_RISC-V\MRS\obj/../lib/driver/src/printf.c:216
    i = i * 10U + (unsigned int)(*((*str)++) - '0');
     b4c:	00070c13          	mv	s8,a4
     b50:	fd040613          	addi	a2,s0,-48
_is_digit():
d:\PDS\test\Sparrow_RISC-V\MRS\obj/../lib/driver/src/printf.c:207
  return (ch >= '0') && (ch <= '9');
     b54:	fd050793          	addi	a5,a0,-48
_atoi():
d:\PDS\test\Sparrow_RISC-V\MRS\obj/../lib/driver/src/printf.c:215
  while (_is_digit(**str)) {
     b58:	0ff7f793          	zext.b	a5,a5
     b5c:	fcfbfce3          	bgeu	s7,a5,b34 <_vsnprintf+0x3c0>
_vsnprintf():
d:\PDS\test\Sparrow_RISC-V\MRS\obj/../lib/driver/src/printf.c:657
    if (*format == '.') {
     b60:	02e00793          	li	a5,46
     b64:	00060413          	mv	s0,a2
     b68:	00170713          	addi	a4,a4,1
d:\PDS\test\Sparrow_RISC-V\MRS\obj/../lib/driver/src/printf.c:656
    precision = 0U;
     b6c:	00000e13          	li	t3,0
d:\PDS\test\Sparrow_RISC-V\MRS\obj/../lib/driver/src/printf.c:657
    if (*format == '.') {
     b70:	cef51ee3          	bne	a0,a5,86c <_vsnprintf+0xf8>
d:\PDS\test\Sparrow_RISC-V\MRS\obj/../lib/driver/src/printf.c:660
      if (_is_digit(*format)) {
     b74:	001c4503          	lbu	a0,1(s8)
     b78:	00900593          	li	a1,9
d:\PDS\test\Sparrow_RISC-V\MRS\obj/../lib/driver/src/printf.c:659
      format++;
     b7c:	00070613          	mv	a2,a4
_is_digit():
d:\PDS\test\Sparrow_RISC-V\MRS\obj/../lib/driver/src/printf.c:207
  return (ch >= '0') && (ch <= '9');
     b80:	fd050793          	addi	a5,a0,-48
_vsnprintf():
d:\PDS\test\Sparrow_RISC-V\MRS\obj/../lib/driver/src/printf.c:660
      if (_is_digit(*format)) {
     b84:	0ff7f793          	zext.b	a5,a5
d:\PDS\test\Sparrow_RISC-V\MRS\obj/../lib/driver/src/printf.c:658
      flags |= FLAGS_PRECISION;
     b88:	4006e693          	ori	a3,a3,1024
d:\PDS\test\Sparrow_RISC-V\MRS\obj/../lib/driver/src/printf.c:660
      if (_is_digit(*format)) {
     b8c:	18f5fe63          	bgeu	a1,a5,d28 <_vsnprintf+0x5b4>
d:\PDS\test\Sparrow_RISC-V\MRS\obj/../lib/driver/src/printf.c:663
      else if (*format == '*') {
     b90:	02a00793          	li	a5,42
     b94:	1cf50663          	beq	a0,a5,d60 <_vsnprintf+0x5ec>
d:\PDS\test\Sparrow_RISC-V\MRS\obj/../lib/driver/src/printf.c:659
      format++;
     b98:	00070c13          	mv	s8,a4
d:\PDS\test\Sparrow_RISC-V\MRS\obj/../lib/driver/src/printf.c:671
    switch (*format) {
     b9c:	06c00793          	li	a5,108
     ba0:	00170713          	addi	a4,a4,1
d:\PDS\test\Sparrow_RISC-V\MRS\obj/../lib/driver/src/printf.c:674
        format++;
     ba4:	00070613          	mv	a2,a4
d:\PDS\test\Sparrow_RISC-V\MRS\obj/../lib/driver/src/printf.c:671
    switch (*format) {
     ba8:	ccf518e3          	bne	a0,a5,878 <_vsnprintf+0x104>
d:\PDS\test\Sparrow_RISC-V\MRS\obj/../lib/driver/src/printf.c:675
        if (*format == 'l') {
     bac:	001c4503          	lbu	a0,1(s8)
     bb0:	1ef50c63          	beq	a0,a5,da8 <_vsnprintf+0x634>
d:\PDS\test\Sparrow_RISC-V\MRS\obj/../lib/driver/src/printf.c:699
        flags |= (sizeof(size_t) == sizeof(long) ? FLAGS_LONG : FLAGS_LONG_LONG);
     bb4:	1006e693          	ori	a3,a3,256
d:\PDS\test\Sparrow_RISC-V\MRS\obj/../lib/driver/src/printf.c:701
        break;
     bb8:	cddff06f          	j	894 <_vsnprintf+0x120>
d:\PDS\test\Sparrow_RISC-V\MRS\obj/../lib/driver/src/printf.c:671
    switch (*format) {
     bbc:	07a00793          	li	a5,122
     bc0:	e0f510e3          	bne	a0,a5,9c0 <_vsnprintf+0x24c>
d:\PDS\test\Sparrow_RISC-V\MRS\obj/../lib/driver/src/printf.c:675
        if (*format == 'l') {
     bc4:	001c4503          	lbu	a0,1(s8)
d:\PDS\test\Sparrow_RISC-V\MRS\obj/../lib/driver/src/printf.c:699
        flags |= (sizeof(size_t) == sizeof(long) ? FLAGS_LONG : FLAGS_LONG_LONG);
     bc8:	1006e693          	ori	a3,a3,256
d:\PDS\test\Sparrow_RISC-V\MRS\obj/../lib/driver/src/printf.c:701
        break;
     bcc:	cc9ff06f          	j	894 <_vsnprintf+0x120>
d:\PDS\test\Sparrow_RISC-V\MRS\obj/../lib/driver/src/printf.c:644
      const int w = va_arg(va, int);
     bd0:	000d2403          	lw	s0,0(s10)
     bd4:	004d0d13          	addi	s10,s10,4
d:\PDS\test\Sparrow_RISC-V\MRS\obj/../lib/driver/src/printf.c:645
      if (w < 0) {
     bd8:	00044a63          	bltz	s0,bec <_vsnprintf+0x478>
d:\PDS\test\Sparrow_RISC-V\MRS\obj/../lib/driver/src/printf.c:657
    if (*format == '.') {
     bdc:	001c4503          	lbu	a0,1(s8)
d:\PDS\test\Sparrow_RISC-V\MRS\obj/../lib/driver/src/printf.c:652
      format++;
     be0:	00070c13          	mv	s8,a4
     be4:	00170713          	addi	a4,a4,1
     be8:	c79ff06f          	j	860 <_vsnprintf+0xec>
d:\PDS\test\Sparrow_RISC-V\MRS\obj/../lib/driver/src/printf.c:657
    if (*format == '.') {
     bec:	001c4503          	lbu	a0,1(s8)
d:\PDS\test\Sparrow_RISC-V\MRS\obj/../lib/driver/src/printf.c:646
        flags |= FLAGS_LEFT;    // reverse padding
     bf0:	0026e693          	ori	a3,a3,2
d:\PDS\test\Sparrow_RISC-V\MRS\obj/../lib/driver/src/printf.c:652
      format++;
     bf4:	00070c13          	mv	s8,a4
d:\PDS\test\Sparrow_RISC-V\MRS\obj/../lib/driver/src/printf.c:647
        width = (unsigned int)-w;
     bf8:	40800433          	neg	s0,s0
d:\PDS\test\Sparrow_RISC-V\MRS\obj/../lib/driver/src/printf.c:652
      format++;
     bfc:	00170713          	addi	a4,a4,1
     c00:	c61ff06f          	j	860 <_vsnprintf+0xec>
d:\PDS\test\Sparrow_RISC-V\MRS\obj/../lib/driver/src/printf.c:683
        if (*format == 'h') {
     c04:	001c4503          	lbu	a0,1(s8)
     c08:	28f50663          	beq	a0,a5,e94 <_vsnprintf+0x720>
d:\PDS\test\Sparrow_RISC-V\MRS\obj/../lib/driver/src/printf.c:681
        flags |= FLAGS_SHORT;
     c0c:	0806e693          	ori	a3,a3,128
     c10:	c85ff06f          	j	894 <_vsnprintf+0x120>
d:\PDS\test\Sparrow_RISC-V\MRS\obj/../lib/driver/src/printf.c:821
        const char* p = va_arg(va, char*);
     c14:	000d2703          	lw	a4,0(s10)
     c18:	004d0793          	addi	a5,s10,4
     c1c:	00f12e23          	sw	a5,28(sp)
_strnlen_s():
d:\PDS\test\Sparrow_RISC-V\MRS\obj/../lib/driver/src/printf.c:198
  for (s = str; *s && maxsize--; ++s);
     c20:	00074583          	lbu	a1,0(a4)
     c24:	00058513          	mv	a0,a1
_vsnprintf():
d:\PDS\test\Sparrow_RISC-V\MRS\obj/../lib/driver/src/printf.c:822
        unsigned int l = _strnlen_s(p, precision ? precision : (size_t)-1);
     c28:	140e1e63          	bnez	t3,d84 <_vsnprintf+0x610>
_strnlen_s():
d:\PDS\test\Sparrow_RISC-V\MRS\obj/../lib/driver/src/printf.c:198
  for (s = str; *s && maxsize--; ++s);
     c2c:	ffe00613          	li	a2,-2
     c30:	02058463          	beqz	a1,c58 <_vsnprintf+0x4e4>
     c34:	00160613          	addi	a2,a2,1
     c38:	00c70633          	add	a2,a4,a2
     c3c:	00070c93          	mv	s9,a4
     c40:	0080006f          	j	c48 <_vsnprintf+0x4d4>
     c44:	00cc8863          	beq	s9,a2,c54 <_vsnprintf+0x4e0>
     c48:	001cc783          	lbu	a5,1(s9)
     c4c:	001c8c93          	addi	s9,s9,1
     c50:	fe079ae3          	bnez	a5,c44 <_vsnprintf+0x4d0>
d:\PDS\test\Sparrow_RISC-V\MRS\obj/../lib/driver/src/printf.c:199
  return (unsigned int)(s - str);
     c54:	40ec8cb3          	sub	s9,s9,a4
_vsnprintf():
d:\PDS\test\Sparrow_RISC-V\MRS\obj/../lib/driver/src/printf.c:824
        if (flags & FLAGS_PRECISION) {
     c58:	4006fd93          	andi	s11,a3,1024
     c5c:	000d8663          	beqz	s11,c68 <_vsnprintf+0x4f4>
d:\PDS\test\Sparrow_RISC-V\MRS\obj/../lib/driver/src/printf.c:825
          l = (l < precision ? l : precision);
     c60:	019e7463          	bgeu	t3,s9,c68 <_vsnprintf+0x4f4>
     c64:	000e0c93          	mv	s9,t3
d:\PDS\test\Sparrow_RISC-V\MRS\obj/../lib/driver/src/printf.c:827
        if (!(flags & FLAGS_LEFT)) {
     c68:	0026f693          	andi	a3,a3,2
     c6c:	24068863          	beqz	a3,ebc <_vsnprintf+0x748>
d:\PDS\test\Sparrow_RISC-V\MRS\obj/../lib/driver/src/printf.c:833
        while ((*p != 0) && (!(flags & FLAGS_PRECISION) || precision--)) {
     c70:	06058263          	beqz	a1,cd4 <_vsnprintf+0x560>
     c74:	1c0d8063          	beqz	s11,e34 <_vsnprintf+0x6c0>
     c78:	03912223          	sw	s9,36(sp)
     c7c:	006e0d33          	add	s10,t3,t1
d:\PDS\test\Sparrow_RISC-V\MRS\obj/../lib/driver/src/printf.c:829
            out(' ', buffer, idx++, maxlen);
     c80:	00030613          	mv	a2,t1
     c84:	02d12023          	sw	a3,32(sp)
     c88:	02812423          	sw	s0,40(sp)
     c8c:	00070c93          	mv	s9,a4
     c90:	00030d93          	mv	s11,t1
d:\PDS\test\Sparrow_RISC-V\MRS\obj/../lib/driver/src/printf.c:833
        while ((*p != 0) && (!(flags & FLAGS_PRECISION) || precision--)) {
     c94:	02cd0663          	beq	s10,a2,cc0 <_vsnprintf+0x54c>
d:\PDS\test\Sparrow_RISC-V\MRS\obj/../lib/driver/src/printf.c:834
          out(*(p++), buffer, idx++, maxlen);
     c98:	00090693          	mv	a3,s2
     c9c:	00098593          	mv	a1,s3
     ca0:	00160413          	addi	s0,a2,1
     ca4:	000a00e7          	jalr	s4
d:\PDS\test\Sparrow_RISC-V\MRS\obj/../lib/driver/src/printf.c:833
        while ((*p != 0) && (!(flags & FLAGS_PRECISION) || precision--)) {
     ca8:	41b407b3          	sub	a5,s0,s11
     cac:	00fc87b3          	add	a5,s9,a5
     cb0:	0007c503          	lbu	a0,0(a5)
     cb4:	1e050863          	beqz	a0,ea4 <_vsnprintf+0x730>
d:\PDS\test\Sparrow_RISC-V\MRS\obj/../lib/driver/src/printf.c:834
          out(*(p++), buffer, idx++, maxlen);
     cb8:	00040613          	mv	a2,s0
d:\PDS\test\Sparrow_RISC-V\MRS\obj/../lib/driver/src/printf.c:833
        while ((*p != 0) && (!(flags & FLAGS_PRECISION) || precision--)) {
     cbc:	fccd1ee3          	bne	s10,a2,c98 <_vsnprintf+0x524>
     cc0:	02012683          	lw	a3,32(sp)
     cc4:	02412c83          	lw	s9,36(sp)
     cc8:	02812403          	lw	s0,40(sp)
     ccc:	000d0313          	mv	t1,s10
d:\PDS\test\Sparrow_RISC-V\MRS\obj/../lib/driver/src/printf.c:837
        if (flags & FLAGS_LEFT) {
     cd0:	c40682e3          	beqz	a3,914 <_vsnprintf+0x1a0>
     cd4:	00030d93          	mv	s11,t1
d:\PDS\test\Sparrow_RISC-V\MRS\obj/../lib/driver/src/printf.c:838
          while (l++ < width) {
     cd8:	c28cfee3          	bgeu	s9,s0,914 <_vsnprintf+0x1a0>
     cdc:	00640433          	add	s0,s0,t1
     ce0:	41940333          	sub	t1,s0,s9
     ce4:	00030413          	mv	s0,t1
d:\PDS\test\Sparrow_RISC-V\MRS\obj/../lib/driver/src/printf.c:839
            out(' ', buffer, idx++, maxlen);
     ce8:	000d8613          	mv	a2,s11
     cec:	00090693          	mv	a3,s2
     cf0:	001d8d93          	addi	s11,s11,1
     cf4:	00098593          	mv	a1,s3
     cf8:	02000513          	li	a0,32
     cfc:	000a00e7          	jalr	s4
d:\PDS\test\Sparrow_RISC-V\MRS\obj/../lib/driver/src/printf.c:838
          while (l++ < width) {
     d00:	fe8d94e3          	bne	s11,s0,ce8 <_vsnprintf+0x574>
     d04:	00040313          	mv	t1,s0
     d08:	c0dff06f          	j	914 <_vsnprintf+0x1a0>
d:\PDS\test\Sparrow_RISC-V\MRS\obj/../lib/driver/src/printf.c:611
  while (*format)
     d0c:	000c4503          	lbu	a0,0(s8)
d:\PDS\test\Sparrow_RISC-V\MRS\obj/../lib/driver/src/printf.c:608
    out = _out_null;
     d10:	27800a13          	li	s4,632
d:\PDS\test\Sparrow_RISC-V\MRS\obj/../lib/driver/src/printf.c:611
  while (*format)
     d14:	00000413          	li	s0,0
     d18:	aa051ce3          	bnez	a0,7d0 <_vsnprintf+0x5c>
     d1c:	00000493          	li	s1,0
d:\PDS\test\Sparrow_RISC-V\MRS\obj/../lib/driver/src/printf.c:877
  out((char)0, buffer, idx < maxlen ? idx : maxlen - 1U, maxlen);
     d20:	c12468e3          	bltu	s0,s2,930 <_vsnprintf+0x1bc>
     d24:	c09ff06f          	j	92c <_vsnprintf+0x1b8>
_atoi():
d:\PDS\test\Sparrow_RISC-V\MRS\obj/../lib/driver/src/printf.c:215
  while (_is_digit(**str)) {
     d28:	00900713          	li	a4,9
d:\PDS\test\Sparrow_RISC-V\MRS\obj/../lib/driver/src/printf.c:216
    i = i * 10U + (unsigned int)(*((*str)++) - '0');
     d2c:	002e1793          	slli	a5,t3,0x2
     d30:	01c787b3          	add	a5,a5,t3
     d34:	00160613          	addi	a2,a2,1
     d38:	00179793          	slli	a5,a5,0x1
     d3c:	00a787b3          	add	a5,a5,a0
d:\PDS\test\Sparrow_RISC-V\MRS\obj/../lib/driver/src/printf.c:215
  while (_is_digit(**str)) {
     d40:	00064503          	lbu	a0,0(a2)
d:\PDS\test\Sparrow_RISC-V\MRS\obj/../lib/driver/src/printf.c:216
    i = i * 10U + (unsigned int)(*((*str)++) - '0');
     d44:	fd078e13          	addi	t3,a5,-48
_is_digit():
d:\PDS\test\Sparrow_RISC-V\MRS\obj/../lib/driver/src/printf.c:207
  return (ch >= '0') && (ch <= '9');
     d48:	fd050793          	addi	a5,a0,-48
_atoi():
d:\PDS\test\Sparrow_RISC-V\MRS\obj/../lib/driver/src/printf.c:215
  while (_is_digit(**str)) {
     d4c:	0ff7f793          	zext.b	a5,a5
     d50:	fcf77ee3          	bgeu	a4,a5,d2c <_vsnprintf+0x5b8>
d:\PDS\test\Sparrow_RISC-V\MRS\obj/../lib/driver/src/printf.c:216
    i = i * 10U + (unsigned int)(*((*str)++) - '0');
     d54:	00060c13          	mv	s8,a2
     d58:	00160713          	addi	a4,a2,1
     d5c:	b11ff06f          	j	86c <_vsnprintf+0xf8>
_vsnprintf():
d:\PDS\test\Sparrow_RISC-V\MRS\obj/../lib/driver/src/printf.c:665
        precision = prec > 0 ? (unsigned int)prec : 0U;
     d60:	000d2e03          	lw	t3,0(s10)
d:\PDS\test\Sparrow_RISC-V\MRS\obj/../lib/driver/src/printf.c:671
    switch (*format) {
     d64:	002c4503          	lbu	a0,2(s8)
d:\PDS\test\Sparrow_RISC-V\MRS\obj/../lib/driver/src/printf.c:666
        format++;
     d68:	002c0c13          	addi	s8,s8,2
d:\PDS\test\Sparrow_RISC-V\MRS\obj/../lib/driver/src/printf.c:665
        precision = prec > 0 ? (unsigned int)prec : 0U;
     d6c:	fffe4793          	not	a5,t3
     d70:	41f7d793          	srai	a5,a5,0x1f
     d74:	00fe7e33          	and	t3,t3,a5
d:\PDS\test\Sparrow_RISC-V\MRS\obj/../lib/driver/src/printf.c:664
        const int prec = (int)va_arg(va, int);
     d78:	004d0d13          	addi	s10,s10,4
     d7c:	001c0713          	addi	a4,s8,1
     d80:	aedff06f          	j	86c <_vsnprintf+0xf8>
_strnlen_s():
d:\PDS\test\Sparrow_RISC-V\MRS\obj/../lib/driver/src/printf.c:198
  for (s = str; *s && maxsize--; ++s);
     d84:	ec058ae3          	beqz	a1,c58 <_vsnprintf+0x4e4>
     d88:	fffe0613          	addi	a2,t3,-1
     d8c:	ea9ff06f          	j	c34 <_vsnprintf+0x4c0>
_ntoa_long():
d:\PDS\test\Sparrow_RISC-V\MRS\obj/../lib/driver/src/printf.c:312
    flags &= ~FLAGS_HASH;
     d90:	fef6f593          	andi	a1,a3,-17
     d94:	4006f793          	andi	a5,a3,1024
     d98:	0215e593          	ori	a1,a1,33
d:\PDS\test\Sparrow_RISC-V\MRS\obj/../lib/driver/src/printf.c:316
  if (!(flags & FLAGS_PRECISION) || value) {
     d9c:	04010713          	addi	a4,sp,64
     da0:	ca0792e3          	bnez	a5,a44 <_vsnprintf+0x2d0>
     da4:	c61ff06f          	j	a04 <_vsnprintf+0x290>
_vsnprintf():
d:\PDS\test\Sparrow_RISC-V\MRS\obj/../lib/driver/src/printf.c:707
    switch (*format) {
     da8:	002c4503          	lbu	a0,2(s8)
d:\PDS\test\Sparrow_RISC-V\MRS\obj/../lib/driver/src/printf.c:676
          flags |= FLAGS_LONG_LONG;
     dac:	3006e693          	ori	a3,a3,768
d:\PDS\test\Sparrow_RISC-V\MRS\obj/../lib/driver/src/printf.c:677
          format++;
     db0:	002c0613          	addi	a2,s8,2
     db4:	ae1ff06f          	j	894 <_vsnprintf+0x120>
d:\PDS\test\Sparrow_RISC-V\MRS\obj/../lib/driver/src/printf.c:804
          while (l++ < width) {
     db8:	00100793          	li	a5,1
     dbc:	4087fc63          	bgeu	a5,s0,11d4 <_vsnprintf+0xa60>
     dc0:	fff30c93          	addi	s9,t1,-1
     dc4:	008c8cb3          	add	s9,s9,s0
     dc8:	02812023          	sw	s0,32(sp)
     dcc:	000d0d93          	mv	s11,s10
     dd0:	00030413          	mv	s0,t1
     dd4:	000c0d13          	mv	s10,s8
     dd8:	00030c13          	mv	s8,t1
d:\PDS\test\Sparrow_RISC-V\MRS\obj/../lib/driver/src/printf.c:805
            out(' ', buffer, idx++, maxlen);
     ddc:	00040613          	mv	a2,s0
     de0:	00090693          	mv	a3,s2
     de4:	00140413          	addi	s0,s0,1
     de8:	00098593          	mv	a1,s3
     dec:	02000513          	li	a0,32
     df0:	000a00e7          	jalr	s4
d:\PDS\test\Sparrow_RISC-V\MRS\obj/../lib/driver/src/printf.c:804
          while (l++ < width) {
     df4:	ff9414e3          	bne	s0,s9,ddc <_vsnprintf+0x668>
d:\PDS\test\Sparrow_RISC-V\MRS\obj/../lib/driver/src/printf.c:809
        out((char)va_arg(va, int), buffer, idx++, maxlen);
     df8:	000c0313          	mv	t1,s8
     dfc:	000d0c13          	mv	s8,s10
     e00:	000d8d13          	mv	s10,s11
     e04:	00040d93          	mv	s11,s0
     e08:	02012403          	lw	s0,32(sp)
     e0c:	000d4503          	lbu	a0,0(s10)
     e10:	00090693          	mv	a3,s2
     e14:	00830333          	add	t1,t1,s0
     e18:	02612023          	sw	t1,32(sp)
     e1c:	000d8613          	mv	a2,s11
     e20:	00098593          	mv	a1,s3
     e24:	000a00e7          	jalr	s4
d:\PDS\test\Sparrow_RISC-V\MRS\obj/../lib/driver/src/printf.c:811
        if (flags & FLAGS_LEFT) {
     e28:	02012303          	lw	t1,32(sp)
d:\PDS\test\Sparrow_RISC-V\MRS\obj/../lib/driver/src/printf.c:821
        const char* p = va_arg(va, char*);
     e2c:	01c12d03          	lw	s10,28(sp)
     e30:	ae9ff06f          	j	918 <_vsnprintf+0x1a4>
d:\PDS\test\Sparrow_RISC-V\MRS\obj/../lib/driver/src/printf.c:834
          out(*(p++), buffer, idx++, maxlen);
     e34:	000c0793          	mv	a5,s8
     e38:	02812223          	sw	s0,36(sp)
     e3c:	02d12023          	sw	a3,32(sp)
     e40:	00070d13          	mv	s10,a4
     e44:	00030413          	mv	s0,t1
     e48:	00030c13          	mv	s8,t1
     e4c:	00078d93          	mv	s11,a5
d:\PDS\test\Sparrow_RISC-V\MRS\obj/../lib/driver/src/printf.c:834 (discriminator 1)
     e50:	000c0613          	mv	a2,s8
     e54:	00090693          	mv	a3,s2
     e58:	00098593          	mv	a1,s3
     e5c:	000a00e7          	jalr	s4
     e60:	001c0c13          	addi	s8,s8,1
d:\PDS\test\Sparrow_RISC-V\MRS\obj/../lib/driver/src/printf.c:833 (discriminator 1)
        while ((*p != 0) && (!(flags & FLAGS_PRECISION) || precision--)) {
     e64:	408c0733          	sub	a4,s8,s0
     e68:	00ed0733          	add	a4,s10,a4
     e6c:	00074503          	lbu	a0,0(a4)
     e70:	fe0510e3          	bnez	a0,e50 <_vsnprintf+0x6dc>
     e74:	02012683          	lw	a3,32(sp)
     e78:	02412403          	lw	s0,36(sp)
     e7c:	000d8793          	mv	a5,s11
     e80:	000c0d93          	mv	s11,s8
d:\PDS\test\Sparrow_RISC-V\MRS\obj/../lib/driver/src/printf.c:834
          out(*(p++), buffer, idx++, maxlen);
     e84:	000d8313          	mv	t1,s11
     e88:	00078c13          	mv	s8,a5
d:\PDS\test\Sparrow_RISC-V\MRS\obj/../lib/driver/src/printf.c:837
        if (flags & FLAGS_LEFT) {
     e8c:	a80684e3          	beqz	a3,914 <_vsnprintf+0x1a0>
     e90:	e45ff06f          	j	cd4 <_vsnprintf+0x560>
d:\PDS\test\Sparrow_RISC-V\MRS\obj/../lib/driver/src/printf.c:707
    switch (*format) {
     e94:	002c4503          	lbu	a0,2(s8)
d:\PDS\test\Sparrow_RISC-V\MRS\obj/../lib/driver/src/printf.c:684
          flags |= FLAGS_CHAR;
     e98:	0c06e693          	ori	a3,a3,192
d:\PDS\test\Sparrow_RISC-V\MRS\obj/../lib/driver/src/printf.c:685
          format++;
     e9c:	002c0613          	addi	a2,s8,2
     ea0:	9f5ff06f          	j	894 <_vsnprintf+0x120>
     ea4:	00040d93          	mv	s11,s0
     ea8:	02012683          	lw	a3,32(sp)
     eac:	02412c83          	lw	s9,36(sp)
     eb0:	02812403          	lw	s0,40(sp)
d:\PDS\test\Sparrow_RISC-V\MRS\obj/../lib/driver/src/printf.c:834
          out(*(p++), buffer, idx++, maxlen);
     eb4:	000d8313          	mv	t1,s11
     eb8:	fd5ff06f          	j	e8c <_vsnprintf+0x718>
d:\PDS\test\Sparrow_RISC-V\MRS\obj/../lib/driver/src/printf.c:828
          while (l++ < width) {
     ebc:	308cf863          	bgeu	s9,s0,11cc <_vsnprintf+0xa58>
     ec0:	006407b3          	add	a5,s0,t1
     ec4:	02812223          	sw	s0,36(sp)
     ec8:	41978cb3          	sub	s9,a5,s9
     ecc:	00068d13          	mv	s10,a3
     ed0:	02e12023          	sw	a4,32(sp)
     ed4:	03c12423          	sw	t3,40(sp)
     ed8:	00030413          	mv	s0,t1
d:\PDS\test\Sparrow_RISC-V\MRS\obj/../lib/driver/src/printf.c:829
            out(' ', buffer, idx++, maxlen);
     edc:	00040613          	mv	a2,s0
     ee0:	00090693          	mv	a3,s2
     ee4:	00140413          	addi	s0,s0,1
     ee8:	00098593          	mv	a1,s3
     eec:	02000513          	li	a0,32
     ef0:	000a00e7          	jalr	s4
d:\PDS\test\Sparrow_RISC-V\MRS\obj/../lib/driver/src/printf.c:828
          while (l++ < width) {
     ef4:	ff9414e3          	bne	s0,s9,edc <_vsnprintf+0x768>
     ef8:	02012703          	lw	a4,32(sp)
     efc:	00040313          	mv	t1,s0
     f00:	02412403          	lw	s0,36(sp)
     f04:	02812e03          	lw	t3,40(sp)
     f08:	00074583          	lbu	a1,0(a4)
     f0c:	000d0693          	mv	a3,s10
     f10:	00140c93          	addi	s9,s0,1
d:\PDS\test\Sparrow_RISC-V\MRS\obj/../lib/driver/src/printf.c:833
        while ((*p != 0) && (!(flags & FLAGS_PRECISION) || precision--)) {
     f14:	00058513          	mv	a0,a1
     f18:	d4059ee3          	bnez	a1,c74 <_vsnprintf+0x500>
d:\PDS\test\Sparrow_RISC-V\MRS\obj/../lib/driver/src/printf.c:821
        const char* p = va_arg(va, char*);
     f1c:	01c12d03          	lw	s10,28(sp)
     f20:	9f9ff06f          	j	918 <_vsnprintf+0x1a4>
d:\PDS\test\Sparrow_RISC-V\MRS\obj/../lib/driver/src/printf.c:741
        if (flags & FLAGS_PRECISION) {
     f24:	4006f513          	andi	a0,a3,1024
     f28:	00050c63          	beqz	a0,f40 <_vsnprintf+0x7cc>
d:\PDS\test\Sparrow_RISC-V\MRS\obj/../lib/driver/src/printf.c:742
          flags &= ~FLAGS_ZEROPAD;
     f2c:	ff26f693          	andi	a3,a3,-14
     f30:	00200f13          	li	t5,2
     f34:	00000613          	li	a2,0
     f38:	00200893          	li	a7,2
     f3c:	b89ff06f          	j	ac4 <_vsnprintf+0x350>
d:\PDS\test\Sparrow_RISC-V\MRS\obj/../lib/driver/src/printf.c:737
          flags &= ~(FLAGS_PLUS | FLAGS_SPACE);
     f40:	ff36f693          	andi	a3,a3,-13
     f44:	00200f13          	li	t5,2
     f48:	00000613          	li	a2,0
     f4c:	00200893          	li	a7,2
     f50:	b75ff06f          	j	ac4 <_vsnprintf+0x350>
d:\PDS\test\Sparrow_RISC-V\MRS\obj/../lib/driver/src/printf.c:732
          flags |= FLAGS_UPPERCASE;
     f54:	0206e693          	ori	a3,a3,32
d:\PDS\test\Sparrow_RISC-V\MRS\obj/../lib/driver/src/printf.c:737
          flags &= ~(FLAGS_PLUS | FLAGS_SPACE);
     f58:	ff36f693          	andi	a3,a3,-13
     f5c:	00000513          	li	a0,0
     f60:	01000f13          	li	t5,16
     f64:	00000613          	li	a2,0
     f68:	01000893          	li	a7,16
     f6c:	b59ff06f          	j	ac4 <_vsnprintf+0x350>
_ntoa_long():
d:\PDS\test\Sparrow_RISC-V\MRS\obj/../lib/driver/src/printf.c:319
      buf[len++] = digit < 10 ? '0' + digit : (flags & FLAGS_UPPERCASE ? 'A' : 'a') + digit - 10;
     f70:	0206f613          	andi	a2,a3,32
     f74:	06100713          	li	a4,97
     f78:	00060463          	beqz	a2,f80 <_vsnprintf+0x80c>
     f7c:	04100713          	li	a4,65
     f80:	0ff77f13          	zext.b	t5,a4
     f84:	00900813          	li	a6,9
     f88:	04010713          	addi	a4,sp,64
     f8c:	ff6f0f13          	addi	t5,t5,-10
d:\PDS\test\Sparrow_RISC-V\MRS\obj/../lib/driver/src/printf.c:321
    } while (value && (len < PRINTF_NTOA_BUFFER_SIZE));
     f90:	02000e93          	li	t4,32
     f94:	0280006f          	j	fbc <_vsnprintf+0x848>
d:\PDS\test\Sparrow_RISC-V\MRS\obj/../lib/driver/src/printf.c:319
      buf[len++] = digit < 10 ? '0' + digit : (flags & FLAGS_UPPERCASE ? 'A' : 'a') + digit - 10;
     f98:	03060613          	addi	a2,a2,48
     f9c:	0ff67613          	zext.b	a2,a2
     fa0:	00178793          	addi	a5,a5,1
     fa4:	00f70533          	add	a0,a4,a5
     fa8:	fec50fa3          	sb	a2,-1(a0)
d:\PDS\test\Sparrow_RISC-V\MRS\obj/../lib/driver/src/printf.c:320
      value /= base;
     fac:	0315d633          	divu	a2,a1,a7
d:\PDS\test\Sparrow_RISC-V\MRS\obj/../lib/driver/src/printf.c:321
    } while (value && (len < PRINTF_NTOA_BUFFER_SIZE));
     fb0:	b515e4e3          	bltu	a1,a7,af8 <_vsnprintf+0x384>
     fb4:	b5d782e3          	beq	a5,t4,af8 <_vsnprintf+0x384>
d:\PDS\test\Sparrow_RISC-V\MRS\obj/../lib/driver/src/printf.c:320
      value /= base;
     fb8:	00060593          	mv	a1,a2
d:\PDS\test\Sparrow_RISC-V\MRS\obj/../lib/driver/src/printf.c:318
      const char digit = (char)(value % base);
     fbc:	0315f533          	remu	a0,a1,a7
     fc0:	0ff57613          	zext.b	a2,a0
d:\PDS\test\Sparrow_RISC-V\MRS\obj/../lib/driver/src/printf.c:319
      buf[len++] = digit < 10 ? '0' + digit : (flags & FLAGS_UPPERCASE ? 'A' : 'a') + digit - 10;
     fc4:	fca87ae3          	bgeu	a6,a0,f98 <_vsnprintf+0x824>
     fc8:	01e60633          	add	a2,a2,t5
     fcc:	0ff67613          	zext.b	a2,a2
     fd0:	fd1ff06f          	j	fa0 <_vsnprintf+0x82c>
_vsnprintf():
d:\PDS\test\Sparrow_RISC-V\MRS\obj/../lib/driver/src/printf.c:767
            idx = _ntoa_long_long(out, buffer, idx, maxlen, va_arg(va, unsigned long long), false, base, precision, width, flags);
     fd4:	007d0d13          	addi	s10,s10,7
     fd8:	ff8d7d13          	andi	s10,s10,-8
     fdc:	000d2f83          	lw	t6,0(s10)
     fe0:	004d2c83          	lw	s9,4(s10)
     fe4:	008d0d13          	addi	s10,s10,8
_ntoa_long_long():
d:\PDS\test\Sparrow_RISC-V\MRS\obj/../lib/driver/src/printf.c:336
  if (!value) {
     fe8:	019fe7b3          	or	a5,t6,s9
     fec:	02079863          	bnez	a5,101c <_vsnprintf+0x8a8>
d:\PDS\test\Sparrow_RISC-V\MRS\obj/../lib/driver/src/printf.c:337
    flags &= ~FLAGS_HASH;
     ff0:	fef6f693          	andi	a3,a3,-17
d:\PDS\test\Sparrow_RISC-V\MRS\obj/../lib/driver/src/printf.c:341
  if (!(flags & FLAGS_PRECISION) || value) {
     ff4:	02050463          	beqz	a0,101c <_vsnprintf+0x8a8>
d:\PDS\test\Sparrow_RISC-V\MRS\obj/../lib/driver/src/printf.c:333
  size_t len = 0U;
     ff8:	00000d93          	li	s11,0
     ffc:	04010713          	addi	a4,sp,64
d:\PDS\test\Sparrow_RISC-V\MRS\obj/../lib/driver/src/printf.c:349
  return _ntoa_format(out, buffer, idx, maxlen, buf, len, negative, (unsigned int)base, prec, width, flags);
    1000:	00030613          	mv	a2,t1
    1004:	00d12423          	sw	a3,8(sp)
    1008:	00812223          	sw	s0,4(sp)
    100c:	01c12023          	sw	t3,0(sp)
    1010:	00000813          	li	a6,0
    1014:	000d8793          	mv	a5,s11
    1018:	a4dff06f          	j	a64 <_vsnprintf+0x2f0>
d:\PDS\test\Sparrow_RISC-V\MRS\obj/../lib/driver/src/printf.c:344
      buf[len++] = digit < 10 ? '0' + digit : (flags & FLAGS_UPPERCASE ? 'A' : 'a') + digit - 10;
    101c:	0206f713          	andi	a4,a3,32
    1020:	06100793          	li	a5,97
    1024:	00070463          	beqz	a4,102c <_vsnprintf+0x8b8>
    1028:	04100793          	li	a5,65
    102c:	0ff7f593          	zext.b	a1,a5
    1030:	00000d93          	li	s11,0
    1034:	04010713          	addi	a4,sp,64
    1038:	ff658793          	addi	a5,a1,-10
    103c:	02812023          	sw	s0,32(sp)
    1040:	03412823          	sw	s4,48(sp)
    1044:	03312a23          	sw	s3,52(sp)
    1048:	03212c23          	sw	s2,56(sp)
    104c:	03812e23          	sw	s8,60(sp)
    1050:	01112e23          	sw	a7,28(sp)
    1054:	000d8c13          	mv	s8,s11
    1058:	03c12223          	sw	t3,36(sp)
    105c:	000d0d93          	mv	s11,s10
    1060:	02612423          	sw	t1,40(sp)
    1064:	02d12623          	sw	a3,44(sp)
    1068:	000f8413          	mv	s0,t6
    106c:	000f0993          	mv	s3,t5
    1070:	00060a13          	mv	s4,a2
    1074:	00070913          	mv	s2,a4
    1078:	00078d13          	mv	s10,a5
    107c:	0400006f          	j	10bc <_vsnprintf+0x948>
    1080:	03050793          	addi	a5,a0,48
    1084:	0ff7f793          	zext.b	a5,a5
    1088:	001c0c13          	addi	s8,s8,1
    108c:	01890833          	add	a6,s2,s8
d:\PDS\test\Sparrow_RISC-V\MRS\obj/../lib/driver/src/printf.c:345
      value /= base;
    1090:	00098613          	mv	a2,s3
    1094:	00000693          	li	a3,0
    1098:	00040513          	mv	a0,s0
    109c:	000c8593          	mv	a1,s9
d:\PDS\test\Sparrow_RISC-V\MRS\obj/../lib/driver/src/printf.c:344
      buf[len++] = digit < 10 ? '0' + digit : (flags & FLAGS_UPPERCASE ? 'A' : 'a') + digit - 10;
    10a0:	fef80fa3          	sb	a5,-1(a6)
d:\PDS\test\Sparrow_RISC-V\MRS\obj/../lib/driver/src/printf.c:345
      value /= base;
    10a4:	06c020ef          	jal	ra,3110 <__udivdi3>
d:\PDS\test\Sparrow_RISC-V\MRS\obj/../lib/driver/src/printf.c:346
    } while (value && (len < PRINTF_NTOA_BUFFER_SIZE));
    10a8:	0f9a0263          	beq	s4,s9,118c <_vsnprintf+0xa18>
    10ac:	02000793          	li	a5,32
    10b0:	0efc0063          	beq	s8,a5,1190 <_vsnprintf+0xa1c>
d:\PDS\test\Sparrow_RISC-V\MRS\obj/../lib/driver/src/printf.c:345
      value /= base;
    10b4:	00050413          	mv	s0,a0
    10b8:	00058c93          	mv	s9,a1
d:\PDS\test\Sparrow_RISC-V\MRS\obj/../lib/driver/src/printf.c:343
      const char digit = /*(char)*/(value % base);
    10bc:	00098613          	mv	a2,s3
    10c0:	00000693          	li	a3,0
    10c4:	00040513          	mv	a0,s0
    10c8:	000c8593          	mv	a1,s9
    10cc:	4fc020ef          	jal	ra,35c8 <__umoddi3>
    10d0:	0ff57513          	zext.b	a0,a0
d:\PDS\test\Sparrow_RISC-V\MRS\obj/../lib/driver/src/printf.c:344
      buf[len++] = digit < 10 ? '0' + digit : (flags & FLAGS_UPPERCASE ? 'A' : 'a') + digit - 10;
    10d4:	00900793          	li	a5,9
    10d8:	faa7f4e3          	bgeu	a5,a0,1080 <_vsnprintf+0x90c>
    10dc:	01a507b3          	add	a5,a0,s10
    10e0:	0ff7f793          	zext.b	a5,a5
    10e4:	fa5ff06f          	j	1088 <_vsnprintf+0x914>
_vsnprintf():
d:\PDS\test\Sparrow_RISC-V\MRS\obj/../lib/driver/src/printf.c:771
            idx = _ntoa_long(out, buffer, idx, maxlen, va_arg(va, unsigned long), false, base, precision, width, flags);
    10e8:	000d2783          	lw	a5,0(s10)
_ntoa_long():
d:\PDS\test\Sparrow_RISC-V\MRS\obj/../lib/driver/src/printf.c:311
  if (!value) {
    10ec:	00079863          	bnez	a5,10fc <_vsnprintf+0x988>
d:\PDS\test\Sparrow_RISC-V\MRS\obj/../lib/driver/src/printf.c:312
    flags &= ~FLAGS_HASH;
    10f0:	fef6f693          	andi	a3,a3,-17
d:\PDS\test\Sparrow_RISC-V\MRS\obj/../lib/driver/src/printf.c:316
  if (!(flags & FLAGS_PRECISION) || value) {
    10f4:	04010713          	addi	a4,sp,64
    10f8:	06051463          	bnez	a0,1160 <_vsnprintf+0x9ec>
d:\PDS\test\Sparrow_RISC-V\MRS\obj/../lib/driver/src/printf.c:319
      buf[len++] = digit < 10 ? '0' + digit : (flags & FLAGS_UPPERCASE ? 'A' : 'a') + digit - 10;
    10fc:	0206f613          	andi	a2,a3,32
    1100:	06100713          	li	a4,97
    1104:	00060463          	beqz	a2,110c <_vsnprintf+0x998>
    1108:	04100713          	li	a4,65
    110c:	0ff77f13          	zext.b	t5,a4
    1110:	00900813          	li	a6,9
    1114:	04010713          	addi	a4,sp,64
    1118:	ff6f0f13          	addi	t5,t5,-10
d:\PDS\test\Sparrow_RISC-V\MRS\obj/../lib/driver/src/printf.c:321
    } while (value && (len < PRINTF_NTOA_BUFFER_SIZE));
    111c:	02000e93          	li	t4,32
    1120:	0280006f          	j	1148 <_vsnprintf+0x9d4>
d:\PDS\test\Sparrow_RISC-V\MRS\obj/../lib/driver/src/printf.c:319
      buf[len++] = digit < 10 ? '0' + digit : (flags & FLAGS_UPPERCASE ? 'A' : 'a') + digit - 10;
    1124:	03060613          	addi	a2,a2,48
    1128:	0ff67613          	zext.b	a2,a2
    112c:	00158593          	addi	a1,a1,1
    1130:	00b70533          	add	a0,a4,a1
    1134:	fec50fa3          	sb	a2,-1(a0)
d:\PDS\test\Sparrow_RISC-V\MRS\obj/../lib/driver/src/printf.c:320
      value /= base;
    1138:	0317d633          	divu	a2,a5,a7
d:\PDS\test\Sparrow_RISC-V\MRS\obj/../lib/driver/src/printf.c:321
    } while (value && (len < PRINTF_NTOA_BUFFER_SIZE));
    113c:	0317e263          	bltu	a5,a7,1160 <_vsnprintf+0x9ec>
    1140:	03d58063          	beq	a1,t4,1160 <_vsnprintf+0x9ec>
d:\PDS\test\Sparrow_RISC-V\MRS\obj/../lib/driver/src/printf.c:320
      value /= base;
    1144:	00060793          	mv	a5,a2
d:\PDS\test\Sparrow_RISC-V\MRS\obj/../lib/driver/src/printf.c:318
      const char digit = (char)(value % base);
    1148:	0317f533          	remu	a0,a5,a7
    114c:	0ff57613          	zext.b	a2,a0
d:\PDS\test\Sparrow_RISC-V\MRS\obj/../lib/driver/src/printf.c:319
      buf[len++] = digit < 10 ? '0' + digit : (flags & FLAGS_UPPERCASE ? 'A' : 'a') + digit - 10;
    1150:	fca87ae3          	bgeu	a6,a0,1124 <_vsnprintf+0x9b0>
    1154:	01e60633          	add	a2,a2,t5
    1158:	0ff67613          	zext.b	a2,a2
    115c:	fd1ff06f          	j	112c <_vsnprintf+0x9b8>
d:\PDS\test\Sparrow_RISC-V\MRS\obj/../lib/driver/src/printf.c:324
  return _ntoa_format(out, buffer, idx, maxlen, buf, len, negative, (unsigned int)base, prec, width, flags);
    1160:	00030613          	mv	a2,t1
    1164:	00d12423          	sw	a3,8(sp)
    1168:	00812223          	sw	s0,4(sp)
    116c:	01c12023          	sw	t3,0(sp)
    1170:	00000813          	li	a6,0
    1174:	00058793          	mv	a5,a1
    1178:	995ff06f          	j	b0c <_vsnprintf+0x398>
_vsnprintf():
d:\PDS\test\Sparrow_RISC-V\MRS\obj/../lib/driver/src/printf.c:774 (discriminator 2)
            const unsigned int value = (flags & FLAGS_CHAR) ? (unsigned char)va_arg(va, unsigned int) : (flags & FLAGS_SHORT) ? (unsigned short int)va_arg(va, unsigned int) : va_arg(va, unsigned int);
    117c:	0806f713          	andi	a4,a3,128
    1180:	04070263          	beqz	a4,11c4 <_vsnprintf+0xa50>
    1184:	000d5583          	lhu	a1,0(s10)
    1188:	95dff06f          	j	ae4 <_vsnprintf+0x370>
_ntoa_long_long():
d:\PDS\test\Sparrow_RISC-V\MRS\obj/../lib/driver/src/printf.c:346
    } while (value && (len < PRINTF_NTOA_BUFFER_SIZE));
    118c:	f33470e3          	bgeu	s0,s3,10ac <_vsnprintf+0x938>
    1190:	000d8d13          	mv	s10,s11
    1194:	00090713          	mv	a4,s2
    1198:	000c0d93          	mv	s11,s8
    119c:	01c12883          	lw	a7,28(sp)
    11a0:	02012403          	lw	s0,32(sp)
    11a4:	02412e03          	lw	t3,36(sp)
    11a8:	02812303          	lw	t1,40(sp)
    11ac:	02c12683          	lw	a3,44(sp)
    11b0:	03012a03          	lw	s4,48(sp)
    11b4:	03412983          	lw	s3,52(sp)
    11b8:	03c12c03          	lw	s8,60(sp)
    11bc:	03812903          	lw	s2,56(sp)
    11c0:	e41ff06f          	j	1000 <_vsnprintf+0x88c>
_vsnprintf():
d:\PDS\test\Sparrow_RISC-V\MRS\obj/../lib/driver/src/printf.c:774
            const unsigned int value = (flags & FLAGS_CHAR) ? (unsigned char)va_arg(va, unsigned int) : (flags & FLAGS_SHORT) ? (unsigned short int)va_arg(va, unsigned int) : va_arg(va, unsigned int);
    11c4:	000d2583          	lw	a1,0(s10)
    11c8:	91dff06f          	j	ae4 <_vsnprintf+0x370>
d:\PDS\test\Sparrow_RISC-V\MRS\obj/../lib/driver/src/printf.c:828
          while (l++ < width) {
    11cc:	001c8c93          	addi	s9,s9,1
    11d0:	d45ff06f          	j	f14 <_vsnprintf+0x7a0>
d:\PDS\test\Sparrow_RISC-V\MRS\obj/../lib/driver/src/printf.c:809
        out((char)va_arg(va, int), buffer, idx++, maxlen);
    11d4:	000d4503          	lbu	a0,0(s10)
    11d8:	00090693          	mv	a3,s2
    11dc:	00030613          	mv	a2,t1
    11e0:	00098593          	mv	a1,s3
    11e4:	000a00e7          	jalr	s4
d:\PDS\test\Sparrow_RISC-V\MRS\obj/../lib/driver/src/printf.c:821
        const char* p = va_arg(va, char*);
    11e8:	01c12d03          	lw	s10,28(sp)
d:\PDS\test\Sparrow_RISC-V\MRS\obj/../lib/driver/src/printf.c:804
          while (l++ < width) {
    11ec:	000c8313          	mv	t1,s9
d:\PDS\test\Sparrow_RISC-V\MRS\obj/../lib/driver/src/printf.c:843
        break;
    11f0:	f28ff06f          	j	918 <_vsnprintf+0x1a4>
d:\PDS\test\Sparrow_RISC-V\MRS\obj/../lib/driver/src/printf.c:778
        format++;
    11f4:	00070c13          	mv	s8,a4
    11f8:	ea8ff06f          	j	8a0 <_vsnprintf+0x12c>
d:\PDS\test\Sparrow_RISC-V\MRS\obj/../lib/driver/src/printf.c:717
        if (*format == 'x' || *format == 'X') {
    11fc:	07800793          	li	a5,120
    1200:	2af50463          	beq	a0,a5,14a8 <_vsnprintf+0xd34>
    1204:	06f00793          	li	a5,111
    1208:	18f50c63          	beq	a0,a5,13a0 <_vsnprintf+0xc2c>
d:\PDS\test\Sparrow_RISC-V\MRS\obj/../lib/driver/src/printf.c:736
        if ((*format != 'i') && (*format != 'd')) {
    120c:	06900793          	li	a5,105
d:\PDS\test\Sparrow_RISC-V\MRS\obj/../lib/driver/src/printf.c:728
          flags &= ~FLAGS_HASH;   // no hash for dec format
    1210:	fef6fe93          	andi	t4,a3,-17
d:\PDS\test\Sparrow_RISC-V\MRS\obj/../lib/driver/src/printf.c:736
        if ((*format != 'i') && (*format != 'd')) {
    1214:	2af51863          	bne	a0,a5,14c4 <_vsnprintf+0xd50>
d:\PDS\test\Sparrow_RISC-V\MRS\obj/../lib/driver/src/printf.c:741
        if (flags & FLAGS_PRECISION) {
    1218:	4006f613          	andi	a2,a3,1024
    121c:	00060463          	beqz	a2,1224 <_vsnprintf+0xab0>
d:\PDS\test\Sparrow_RISC-V\MRS\obj/../lib/driver/src/printf.c:742
          flags &= ~FLAGS_ZEROPAD;
    1220:	fee6fe93          	andi	t4,a3,-18
d:\PDS\test\Sparrow_RISC-V\MRS\obj/../lib/driver/src/printf.c:748
          if (flags & FLAGS_LONG_LONG) {
    1224:	200ef693          	andi	a3,t4,512
    1228:	06069e63          	bnez	a3,12a4 <_vsnprintf+0xb30>
d:\PDS\test\Sparrow_RISC-V\MRS\obj/../lib/driver/src/printf.c:754
          else if (flags & FLAGS_LONG) {
    122c:	100ef793          	andi	a5,t4,256
d:\PDS\test\Sparrow_RISC-V\MRS\obj/../lib/driver/src/printf.c:755
            const long value = va_arg(va, long);
    1230:	004d0c93          	addi	s9,s10,4
d:\PDS\test\Sparrow_RISC-V\MRS\obj/../lib/driver/src/printf.c:754
          else if (flags & FLAGS_LONG) {
    1234:	1a079663          	bnez	a5,13e0 <_vsnprintf+0xc6c>
d:\PDS\test\Sparrow_RISC-V\MRS\obj/../lib/driver/src/printf.c:759
            const int value = (flags & FLAGS_CHAR) ? (char)va_arg(va, int) : (flags & FLAGS_SHORT) ? (short int)va_arg(va, int) : va_arg(va, int);
    1238:	040ef713          	andi	a4,t4,64
    123c:	18070063          	beqz	a4,13bc <_vsnprintf+0xc48>
    1240:	000d4703          	lbu	a4,0(s10)
    1244:	00070693          	mv	a3,a4
d:\PDS\test\Sparrow_RISC-V\MRS\obj/../lib/driver/src/printf.c:760 (discriminator 8)
            idx = _ntoa_long(out, buffer, idx, maxlen, (unsigned int)(value > 0 ? value : 0 - value), value < 0, base, precision, width, flags);
    1248:	01f75813          	srli	a6,a4,0x1f
_ntoa_long():
d:\PDS\test\Sparrow_RISC-V\MRS\obj/../lib/driver/src/printf.c:311 (discriminator 8)
  if (!value) {
    124c:	20070063          	beqz	a4,144c <_vsnprintf+0xcd8>
_vsnprintf():
d:\PDS\test\Sparrow_RISC-V\MRS\obj/../lib/driver/src/printf.c:760
            idx = _ntoa_long(out, buffer, idx, maxlen, (unsigned int)(value > 0 ? value : 0 - value), value < 0, base, precision, width, flags);
    1250:	00068613          	mv	a2,a3
    1254:	04010713          	addi	a4,sp,64
_ntoa_long():
d:\PDS\test\Sparrow_RISC-V\MRS\obj/../lib/driver/src/printf.c:318
      const char digit = (char)(value % base);
    1258:	00a00593          	li	a1,10
d:\PDS\test\Sparrow_RISC-V\MRS\obj/../lib/driver/src/printf.c:321
    } while (value && (len < PRINTF_NTOA_BUFFER_SIZE));
    125c:	00900f13          	li	t5,9
    1260:	02000f93          	li	t6,32
    1264:	0080006f          	j	126c <_vsnprintf+0xaf8>
    1268:	03f78263          	beq	a5,t6,128c <_vsnprintf+0xb18>
d:\PDS\test\Sparrow_RISC-V\MRS\obj/../lib/driver/src/printf.c:318
      const char digit = (char)(value % base);
    126c:	02b676b3          	remu	a3,a2,a1
d:\PDS\test\Sparrow_RISC-V\MRS\obj/../lib/driver/src/printf.c:319
      buf[len++] = digit < 10 ? '0' + digit : (flags & FLAGS_UPPERCASE ? 'A' : 'a') + digit - 10;
    1270:	00178793          	addi	a5,a5,1
    1274:	00f708b3          	add	a7,a4,a5
    1278:	00060513          	mv	a0,a2
    127c:	03068693          	addi	a3,a3,48
    1280:	fed88fa3          	sb	a3,-1(a7)
d:\PDS\test\Sparrow_RISC-V\MRS\obj/../lib/driver/src/printf.c:320
      value /= base;
    1284:	02b65633          	divu	a2,a2,a1
d:\PDS\test\Sparrow_RISC-V\MRS\obj/../lib/driver/src/printf.c:321
    } while (value && (len < PRINTF_NTOA_BUFFER_SIZE));
    1288:	feaf60e3          	bltu	t5,a0,1268 <_vsnprintf+0xaf4>
d:\PDS\test\Sparrow_RISC-V\MRS\obj/../lib/driver/src/printf.c:324
  return _ntoa_format(out, buffer, idx, maxlen, buf, len, negative, (unsigned int)base, prec, width, flags);
    128c:	00030613          	mv	a2,t1
    1290:	01d12423          	sw	t4,8(sp)
    1294:	00812223          	sw	s0,4(sp)
    1298:	01c12023          	sw	t3,0(sp)
    129c:	00a00893          	li	a7,10
    12a0:	86dff06f          	j	b0c <_vsnprintf+0x398>
_vsnprintf():
d:\PDS\test\Sparrow_RISC-V\MRS\obj/../lib/driver/src/printf.c:750
            const long long value = va_arg(va, long long);
    12a4:	007d0d13          	addi	s10,s10,7
    12a8:	ff8d7d13          	andi	s10,s10,-8
    12ac:	004d2683          	lw	a3,4(s10)
    12b0:	000d2583          	lw	a1,0(s10)
    12b4:	008d0d13          	addi	s10,s10,8
d:\PDS\test\Sparrow_RISC-V\MRS\obj/../lib/driver/src/printf.c:751
            idx = _ntoa_long_long(out, buffer, idx, maxlen, (unsigned long long)(value > 0 ? value : 0 - value), value < 0, base, precision, width, flags);
    12b8:	01f6d813          	srli	a6,a3,0x1f
_ntoa_long_long():
d:\PDS\test\Sparrow_RISC-V\MRS\obj/../lib/driver/src/printf.c:336
  if (!value) {
    12bc:	00d5e7b3          	or	a5,a1,a3
    12c0:	18078c63          	beqz	a5,1458 <_vsnprintf+0xce4>
_vsnprintf():
d:\PDS\test\Sparrow_RISC-V\MRS\obj/../lib/driver/src/printf.c:751
            idx = _ntoa_long_long(out, buffer, idx, maxlen, (unsigned long long)(value > 0 ? value : 0 - value), value < 0, base, precision, width, flags);
    12c4:	41f6d793          	srai	a5,a3,0x1f
    12c8:	00b7c5b3          	xor	a1,a5,a1
    12cc:	40f58733          	sub	a4,a1,a5
    12d0:	00d7c6b3          	xor	a3,a5,a3
    12d4:	00e5b633          	sltu	a2,a1,a4
    12d8:	40f687b3          	sub	a5,a3,a5
    12dc:	00070593          	mv	a1,a4
    12e0:	40c786b3          	sub	a3,a5,a2
_ntoa_long_long():
d:\PDS\test\Sparrow_RISC-V\MRS\obj/../lib/driver/src/printf.c:343
      const char digit = /*(char)*/(value % base);
    12e4:	ccccdf37          	lui	t5,0xccccd
    12e8:	ccdf0513          	addi	a0,t5,-819 # cccccccd <_sp+0xacc8cccd>
d:\PDS\test\Sparrow_RISC-V\MRS\obj/../lib/driver/src/printf.c:341
  if (!(flags & FLAGS_PRECISION) || value) {
    12ec:	00000793          	li	a5,0
    12f0:	04010713          	addi	a4,sp,64
d:\PDS\test\Sparrow_RISC-V\MRS\obj/../lib/driver/src/printf.c:343
      const char digit = /*(char)*/(value % base);
    12f4:	00500f93          	li	t6,5
    12f8:	cccf0f13          	addi	t5,t5,-820
d:\PDS\test\Sparrow_RISC-V\MRS\obj/../lib/driver/src/printf.c:346
    } while (value && (len < PRINTF_NTOA_BUFFER_SIZE));
    12fc:	02000393          	li	t2,32
    1300:	00068d93          	mv	s11,a3
d:\PDS\test\Sparrow_RISC-V\MRS\obj/../lib/driver/src/printf.c:343
      const char digit = /*(char)*/(value % base);
    1304:	01b586b3          	add	a3,a1,s11
    1308:	00b6b633          	sltu	a2,a3,a1
    130c:	00c68633          	add	a2,a3,a2
    1310:	03f67633          	remu	a2,a2,t6
    1314:	000d8893          	mv	a7,s11
d:\PDS\test\Sparrow_RISC-V\MRS\obj/../lib/driver/src/printf.c:344
      buf[len++] = digit < 10 ? '0' + digit : (flags & FLAGS_UPPERCASE ? 'A' : 'a') + digit - 10;
    1318:	00178793          	addi	a5,a5,1
    131c:	00f702b3          	add	t0,a4,a5
    1320:	00058c93          	mv	s9,a1
d:\PDS\test\Sparrow_RISC-V\MRS\obj/../lib/driver/src/printf.c:343
      const char digit = /*(char)*/(value % base);
    1324:	40c58633          	sub	a2,a1,a2
    1328:	00c5b6b3          	sltu	a3,a1,a2
    132c:	40dd86b3          	sub	a3,s11,a3
    1330:	03e600b3          	mul	ra,a2,t5
    1334:	02a686b3          	mul	a3,a3,a0
    1338:	02a63db3          	mulhu	s11,a2,a0
    133c:	001686b3          	add	a3,a3,ra
    1340:	02a60633          	mul	a2,a2,a0
    1344:	01b686b3          	add	a3,a3,s11
    1348:	01f69093          	slli	ra,a3,0x1f
d:\PDS\test\Sparrow_RISC-V\MRS\obj/../lib/driver/src/printf.c:345
      value /= base;
    134c:	0016dd93          	srli	s11,a3,0x1
d:\PDS\test\Sparrow_RISC-V\MRS\obj/../lib/driver/src/printf.c:343
      const char digit = /*(char)*/(value % base);
    1350:	00165613          	srli	a2,a2,0x1
    1354:	00c0e633          	or	a2,ra,a2
    1358:	00261693          	slli	a3,a2,0x2
    135c:	00c686b3          	add	a3,a3,a2
    1360:	00169693          	slli	a3,a3,0x1
    1364:	40d586b3          	sub	a3,a1,a3
d:\PDS\test\Sparrow_RISC-V\MRS\obj/../lib/driver/src/printf.c:344
      buf[len++] = digit < 10 ? '0' + digit : (flags & FLAGS_UPPERCASE ? 'A' : 'a') + digit - 10;
    1368:	03068693          	addi	a3,a3,48
    136c:	fed28fa3          	sb	a3,-1(t0)
d:\PDS\test\Sparrow_RISC-V\MRS\obj/../lib/driver/src/printf.c:345
      value /= base;
    1370:	00060593          	mv	a1,a2
d:\PDS\test\Sparrow_RISC-V\MRS\obj/../lib/driver/src/printf.c:346
    } while (value && (len < PRINTF_NTOA_BUFFER_SIZE));
    1374:	02088063          	beqz	a7,1394 <_vsnprintf+0xc20>
    1378:	f87796e3          	bne	a5,t2,1304 <_vsnprintf+0xb90>
d:\PDS\test\Sparrow_RISC-V\MRS\obj/../lib/driver/src/printf.c:349
  return _ntoa_format(out, buffer, idx, maxlen, buf, len, negative, (unsigned int)base, prec, width, flags);
    137c:	00030613          	mv	a2,t1
    1380:	01d12423          	sw	t4,8(sp)
    1384:	00812223          	sw	s0,4(sp)
    1388:	01c12023          	sw	t3,0(sp)
    138c:	00a00893          	li	a7,10
    1390:	ed4ff06f          	j	a64 <_vsnprintf+0x2f0>
d:\PDS\test\Sparrow_RISC-V\MRS\obj/../lib/driver/src/printf.c:346
    } while (value && (len < PRINTF_NTOA_BUFFER_SIZE));
    1394:	00900693          	li	a3,9
    1398:	ff96e0e3          	bltu	a3,s9,1378 <_vsnprintf+0xc04>
    139c:	fe1ff06f          	j	137c <_vsnprintf+0xc08>
_vsnprintf():
d:\PDS\test\Sparrow_RISC-V\MRS\obj/../lib/driver/src/printf.c:741
        if (flags & FLAGS_PRECISION) {
    13a0:	4006f513          	andi	a0,a3,1024
    13a4:	0e050263          	beqz	a0,1488 <_vsnprintf+0xd14>
    13a8:	00800893          	li	a7,8
    13ac:	00800f13          	li	t5,8
    13b0:	00000613          	li	a2,0
d:\PDS\test\Sparrow_RISC-V\MRS\obj/../lib/driver/src/printf.c:742
          flags &= ~FLAGS_ZEROPAD;
    13b4:	ff26f693          	andi	a3,a3,-14
d:\PDS\test\Sparrow_RISC-V\MRS\obj/../lib/driver/src/printf.c:746
        if ((*format == 'i') || (*format == 'd')) {
    13b8:	f0cff06f          	j	ac4 <_vsnprintf+0x350>
d:\PDS\test\Sparrow_RISC-V\MRS\obj/../lib/driver/src/printf.c:759 (discriminator 2)
            const int value = (flags & FLAGS_CHAR) ? (char)va_arg(va, int) : (flags & FLAGS_SHORT) ? (short int)va_arg(va, int) : va_arg(va, int);
    13bc:	080ef713          	andi	a4,t4,128
    13c0:	0a070463          	beqz	a4,1468 <_vsnprintf+0xcf4>
d:\PDS\test\Sparrow_RISC-V\MRS\obj/../lib/driver/src/printf.c:759
    13c4:	000d1703          	lh	a4,0(s10)
d:\PDS\test\Sparrow_RISC-V\MRS\obj/../lib/driver/src/printf.c:760
            idx = _ntoa_long(out, buffer, idx, maxlen, (unsigned int)(value > 0 ? value : 0 - value), value < 0, base, precision, width, flags);
    13c8:	40f75593          	srai	a1,a4,0xf
    13cc:	00b746b3          	xor	a3,a4,a1
    13d0:	40b686b3          	sub	a3,a3,a1
    13d4:	01069693          	slli	a3,a3,0x10
    13d8:	0106d693          	srli	a3,a3,0x10
    13dc:	e6dff06f          	j	1248 <_vsnprintf+0xad4>
d:\PDS\test\Sparrow_RISC-V\MRS\obj/../lib/driver/src/printf.c:755
            const long value = va_arg(va, long);
    13e0:	000d2783          	lw	a5,0(s10)
d:\PDS\test\Sparrow_RISC-V\MRS\obj/../lib/driver/src/printf.c:756
            idx = _ntoa_long(out, buffer, idx, maxlen, (unsigned long)(value > 0 ? value : 0 - value), value < 0, base, precision, width, flags);
    13e4:	01f7d813          	srli	a6,a5,0x1f
_ntoa_long():
d:\PDS\test\Sparrow_RISC-V\MRS\obj/../lib/driver/src/printf.c:311
  if (!value) {
    13e8:	08078a63          	beqz	a5,147c <_vsnprintf+0xd08>
_vsnprintf():
d:\PDS\test\Sparrow_RISC-V\MRS\obj/../lib/driver/src/printf.c:756
            idx = _ntoa_long(out, buffer, idx, maxlen, (unsigned long)(value > 0 ? value : 0 - value), value < 0, base, precision, width, flags);
    13ec:	41f7d713          	srai	a4,a5,0x1f
    13f0:	00f74633          	xor	a2,a4,a5
    13f4:	40e60633          	sub	a2,a2,a4
    13f8:	04010713          	addi	a4,sp,64
_ntoa_long():
d:\PDS\test\Sparrow_RISC-V\MRS\obj/../lib/driver/src/printf.c:318
      const char digit = (char)(value % base);
    13fc:	00a00593          	li	a1,10
d:\PDS\test\Sparrow_RISC-V\MRS\obj/../lib/driver/src/printf.c:321
    } while (value && (len < PRINTF_NTOA_BUFFER_SIZE));
    1400:	00900f13          	li	t5,9
    1404:	02000f93          	li	t6,32
    1408:	0080006f          	j	1410 <_vsnprintf+0xc9c>
    140c:	03f68263          	beq	a3,t6,1430 <_vsnprintf+0xcbc>
d:\PDS\test\Sparrow_RISC-V\MRS\obj/../lib/driver/src/printf.c:318
      const char digit = (char)(value % base);
    1410:	02b677b3          	remu	a5,a2,a1
d:\PDS\test\Sparrow_RISC-V\MRS\obj/../lib/driver/src/printf.c:319
      buf[len++] = digit < 10 ? '0' + digit : (flags & FLAGS_UPPERCASE ? 'A' : 'a') + digit - 10;
    1414:	00168693          	addi	a3,a3,1
    1418:	00d708b3          	add	a7,a4,a3
    141c:	00060513          	mv	a0,a2
    1420:	03078793          	addi	a5,a5,48
    1424:	fef88fa3          	sb	a5,-1(a7)
d:\PDS\test\Sparrow_RISC-V\MRS\obj/../lib/driver/src/printf.c:320
      value /= base;
    1428:	02b65633          	divu	a2,a2,a1
d:\PDS\test\Sparrow_RISC-V\MRS\obj/../lib/driver/src/printf.c:321
    } while (value && (len < PRINTF_NTOA_BUFFER_SIZE));
    142c:	feaf60e3          	bltu	t5,a0,140c <_vsnprintf+0xc98>
d:\PDS\test\Sparrow_RISC-V\MRS\obj/../lib/driver/src/printf.c:324
  return _ntoa_format(out, buffer, idx, maxlen, buf, len, negative, (unsigned int)base, prec, width, flags);
    1430:	00030613          	mv	a2,t1
    1434:	01d12423          	sw	t4,8(sp)
    1438:	00812223          	sw	s0,4(sp)
    143c:	01c12023          	sw	t3,0(sp)
    1440:	00a00893          	li	a7,10
    1444:	00068793          	mv	a5,a3
    1448:	ec4ff06f          	j	b0c <_vsnprintf+0x398>
d:\PDS\test\Sparrow_RISC-V\MRS\obj/../lib/driver/src/printf.c:316
  if (!(flags & FLAGS_PRECISION) || value) {
    144c:	04010713          	addi	a4,sp,64
    1450:	e2061ee3          	bnez	a2,128c <_vsnprintf+0xb18>
    1454:	e01ff06f          	j	1254 <_vsnprintf+0xae0>
_ntoa_long_long():
d:\PDS\test\Sparrow_RISC-V\MRS\obj/../lib/driver/src/printf.c:341
  if (!(flags & FLAGS_PRECISION) || value) {
    1458:	04061263          	bnez	a2,149c <_vsnprintf+0xd28>
    145c:	00000593          	li	a1,0
    1460:	00000693          	li	a3,0
    1464:	e81ff06f          	j	12e4 <_vsnprintf+0xb70>
_vsnprintf():
d:\PDS\test\Sparrow_RISC-V\MRS\obj/../lib/driver/src/printf.c:759
            const int value = (flags & FLAGS_CHAR) ? (char)va_arg(va, int) : (flags & FLAGS_SHORT) ? (short int)va_arg(va, int) : va_arg(va, int);
    1468:	000d2703          	lw	a4,0(s10)
d:\PDS\test\Sparrow_RISC-V\MRS\obj/../lib/driver/src/printf.c:760
            idx = _ntoa_long(out, buffer, idx, maxlen, (unsigned int)(value > 0 ? value : 0 - value), value < 0, base, precision, width, flags);
    146c:	41f75593          	srai	a1,a4,0x1f
    1470:	00e5c6b3          	xor	a3,a1,a4
    1474:	40b686b3          	sub	a3,a3,a1
    1478:	dd1ff06f          	j	1248 <_vsnprintf+0xad4>
_ntoa_long():
d:\PDS\test\Sparrow_RISC-V\MRS\obj/../lib/driver/src/printf.c:316
  if (!(flags & FLAGS_PRECISION) || value) {
    147c:	04010713          	addi	a4,sp,64
    1480:	fa0618e3          	bnez	a2,1430 <_vsnprintf+0xcbc>
    1484:	f75ff06f          	j	13f8 <_vsnprintf+0xc84>
_vsnprintf():
d:\PDS\test\Sparrow_RISC-V\MRS\obj/../lib/driver/src/printf.c:737
          flags &= ~(FLAGS_PLUS | FLAGS_SPACE);
    1488:	ff36f693          	andi	a3,a3,-13
    148c:	00800f13          	li	t5,8
    1490:	00000613          	li	a2,0
    1494:	00800893          	li	a7,8
    1498:	e2cff06f          	j	ac4 <_vsnprintf+0x350>
_ntoa_long_long():
d:\PDS\test\Sparrow_RISC-V\MRS\obj/../lib/driver/src/printf.c:333
  size_t len = 0U;
    149c:	00000793          	li	a5,0
    14a0:	04010713          	addi	a4,sp,64
    14a4:	ed9ff06f          	j	137c <_vsnprintf+0xc08>
_vsnprintf():
d:\PDS\test\Sparrow_RISC-V\MRS\obj/../lib/driver/src/printf.c:741
        if (flags & FLAGS_PRECISION) {
    14a8:	4006f513          	andi	a0,a3,1024
    14ac:	aa0506e3          	beqz	a0,f58 <_vsnprintf+0x7e4>
d:\PDS\test\Sparrow_RISC-V\MRS\obj/../lib/driver/src/printf.c:742
          flags &= ~FLAGS_ZEROPAD;
    14b0:	ff26f693          	andi	a3,a3,-14
    14b4:	01000f13          	li	t5,16
    14b8:	00000613          	li	a2,0
    14bc:	01000893          	li	a7,16
    14c0:	e04ff06f          	j	ac4 <_vsnprintf+0x350>
d:\PDS\test\Sparrow_RISC-V\MRS\obj/../lib/driver/src/printf.c:736 (discriminator 1)
        if ((*format != 'i') && (*format != 'd')) {
    14c4:	06400793          	li	a5,100
    14c8:	d4f508e3          	beq	a0,a5,1218 <_vsnprintf+0xaa4>
d:\PDS\test\Sparrow_RISC-V\MRS\obj/../lib/driver/src/printf.c:741
        if (flags & FLAGS_PRECISION) {
    14cc:	4006f513          	andi	a0,a3,1024
    14d0:	00050e63          	beqz	a0,14ec <_vsnprintf+0xd78>
d:\PDS\test\Sparrow_RISC-V\MRS\obj/../lib/driver/src/printf.c:728
          flags &= ~FLAGS_HASH;   // no hash for dec format
    14d4:	000e8693          	mv	a3,t4
d:\PDS\test\Sparrow_RISC-V\MRS\obj/../lib/driver/src/printf.c:727
          base = 10U;
    14d8:	00a00893          	li	a7,10
d:\PDS\test\Sparrow_RISC-V\MRS\obj/../lib/driver/src/printf.c:741
        if (flags & FLAGS_PRECISION) {
    14dc:	00a00f13          	li	t5,10
    14e0:	00000613          	li	a2,0
d:\PDS\test\Sparrow_RISC-V\MRS\obj/../lib/driver/src/printf.c:742
          flags &= ~FLAGS_ZEROPAD;
    14e4:	ff26f693          	andi	a3,a3,-14
d:\PDS\test\Sparrow_RISC-V\MRS\obj/../lib/driver/src/printf.c:746
        if ((*format == 'i') || (*format == 'd')) {
    14e8:	ddcff06f          	j	ac4 <_vsnprintf+0x350>
d:\PDS\test\Sparrow_RISC-V\MRS\obj/../lib/driver/src/printf.c:737
          flags &= ~(FLAGS_PLUS | FLAGS_SPACE);
    14ec:	fe36f693          	andi	a3,a3,-29
    14f0:	00a00f13          	li	t5,10
    14f4:	00000613          	li	a2,0
d:\PDS\test\Sparrow_RISC-V\MRS\obj/../lib/driver/src/printf.c:727
          base = 10U;
    14f8:	00a00893          	li	a7,10
    14fc:	dc8ff06f          	j	ac4 <_vsnprintf+0x350>

00001500 <init_uart0_printf>:
init_uart0_printf():
d:\PDS\test\Sparrow_RISC-V\MRS\obj/../lib/driver/src/printf.c:43
{
    1500:	ff010113          	addi	sp,sp,-16
    1504:	00812423          	sw	s0,8(sp)
    1508:	00050413          	mv	s0,a0
d:\PDS\test\Sparrow_RISC-V\MRS\obj/../lib/driver/src/printf.c:45
  fpioa_perips_out_set(UART0_TX, uart_tx_fpioa_port);//也可以自定义
    150c:	00700513          	li	a0,7
d:\PDS\test\Sparrow_RISC-V\MRS\obj/../lib/driver/src/printf.c:43
{
    1510:	00112623          	sw	ra,12(sp)
d:\PDS\test\Sparrow_RISC-V\MRS\obj/../lib/driver/src/printf.c:45
  fpioa_perips_out_set(UART0_TX, uart_tx_fpioa_port);//也可以自定义
    1514:	d05fe0ef          	jal	ra,218 <fpioa_perips_out_set>
d:\PDS\test\Sparrow_RISC-V\MRS\obj/../lib/driver/src/printf.c:47
  uart_band_ctrl(UART0,band);
    1518:	00040593          	mv	a1,s0
    151c:	40000537          	lui	a0,0x40000
    1520:	d31fe0ef          	jal	ra,250 <uart_band_ctrl>
d:\PDS\test\Sparrow_RISC-V\MRS\obj/../lib/driver/src/printf.c:51
}
    1524:	00812403          	lw	s0,8(sp)
    1528:	00c12083          	lw	ra,12(sp)
d:\PDS\test\Sparrow_RISC-V\MRS\obj/../lib/driver/src/printf.c:49
  uart_enable_ctrl(UART0, ENABLE);
    152c:	00100593          	li	a1,1
    1530:	40000537          	lui	a0,0x40000
d:\PDS\test\Sparrow_RISC-V\MRS\obj/../lib/driver/src/printf.c:51
}
    1534:	01010113          	addi	sp,sp,16
d:\PDS\test\Sparrow_RISC-V\MRS\obj/../lib/driver/src/printf.c:49
  uart_enable_ctrl(UART0, ENABLE);
    1538:	cf5fe06f          	j	22c <uart_enable_ctrl>

0000153c <printf_>:
printf_():
d:\PDS\test\Sparrow_RISC-V\MRS\obj/../lib/driver/src/printf.c:887


///////////////////////////////////////////////////////////////////////////////

int printf_(const char* format, ...)
{
    153c:	fc010113          	addi	sp,sp,-64
d:\PDS\test\Sparrow_RISC-V\MRS\obj/../lib/driver/src/printf.c:889
  va_list va;
  va_start(va, format);
    1540:	02410313          	addi	t1,sp,36
d:\PDS\test\Sparrow_RISC-V\MRS\obj/../lib/driver/src/printf.c:887
{
    1544:	02d12623          	sw	a3,44(sp)
d:\PDS\test\Sparrow_RISC-V\MRS\obj/../lib/driver/src/printf.c:891
  char buffer[1];
  const int ret = _vsnprintf(_out_char, buffer, (size_t)-1, format, va);
    1548:	00050693          	mv	a3,a0
d:\PDS\test\Sparrow_RISC-V\MRS\obj/../lib/driver/src/printf.c:887
{
    154c:	02b12223          	sw	a1,36(sp)
    1550:	02c12423          	sw	a2,40(sp)
    1554:	02e12823          	sw	a4,48(sp)
d:\PDS\test\Sparrow_RISC-V\MRS\obj/../lib/driver/src/printf.c:891
  const int ret = _vsnprintf(_out_char, buffer, (size_t)-1, format, va);
    1558:	00810593          	addi	a1,sp,8
    155c:	00030713          	mv	a4,t1
    1560:	fff00613          	li	a2,-1
    1564:	75400513          	li	a0,1876
d:\PDS\test\Sparrow_RISC-V\MRS\obj/../lib/driver/src/printf.c:887
{
    1568:	00112e23          	sw	ra,28(sp)
    156c:	02f12a23          	sw	a5,52(sp)
    1570:	03012c23          	sw	a6,56(sp)
    1574:	03112e23          	sw	a7,60(sp)
d:\PDS\test\Sparrow_RISC-V\MRS\obj/../lib/driver/src/printf.c:889
  va_start(va, format);
    1578:	00612623          	sw	t1,12(sp)
d:\PDS\test\Sparrow_RISC-V\MRS\obj/../lib/driver/src/printf.c:891
  const int ret = _vsnprintf(_out_char, buffer, (size_t)-1, format, va);
    157c:	9f8ff0ef          	jal	ra,774 <_vsnprintf>
d:\PDS\test\Sparrow_RISC-V\MRS\obj/../lib/driver/src/printf.c:894
  va_end(va);
  return ret;
}
    1580:	01c12083          	lw	ra,28(sp)
    1584:	04010113          	addi	sp,sp,64
    1588:	00008067          	ret

0000158c <init_map>:
init_map():
d:\PDS\test\Sparrow_RISC-V\MRS\obj/../app/main.c:46
void init_map(int tl_x,int tl_y,int tr_x,int tr_y,int bl_x,int bl_y,int br_x,int br_y){
    158c:	fb010113          	addi	sp,sp,-80
    1590:	03312e23          	sw	s3,60(sp)
    1594:	00050993          	mv	s3,a0
d:\PDS\test\Sparrow_RISC-V\MRS\obj/../app/main.c:47
    printf("透视映射表...\r\n");
    1598:	20000537          	lui	a0,0x20000
    159c:	04450513          	addi	a0,a0,68 # 20000044 <_data+0x44>
d:\PDS\test\Sparrow_RISC-V\MRS\obj/../app/main.c:46
void init_map(int tl_x,int tl_y,int tr_x,int tr_y,int bl_x,int bl_y,int br_x,int br_y){
    15a0:	04812423          	sw	s0,72(sp)
    15a4:	04912223          	sw	s1,68(sp)
    15a8:	05212023          	sw	s2,64(sp)
    15ac:	03412c23          	sw	s4,56(sp)
    15b0:	03512a23          	sw	s5,52(sp)
    15b4:	03612823          	sw	s6,48(sp)
    15b8:	03712623          	sw	s7,44(sp)
    15bc:	03812423          	sw	s8,40(sp)
    15c0:	03912223          	sw	s9,36(sp)
    15c4:	03a12023          	sw	s10,32(sp)
    15c8:	00058913          	mv	s2,a1
    15cc:	00068b13          	mv	s6,a3
    15d0:	00078413          	mv	s0,a5
    15d4:	04112623          	sw	ra,76(sp)
    15d8:	01b12e23          	sw	s11,28(sp)
    15dc:	00060b93          	mv	s7,a2
    15e0:	00070493          	mv	s1,a4
    15e4:	00080a93          	mv	s5,a6
    15e8:	00088a13          	mv	s4,a7
d:\PDS\test\Sparrow_RISC-V\MRS\obj/../app/main.c:47
    printf("透视映射表...\r\n");
    15ec:	f51ff0ef          	jal	ra,153c <printf_>
d:\PDS\test\Sparrow_RISC-V\MRS\obj/../app/main.c:48
    for(int y=0;y<TARGET_H;y++){
    15f0:	000017b7          	lui	a5,0x1
    15f4:	dc078793          	addi	a5,a5,-576 # dc0 <_vsnprintf+0x64c>
d:\PDS\test\Sparrow_RISC-V\MRS\obj/../app/main.c:47
    printf("透视映射表...\r\n");
    15f8:	a2000f37          	lui	t5,0xa2000
d:\PDS\test\Sparrow_RISC-V\MRS\obj/../app/main.c:48
    for(int y=0;y<TARGET_H;y++){
    15fc:	00f12223          	sw	a5,4(sp)
    1600:	0000f7b7          	lui	a5,0xf
d:\PDS\test\Sparrow_RISC-V\MRS\obj/../app/main.c:47
    printf("透视映射表...\r\n");
    1604:	004f0f13          	addi	t5,t5,4 # a2000004 <_sp+0x81fc0004>
d:\PDS\test\Sparrow_RISC-V\MRS\obj/../app/main.c:50
        for(int x=0;x<TARGET_W;x++){
    1608:	0001c2b7          	lui	t0,0x1c
d:\PDS\test\Sparrow_RISC-V\MRS\obj/../app/main.c:48
    for(int y=0;y<TARGET_H;y++){
    160c:	0a078793          	addi	a5,a5,160 # f0a0 <__stack_size+0xb0a0>
d:\PDS\test\Sparrow_RISC-V\MRS\obj/../app/main.c:47
    printf("透视映射表...\r\n");
    1610:	00000693          	li	a3,0
    1614:	00000f93          	li	t6,0
safe_div():
d:\PDS\test\Sparrow_RISC-V\MRS\obj/../app/main.c:32
    while(n>=d){int t=d,m=1;while(n>=(t<<1)&&(t<<1)>t){t<<=1;m<<=1;}n-=t;r+=m;}
    1618:	08a00c13          	li	s8,138
    161c:	11500c93          	li	s9,277
init_map():
d:\PDS\test\Sparrow_RISC-V\MRS\obj/../app/main.c:49
        int fy=safe_div(y*FIXED_SCALE,TARGET_H-1),iv_fy=FIXED_SCALE-fy;
    1620:	10000393          	li	t2,256
safe_div():
d:\PDS\test\Sparrow_RISC-V\MRS\obj/../app/main.c:32
    while(n>=d){int t=d,m=1;while(n>=(t<<1)&&(t<<1)>t){t<<=1;m<<=1;}n-=t;r+=m;}
    1624:	1b600593          	li	a1,438
    1628:	36d00513          	li	a0,877
init_map():
d:\PDS\test\Sparrow_RISC-V\MRS\obj/../app/main.c:50
        for(int x=0;x<TARGET_W;x++){
    162c:	80028293          	addi	t0,t0,-2048 # 1b800 <__stack_size+0x17800>
d:\PDS\test\Sparrow_RISC-V\MRS\obj/../app/main.c:48
    for(int y=0;y<TARGET_H;y++){
    1630:	00f12423          	sw	a5,8(sp)
    1634:	000f0d13          	mv	s10,t5
d:\PDS\test\Sparrow_RISC-V\MRS\obj/../app/main.c:49
        int fy=safe_div(y*FIXED_SCALE,TARGET_H-1),iv_fy=FIXED_SCALE-fy;
    1638:	000f8813          	mv	a6,t6
safe_div():
d:\PDS\test\Sparrow_RISC-V\MRS\obj/../app/main.c:31
    if(d==0)return 0;int r=0;
    163c:	00000e93          	li	t4,0
d:\PDS\test\Sparrow_RISC-V\MRS\obj/../app/main.c:32
    while(n>=d){int t=d,m=1;while(n>=(t<<1)&&(t<<1)>t){t<<=1;m<<=1;}n-=t;r+=m;}
    1640:	10000f13          	li	t5,256
    1644:	05fc7063          	bgeu	s8,t6,1684 <init_map+0xf8>
    1648:	190cd063          	bge	s9,a6,17c8 <init_map+0x23c>
    164c:	01700713          	li	a4,23
    1650:	11600793          	li	a5,278
    1654:	00100613          	li	a2,1
    1658:	0080006f          	j	1660 <init_map+0xd4>
    165c:	00070c63          	beqz	a4,1674 <init_map+0xe8>
    1660:	00078893          	mv	a7,a5
    1664:	00179793          	slli	a5,a5,0x1
    1668:	fff70713          	addi	a4,a4,-1
    166c:	00161613          	slli	a2,a2,0x1
    1670:	fef856e3          	bge	a6,a5,165c <init_map+0xd0>
    1674:	41180833          	sub	a6,a6,a7
    1678:	00ce8eb3          	add	t4,t4,a2
    167c:	fd0c46e3          	blt	s8,a6,1648 <init_map+0xbc>
init_map():
d:\PDS\test\Sparrow_RISC-V\MRS\obj/../app/main.c:49
        int fy=safe_div(y*FIXED_SCALE,TARGET_H-1),iv_fy=FIXED_SCALE-fy;
    1680:	41d38f33          	sub	t5,t2,t4
safe_div():
d:\PDS\test\Sparrow_RISC-V\MRS\obj/../app/main.c:31
    if(d==0)return 0;int r=0;
    1684:	000d0e13          	mv	t3,s10
    1688:	00000313          	li	t1,0
    168c:	01a12623          	sw	s10,12(sp)
init_map():
d:\PDS\test\Sparrow_RISC-V\MRS\obj/../app/main.c:51 (discriminator 3)
            int fx=safe_div(x*FIXED_SCALE,TARGET_W-1),iv_fx=FIXED_SCALE-fx;
    1690:	00030813          	mv	a6,t1
safe_div():
d:\PDS\test\Sparrow_RISC-V\MRS\obj/../app/main.c:31 (discriminator 3)
    if(d==0)return 0;int r=0;
    1694:	00000893          	li	a7,0
d:\PDS\test\Sparrow_RISC-V\MRS\obj/../app/main.c:32 (discriminator 3)
    while(n>=d){int t=d,m=1;while(n>=(t<<1)&&(t<<1)>t){t<<=1;m<<=1;}n-=t;r+=m;}
    1698:	1065fa63          	bgeu	a1,t1,17ac <init_map+0x220>
d:\PDS\test\Sparrow_RISC-V\MRS\obj/../app/main.c:32
    169c:	13055263          	bge	a0,a6,17c0 <init_map+0x234>
    16a0:	01600713          	li	a4,22
    16a4:	36e00793          	li	a5,878
    16a8:	00100613          	li	a2,1
    16ac:	0080006f          	j	16b4 <init_map+0x128>
    16b0:	00070c63          	beqz	a4,16c8 <init_map+0x13c>
    16b4:	00078d13          	mv	s10,a5
    16b8:	00179793          	slli	a5,a5,0x1
    16bc:	fff70713          	addi	a4,a4,-1
    16c0:	00161613          	slli	a2,a2,0x1
    16c4:	fef856e3          	bge	a6,a5,16b0 <init_map+0x124>
    16c8:	41a80833          	sub	a6,a6,s10
    16cc:	00c888b3          	add	a7,a7,a2
    16d0:	fd05c6e3          	blt	a1,a6,169c <init_map+0x110>
init_map():
d:\PDS\test\Sparrow_RISC-V\MRS\obj/../app/main.c:53
                         (fx*fy>>FIXED_SHIFT)*br_x+(iv_fx*fy>>FIXED_SHIFT)*bl_x)>>FIXED_SHIFT;
    16d4:	03d887b3          	mul	a5,a7,t4
d:\PDS\test\Sparrow_RISC-V\MRS\obj/../app/main.c:51
            int fx=safe_div(x*FIXED_SCALE,TARGET_W-1),iv_fx=FIXED_SCALE-fx;
    16d8:	41138833          	sub	a6,t2,a7
d:\PDS\test\Sparrow_RISC-V\MRS\obj/../app/main.c:52
            MAP_XY(y,x)=((iv_fx*iv_fy>>FIXED_SHIFT)*tl_x+(fx*iv_fy>>FIXED_SHIFT)*tr_x+
    16dc:	03e88733          	mul	a4,a7,t5
d:\PDS\test\Sparrow_RISC-V\MRS\obj/../app/main.c:53
                         (fx*fy>>FIXED_SHIFT)*br_x+(iv_fx*fy>>FIXED_SHIFT)*bl_x)>>FIXED_SHIFT;
    16e0:	4087d793          	srai	a5,a5,0x8
d:\PDS\test\Sparrow_RISC-V\MRS\obj/../app/main.c:52
            MAP_XY(y,x)=((iv_fx*iv_fy>>FIXED_SHIFT)*tl_x+(fx*iv_fy>>FIXED_SHIFT)*tr_x+
    16e4:	40875893          	srai	a7,a4,0x8
    16e8:	031b8db3          	mul	s11,s7,a7
d:\PDS\test\Sparrow_RISC-V\MRS\obj/../app/main.c:53
                         (fx*fy>>FIXED_SHIFT)*br_x+(iv_fx*fy>>FIXED_SHIFT)*bl_x)>>FIXED_SHIFT;
    16ec:	02fa8d33          	mul	s10,s5,a5
d:\PDS\test\Sparrow_RISC-V\MRS\obj/../app/main.c:54
            MAP_YY(y,x)=((iv_fx*iv_fy>>FIXED_SHIFT)*tl_y+(fx*iv_fy>>FIXED_SHIFT)*tr_y+
    16f0:	031b08b3          	mul	a7,s6,a7
d:\PDS\test\Sparrow_RISC-V\MRS\obj/../app/main.c:55
                         (fx*fy>>FIXED_SHIFT)*br_y+(iv_fx*fy>>FIXED_SHIFT)*bl_y)>>FIXED_SHIFT;
    16f4:	02fa07b3          	mul	a5,s4,a5
d:\PDS\test\Sparrow_RISC-V\MRS\obj/../app/main.c:50
        for(int x=0;x<TARGET_W;x++){
    16f8:	008e0e13          	addi	t3,t3,8
    16fc:	10030313          	addi	t1,t1,256
d:\PDS\test\Sparrow_RISC-V\MRS\obj/../app/main.c:52
            MAP_XY(y,x)=((iv_fx*iv_fy>>FIXED_SHIFT)*tl_x+(fx*iv_fy>>FIXED_SHIFT)*tr_x+
    1700:	030f0733          	mul	a4,t5,a6
    1704:	40875713          	srai	a4,a4,0x8
    1708:	03370633          	mul	a2,a4,s3
d:\PDS\test\Sparrow_RISC-V\MRS\obj/../app/main.c:53
                         (fx*fy>>FIXED_SHIFT)*br_x+(iv_fx*fy>>FIXED_SHIFT)*bl_x)>>FIXED_SHIFT;
    170c:	030e8833          	mul	a6,t4,a6
d:\PDS\test\Sparrow_RISC-V\MRS\obj/../app/main.c:52
            MAP_XY(y,x)=((iv_fx*iv_fy>>FIXED_SHIFT)*tl_x+(fx*iv_fy>>FIXED_SHIFT)*tr_x+
    1710:	01b60633          	add	a2,a2,s11
    1714:	01a60633          	add	a2,a2,s10
d:\PDS\test\Sparrow_RISC-V\MRS\obj/../app/main.c:53
                         (fx*fy>>FIXED_SHIFT)*br_x+(iv_fx*fy>>FIXED_SHIFT)*bl_x)>>FIXED_SHIFT;
    1718:	40885813          	srai	a6,a6,0x8
d:\PDS\test\Sparrow_RISC-V\MRS\obj/../app/main.c:54
            MAP_YY(y,x)=((iv_fx*iv_fy>>FIXED_SHIFT)*tl_y+(fx*iv_fy>>FIXED_SHIFT)*tr_y+
    171c:	03270733          	mul	a4,a4,s2
d:\PDS\test\Sparrow_RISC-V\MRS\obj/../app/main.c:53
                         (fx*fy>>FIXED_SHIFT)*br_x+(iv_fx*fy>>FIXED_SHIFT)*bl_x)>>FIXED_SHIFT;
    1720:	02980d33          	mul	s10,a6,s1
d:\PDS\test\Sparrow_RISC-V\MRS\obj/../app/main.c:54
            MAP_YY(y,x)=((iv_fx*iv_fy>>FIXED_SHIFT)*tl_y+(fx*iv_fy>>FIXED_SHIFT)*tr_y+
    1724:	01170733          	add	a4,a4,a7
    1728:	00f707b3          	add	a5,a4,a5
d:\PDS\test\Sparrow_RISC-V\MRS\obj/../app/main.c:55
                         (fx*fy>>FIXED_SHIFT)*br_y+(iv_fx*fy>>FIXED_SHIFT)*bl_y)>>FIXED_SHIFT;
    172c:	02880833          	mul	a6,a6,s0
d:\PDS\test\Sparrow_RISC-V\MRS\obj/../app/main.c:53
                         (fx*fy>>FIXED_SHIFT)*br_x+(iv_fx*fy>>FIXED_SHIFT)*bl_x)>>FIXED_SHIFT;
    1730:	01a60733          	add	a4,a2,s10
    1734:	40875713          	srai	a4,a4,0x8
d:\PDS\test\Sparrow_RISC-V\MRS\obj/../app/main.c:52
            MAP_XY(y,x)=((iv_fx*iv_fy>>FIXED_SHIFT)*tl_x+(fx*iv_fy>>FIXED_SHIFT)*tr_x+
    1738:	feee2a23          	sw	a4,-12(t3)
d:\PDS\test\Sparrow_RISC-V\MRS\obj/../app/main.c:55
                         (fx*fy>>FIXED_SHIFT)*br_y+(iv_fx*fy>>FIXED_SHIFT)*bl_y)>>FIXED_SHIFT;
    173c:	010787b3          	add	a5,a5,a6
    1740:	4087d793          	srai	a5,a5,0x8
d:\PDS\test\Sparrow_RISC-V\MRS\obj/../app/main.c:54
            MAP_YY(y,x)=((iv_fx*iv_fy>>FIXED_SHIFT)*tl_y+(fx*iv_fy>>FIXED_SHIFT)*tr_y+
    1744:	fefe2c23          	sw	a5,-8(t3)
d:\PDS\test\Sparrow_RISC-V\MRS\obj/../app/main.c:50
        for(int x=0;x<TARGET_W;x++){
    1748:	f45314e3          	bne	t1,t0,1690 <init_map+0x104>
d:\PDS\test\Sparrow_RISC-V\MRS\obj/../app/main.c:48 (discriminator 2)
    for(int y=0;y<TARGET_H;y++){
    174c:	00412783          	lw	a5,4(sp)
    1750:	00c12d03          	lw	s10,12(sp)
    1754:	1b868693          	addi	a3,a3,440
    1758:	100f8f93          	addi	t6,t6,256
    175c:	00fd0d33          	add	s10,s10,a5
    1760:	00812783          	lw	a5,8(sp)
    1764:	ecf69ae3          	bne	a3,a5,1638 <init_map+0xac>
d:\PDS\test\Sparrow_RISC-V\MRS\obj/../app/main.c:59
}
    1768:	04812403          	lw	s0,72(sp)
    176c:	04c12083          	lw	ra,76(sp)
    1770:	04412483          	lw	s1,68(sp)
    1774:	04012903          	lw	s2,64(sp)
    1778:	03c12983          	lw	s3,60(sp)
    177c:	03812a03          	lw	s4,56(sp)
    1780:	03412a83          	lw	s5,52(sp)
    1784:	03012b03          	lw	s6,48(sp)
    1788:	02c12b83          	lw	s7,44(sp)
    178c:	02812c03          	lw	s8,40(sp)
    1790:	02412c83          	lw	s9,36(sp)
    1794:	02012d03          	lw	s10,32(sp)
    1798:	01c12d83          	lw	s11,28(sp)
d:\PDS\test\Sparrow_RISC-V\MRS\obj/../app/main.c:58
    printf("完成\r\n");
    179c:	20000537          	lui	a0,0x20000
    17a0:	05c50513          	addi	a0,a0,92 # 2000005c <_data+0x5c>
d:\PDS\test\Sparrow_RISC-V\MRS\obj/../app/main.c:59
}
    17a4:	05010113          	addi	sp,sp,80
d:\PDS\test\Sparrow_RISC-V\MRS\obj/../app/main.c:58
    printf("完成\r\n");
    17a8:	d95ff06f          	j	153c <printf_>
safe_div():
d:\PDS\test\Sparrow_RISC-V\MRS\obj/../app/main.c:32
    while(n>=d){int t=d,m=1;while(n>=(t<<1)&&(t<<1)>t){t<<=1;m<<=1;}n-=t;r+=m;}
    17ac:	00000793          	li	a5,0
    17b0:	00000d13          	li	s10,0
    17b4:	00000d93          	li	s11,0
    17b8:	10000813          	li	a6,256
    17bc:	f3dff06f          	j	16f8 <init_map+0x16c>
    17c0:	00188893          	addi	a7,a7,1
    17c4:	f11ff06f          	j	16d4 <init_map+0x148>
    17c8:	001e8e93          	addi	t4,t4,1
init_map():
d:\PDS\test\Sparrow_RISC-V\MRS\obj/../app/main.c:49
        int fy=safe_div(y*FIXED_SCALE,TARGET_H-1),iv_fy=FIXED_SCALE-fy;
    17cc:	41d38f33          	sub	t5,t2,t4
    17d0:	eb5ff06f          	j	1684 <init_map+0xf8>

000017d4 <pipeline>:
pipeline():
d:\PDS\test\Sparrow_RISC-V\MRS\obj/../app/main.c:61
void pipeline(int x1,int y1,int x2,int y2){
    17d4:	e0010113          	addi	sp,sp,-512
    17d8:	1e912a23          	sw	s1,500(sp)
    17dc:	00050493          	mv	s1,a0
d:\PDS\test\Sparrow_RISC-V\MRS\obj/../app/main.c:62
    printf("[1/5] 透视校正...\r\n");
    17e0:	20000537          	lui	a0,0x20000
    17e4:	06c50513          	addi	a0,a0,108 # 2000006c <_data+0x6c>
d:\PDS\test\Sparrow_RISC-V\MRS\obj/../app/main.c:61
void pipeline(int x1,int y1,int x2,int y2){
    17e8:	1e112e23          	sw	ra,508(sp)
    17ec:	1e812c23          	sw	s0,504(sp)
    17f0:	1f212823          	sw	s2,496(sp)
    17f4:	1f512223          	sw	s5,484(sp)
    17f8:	1f612023          	sw	s6,480(sp)
    17fc:	1d712e23          	sw	s7,476(sp)
    1800:	1d812c23          	sw	s8,472(sp)
    1804:	1da12823          	sw	s10,464(sp)
    1808:	1db12623          	sw	s11,460(sp)
    180c:	00d12823          	sw	a3,16(sp)
    1810:	00058d93          	mv	s11,a1
    1814:	1f312623          	sw	s3,492(sp)
    1818:	1f412423          	sw	s4,488(sp)
    181c:	1d912a23          	sw	s9,468(sp)
    1820:	00060d13          	mv	s10,a2
d:\PDS\test\Sparrow_RISC-V\MRS\obj/../app/main.c:66
        for(int x=0;x<TARGET_W;x++){
    1824:	0001c437          	lui	s0,0x1c
d:\PDS\test\Sparrow_RISC-V\MRS\obj/../app/main.c:62
    printf("[1/5] 透视校正...\r\n");
    1828:	d15ff0ef          	jal	ra,153c <printf_>
    182c:	a19003b7          	lui	t2,0xa1900
    1830:	00000f93          	li	t6,0
d:\PDS\test\Sparrow_RISC-V\MRS\obj/../app/main.c:64
    for(int y=0;y<TARGET_H;y++){
    1834:	00000593          	li	a1,0
safe_div():
d:\PDS\test\Sparrow_RISC-V\MRS\obj/../app/main.c:32
    while(n>=d){int t=d,m=1;while(n>=(t<<1)&&(t<<1)>t){t<<=1;m<<=1;}n-=t;r+=m;}
    1838:	08a00093          	li	ra,138
pipeline():
d:\PDS\test\Sparrow_RISC-V\MRS\obj/../app/main.c:65
        int fy=safe_div(y*FIXED_SCALE,TARGET_H-1),iv_fy=FIXED_SCALE-fy;
    183c:	10000a93          	li	s5,256
safe_div():
d:\PDS\test\Sparrow_RISC-V\MRS\obj/../app/main.c:32
    while(n>=d){int t=d,m=1;while(n>=(t<<1)&&(t<<1)>t){t<<=1;m<<=1;}n-=t;r+=m;}
    1840:	1b600713          	li	a4,438
    1844:	36d00693          	li	a3,877
pipeline():
d:\PDS\test\Sparrow_RISC-V\MRS\obj/../app/main.c:68
            int sx=((iv_fx*iv_fy>>FIXED_SHIFT)*740+(fx*iv_fy>>FIXED_SHIFT)*1180+
    1848:	49c00c13          	li	s8,1180
d:\PDS\test\Sparrow_RISC-V\MRS\obj/../app/main.c:69
                    (fx*fy>>FIXED_SHIFT)*1185+(iv_fx*fy>>FIXED_SHIFT)*742)>>FIXED_SHIFT;
    184c:	4a100b93          	li	s7,1185
d:\PDS\test\Sparrow_RISC-V\MRS\obj/../app/main.c:70
            int sy=((iv_fx*iv_fy>>FIXED_SHIFT)*477+(fx*iv_fy>>FIXED_SHIFT)*476+
    1850:	1dc00b13          	li	s6,476
d:\PDS\test\Sparrow_RISC-V\MRS\obj/../app/main.c:71
                    (fx*fy>>FIXED_SHIFT)*607+(iv_fx*fy>>FIXED_SHIFT)*607)>>FIXED_SHIFT;
    1854:	25f00913          	li	s2,607
d:\PDS\test\Sparrow_RISC-V\MRS\obj/../app/main.c:66
        for(int x=0;x<TARGET_W;x++){
    1858:	80040413          	addi	s0,s0,-2048 # 1b800 <__stack_size+0x17800>
    185c:	01b12623          	sw	s11,12(sp)
d:\PDS\test\Sparrow_RISC-V\MRS\obj/../app/main.c:65
        int fy=safe_div(y*FIXED_SCALE,TARGET_H-1),iv_fy=FIXED_SCALE-fy;
    1860:	000f8813          	mv	a6,t6
safe_div():
d:\PDS\test\Sparrow_RISC-V\MRS\obj/../app/main.c:31
    if(d==0)return 0;int r=0;
    1864:	00000f13          	li	t5,0
d:\PDS\test\Sparrow_RISC-V\MRS\obj/../app/main.c:32
    while(n>=d){int t=d,m=1;while(n>=(t<<1)&&(t<<1)>t){t<<=1;m<<=1;}n-=t;r+=m;}
    1868:	10000293          	li	t0,256
    186c:	05f0f263          	bgeu	ra,t6,18b0 <pipeline+0xdc>
    1870:	11500793          	li	a5,277
    1874:	6307d6e3          	bge	a5,a6,26a0 <pipeline+0xecc>
    1878:	01700613          	li	a2,23
    187c:	11600793          	li	a5,278
    1880:	00100513          	li	a0,1
    1884:	0080006f          	j	188c <pipeline+0xb8>
    1888:	00060c63          	beqz	a2,18a0 <pipeline+0xcc>
    188c:	00078893          	mv	a7,a5
    1890:	00179793          	slli	a5,a5,0x1
    1894:	fff60613          	addi	a2,a2,-1
    1898:	00151513          	slli	a0,a0,0x1
    189c:	fef856e3          	bge	a6,a5,1888 <pipeline+0xb4>
    18a0:	41180833          	sub	a6,a6,a7
    18a4:	00af0f33          	add	t5,t5,a0
    18a8:	fd00c4e3          	blt	ra,a6,1870 <pipeline+0x9c>
pipeline():
d:\PDS\test\Sparrow_RISC-V\MRS\obj/../app/main.c:65
        int fy=safe_div(y*FIXED_SCALE,TARGET_H-1),iv_fy=FIXED_SCALE-fy;
    18ac:	41ea82b3          	sub	t0,s5,t5
safe_div():
d:\PDS\test\Sparrow_RISC-V\MRS\obj/../app/main.c:31
    if(d==0)return 0;int r=0;
    18b0:	00038e13          	mv	t3,t2
    18b4:	00000893          	li	a7,0
pipeline():
d:\PDS\test\Sparrow_RISC-V\MRS\obj/../app/main.c:68
            int sx=((iv_fx*iv_fy>>FIXED_SHIFT)*740+(fx*iv_fy>>FIXED_SHIFT)*1180+
    18b8:	2e400d93          	li	s11,740
d:\PDS\test\Sparrow_RISC-V\MRS\obj/../app/main.c:69
                    (fx*fy>>FIXED_SHIFT)*1185+(iv_fx*fy>>FIXED_SHIFT)*742)>>FIXED_SHIFT;
    18bc:	2e600c93          	li	s9,742
get_px():
d:\PDS\test\Sparrow_RISC-V\MRS\obj/../app/main.c:42
    uint32_t w=r32[sy*(RAW_IMG_W>>1)+(sx>>1)];
    18c0:	01f12a23          	sw	t6,20(sp)
pipeline():
d:\PDS\test\Sparrow_RISC-V\MRS\obj/../app/main.c:67
            int fx=safe_div(x*FIXED_SCALE,TARGET_W-1),iv_fx=FIXED_SCALE-fx;
    18c4:	00088813          	mv	a6,a7
safe_div():
d:\PDS\test\Sparrow_RISC-V\MRS\obj/../app/main.c:31
    if(d==0)return 0;int r=0;
    18c8:	00000e93          	li	t4,0
d:\PDS\test\Sparrow_RISC-V\MRS\obj/../app/main.c:32
    while(n>=d){int t=d,m=1;while(n>=(t<<1)&&(t<<1)>t){t<<=1;m<<=1;}n-=t;r+=m;}
    18cc:	5b177ae3          	bgeu	a4,a7,2680 <pipeline+0xeac>
    18d0:	5d06d4e3          	bge	a3,a6,2698 <pipeline+0xec4>
    18d4:	01600613          	li	a2,22
    18d8:	36e00793          	li	a5,878
    18dc:	00100513          	li	a0,1
    18e0:	0080006f          	j	18e8 <pipeline+0x114>
    18e4:	00060c63          	beqz	a2,18fc <pipeline+0x128>
    18e8:	00078313          	mv	t1,a5
    18ec:	00179793          	slli	a5,a5,0x1
    18f0:	fff60613          	addi	a2,a2,-1
    18f4:	00151513          	slli	a0,a0,0x1
    18f8:	fef856e3          	bge	a6,a5,18e4 <pipeline+0x110>
    18fc:	40680833          	sub	a6,a6,t1
    1900:	00ae8eb3          	add	t4,t4,a0
    1904:	fd0746e3          	blt	a4,a6,18d0 <pipeline+0xfc>
pipeline():
d:\PDS\test\Sparrow_RISC-V\MRS\obj/../app/main.c:68
            int sx=((iv_fx*iv_fy>>FIXED_SHIFT)*740+(fx*iv_fy>>FIXED_SHIFT)*1180+
    1908:	025e8333          	mul	t1,t4,t0
d:\PDS\test\Sparrow_RISC-V\MRS\obj/../app/main.c:67
            int fx=safe_div(x*FIXED_SCALE,TARGET_W-1),iv_fx=FIXED_SCALE-fx;
    190c:	41da8533          	sub	a0,s5,t4
d:\PDS\test\Sparrow_RISC-V\MRS\obj/../app/main.c:69
                    (fx*fy>>FIXED_SHIFT)*1185+(iv_fx*fy>>FIXED_SHIFT)*742)>>FIXED_SHIFT;
    1910:	03ee87b3          	mul	a5,t4,t5
d:\PDS\test\Sparrow_RISC-V\MRS\obj/../app/main.c:68
            int sx=((iv_fx*iv_fy>>FIXED_SHIFT)*740+(fx*iv_fy>>FIXED_SHIFT)*1180+
    1914:	40835313          	srai	t1,t1,0x8
d:\PDS\test\Sparrow_RISC-V\MRS\obj/../app/main.c:69
                    (fx*fy>>FIXED_SHIFT)*1185+(iv_fx*fy>>FIXED_SHIFT)*742)>>FIXED_SHIFT;
    1918:	4087d793          	srai	a5,a5,0x8
d:\PDS\test\Sparrow_RISC-V\MRS\obj/../app/main.c:68
            int sx=((iv_fx*iv_fy>>FIXED_SHIFT)*740+(fx*iv_fy>>FIXED_SHIFT)*1180+
    191c:	03830a33          	mul	s4,t1,s8
d:\PDS\test\Sparrow_RISC-V\MRS\obj/../app/main.c:69
                    (fx*fy>>FIXED_SHIFT)*1185+(iv_fx*fy>>FIXED_SHIFT)*742)>>FIXED_SHIFT;
    1920:	037789b3          	mul	s3,a5,s7
d:\PDS\test\Sparrow_RISC-V\MRS\obj/../app/main.c:70
            int sy=((iv_fx*iv_fy>>FIXED_SHIFT)*477+(fx*iv_fy>>FIXED_SHIFT)*476+
    1924:	03630333          	mul	t1,t1,s6
d:\PDS\test\Sparrow_RISC-V\MRS\obj/../app/main.c:71
                    (fx*fy>>FIXED_SHIFT)*607+(iv_fx*fy>>FIXED_SHIFT)*607)>>FIXED_SHIFT;
    1928:	032787b3          	mul	a5,a5,s2
get_px():
d:\PDS\test\Sparrow_RISC-V\MRS\obj/../app/main.c:40
    if(sx<0||sx>=RAW_IMG_W||sy<0||sy>=IMG_H)return 0;
    192c:	00000e93          	li	t4,0
pipeline():
d:\PDS\test\Sparrow_RISC-V\MRS\obj/../app/main.c:68
            int sx=((iv_fx*iv_fy>>FIXED_SHIFT)*740+(fx*iv_fy>>FIXED_SHIFT)*1180+
    1930:	02a28833          	mul	a6,t0,a0
d:\PDS\test\Sparrow_RISC-V\MRS\obj/../app/main.c:69
                    (fx*fy>>FIXED_SHIFT)*1185+(iv_fx*fy>>FIXED_SHIFT)*742)>>FIXED_SHIFT;
    1934:	02af0533          	mul	a0,t5,a0
d:\PDS\test\Sparrow_RISC-V\MRS\obj/../app/main.c:68
            int sx=((iv_fx*iv_fy>>FIXED_SHIFT)*740+(fx*iv_fy>>FIXED_SHIFT)*1180+
    1938:	40885813          	srai	a6,a6,0x8
    193c:	03b80633          	mul	a2,a6,s11
d:\PDS\test\Sparrow_RISC-V\MRS\obj/../app/main.c:69
                    (fx*fy>>FIXED_SHIFT)*1185+(iv_fx*fy>>FIXED_SHIFT)*742)>>FIXED_SHIFT;
    1940:	40855513          	srai	a0,a0,0x8
    1944:	03950fb3          	mul	t6,a0,s9
d:\PDS\test\Sparrow_RISC-V\MRS\obj/../app/main.c:68
            int sx=((iv_fx*iv_fy>>FIXED_SHIFT)*740+(fx*iv_fy>>FIXED_SHIFT)*1180+
    1948:	01460633          	add	a2,a2,s4
    194c:	01360633          	add	a2,a2,s3
d:\PDS\test\Sparrow_RISC-V\MRS\obj/../app/main.c:69
                    (fx*fy>>FIXED_SHIFT)*1185+(iv_fx*fy>>FIXED_SHIFT)*742)>>FIXED_SHIFT;
    1950:	01f60633          	add	a2,a2,t6
d:\PDS\test\Sparrow_RISC-V\MRS\obj/../app/main.c:68
            int sx=((iv_fx*iv_fy>>FIXED_SHIFT)*740+(fx*iv_fy>>FIXED_SHIFT)*1180+
    1954:	40865f93          	srai	t6,a2,0x8
d:\PDS\test\Sparrow_RISC-V\MRS\obj/../app/main.c:72
            dst[y*TARGET_W+x]=(sx>=x1&&sx<=x2&&sy>=y1&&sy<=y2)?get_px(sx,sy):0;
    1958:	069fce63          	blt	t6,s1,19d4 <pipeline+0x200>
d:\PDS\test\Sparrow_RISC-V\MRS\obj/../app/main.c:72 (discriminator 1)
    195c:	07fd4c63          	blt	s10,t6,19d4 <pipeline+0x200>
d:\PDS\test\Sparrow_RISC-V\MRS\obj/../app/main.c:70 (discriminator 3)
            int sy=((iv_fx*iv_fy>>FIXED_SHIFT)*477+(fx*iv_fy>>FIXED_SHIFT)*476+
    1960:	1dd00993          	li	s3,477
    1964:	03380833          	mul	a6,a6,s3
d:\PDS\test\Sparrow_RISC-V\MRS\obj/../app/main.c:71 (discriminator 3)
                    (fx*fy>>FIXED_SHIFT)*607+(iv_fx*fy>>FIXED_SHIFT)*607)>>FIXED_SHIFT;
    1968:	03250533          	mul	a0,a0,s2
d:\PDS\test\Sparrow_RISC-V\MRS\obj/../app/main.c:70 (discriminator 3)
            int sy=((iv_fx*iv_fy>>FIXED_SHIFT)*477+(fx*iv_fy>>FIXED_SHIFT)*476+
    196c:	00680833          	add	a6,a6,t1
    1970:	00f807b3          	add	a5,a6,a5
d:\PDS\test\Sparrow_RISC-V\MRS\obj/../app/main.c:71 (discriminator 3)
                    (fx*fy>>FIXED_SHIFT)*607+(iv_fx*fy>>FIXED_SHIFT)*607)>>FIXED_SHIFT;
    1974:	00a787b3          	add	a5,a5,a0
d:\PDS\test\Sparrow_RISC-V\MRS\obj/../app/main.c:72 (discriminator 3)
            dst[y*TARGET_W+x]=(sx>=x1&&sx<=x2&&sy>=y1&&sy<=y2)?get_px(sx,sy):0;
    1978:	00c12503          	lw	a0,12(sp)
d:\PDS\test\Sparrow_RISC-V\MRS\obj/../app/main.c:70 (discriminator 3)
            int sy=((iv_fx*iv_fy>>FIXED_SHIFT)*477+(fx*iv_fy>>FIXED_SHIFT)*476+
    197c:	4087d793          	srai	a5,a5,0x8
d:\PDS\test\Sparrow_RISC-V\MRS\obj/../app/main.c:72 (discriminator 3)
            dst[y*TARGET_W+x]=(sx>=x1&&sx<=x2&&sy>=y1&&sy<=y2)?get_px(sx,sy):0;
    1980:	04a7ca63          	blt	a5,a0,19d4 <pipeline+0x200>
d:\PDS\test\Sparrow_RISC-V\MRS\obj/../app/main.c:72 (discriminator 5)
    1984:	01012503          	lw	a0,16(sp)
    1988:	04f54663          	blt	a0,a5,19d4 <pipeline+0x200>
get_px():
d:\PDS\test\Sparrow_RISC-V\MRS\obj/../app/main.c:40
    if(sx<0||sx>=RAW_IMG_W||sy<0||sy>=IMG_H)return 0;
    198c:	77f00513          	li	a0,1919
    1990:	05f56263          	bltu	a0,t6,19d4 <pipeline+0x200>
    1994:	43700513          	li	a0,1079
    1998:	02f56e63          	bltu	a0,a5,19d4 <pipeline+0x200>
d:\PDS\test\Sparrow_RISC-V\MRS\obj/../app/main.c:42
    uint32_t w=r32[sy*(RAW_IMG_W>>1)+(sx>>1)];
    199c:	00479513          	slli	a0,a5,0x4
    19a0:	40f507b3          	sub	a5,a0,a5
    19a4:	40965613          	srai	a2,a2,0x9
    19a8:	00679793          	slli	a5,a5,0x6
    19ac:	00c787b3          	add	a5,a5,a2
    19b0:	00279793          	slli	a5,a5,0x2
    19b4:	a4000637          	lui	a2,0xa4000
    19b8:	00f607b3          	add	a5,a2,a5
    19bc:	0007ae83          	lw	t4,0(a5)
d:\PDS\test\Sparrow_RISC-V\MRS\obj/../app/main.c:43
    return (w>>((sx&1)?16:0))&0xFFFF;
    19c0:	004f9793          	slli	a5,t6,0x4
    19c4:	0107f793          	andi	a5,a5,16
    19c8:	00fedeb3          	srl	t4,t4,a5
    19cc:	010e9e93          	slli	t4,t4,0x10
    19d0:	010ede93          	srli	t4,t4,0x10
pipeline():
d:\PDS\test\Sparrow_RISC-V\MRS\obj/../app/main.c:72 (discriminator 10)
            dst[y*TARGET_W+x]=(sx>=x1&&sx<=x2&&sy>=y1&&sy<=y2)?get_px(sx,sy):0;
    19d4:	01de1023          	sh	t4,0(t3)
d:\PDS\test\Sparrow_RISC-V\MRS\obj/../app/main.c:66 (discriminator 10)
        for(int x=0;x<TARGET_W;x++){
    19d8:	10088893          	addi	a7,a7,256
    19dc:	002e0e13          	addi	t3,t3,2
    19e0:	ee8892e3          	bne	a7,s0,18c4 <pipeline+0xf0>
d:\PDS\test\Sparrow_RISC-V\MRS\obj/../app/main.c:74
        if((y&31)==0)for(volatile int n=0;n<10;n++);
    19e4:	01f5f793          	andi	a5,a1,31
    19e8:	01412f83          	lw	t6,20(sp)
    19ec:	500788e3          	beqz	a5,26fc <pipeline+0xf28>
d:\PDS\test\Sparrow_RISC-V\MRS\obj/../app/main.c:64
    for(int y=0;y<TARGET_H;y++){
    19f0:	00158593          	addi	a1,a1,1
    19f4:	08c00793          	li	a5,140
    19f8:	100f8f93          	addi	t6,t6,256
    19fc:	37038393          	addi	t2,t2,880 # a1900370 <_sp+0x818c0370>
    1a00:	e6f590e3          	bne	a1,a5,1860 <pipeline+0x8c>
d:\PDS\test\Sparrow_RISC-V\MRS\obj/../app/main.c:76
    printf("完成\r\n");
    1a04:	20000db7          	lui	s11,0x20000
    1a08:	05cd8513          	addi	a0,s11,92 # 2000005c <_data+0x5c>
    1a0c:	b31ff0ef          	jal	ra,153c <printf_>
d:\PDS\test\Sparrow_RISC-V\MRS\obj/../app/main.c:78
    printf("[2/5] 蓝牌二值化...\r\n");
    1a10:	20000537          	lui	a0,0x20000
    1a14:	08450513          	addi	a0,a0,132 # 20000084 <_data+0x84>
    1a18:	b25ff0ef          	jal	ra,153c <printf_>
d:\PDS\test\Sparrow_RISC-V\MRS\obj/../app/main.c:81
    for(int y=0;y<TARGET_H;y++)
    1a1c:	000047b7          	lui	a5,0x4
d:\PDS\test\Sparrow_RISC-V\MRS\obj/../app/main.c:87
                if(r>120)word|=(255<<(k*8));
    1a20:	ff010ab7          	lui	s5,0xff010
    1a24:	01000a37          	lui	s4,0x1000
    1a28:	000109b7          	lui	s3,0x10
    1a2c:	ff000c37          	lui	s8,0xff000
    1a30:	ffff0bb7          	lui	s7,0xffff0
    1a34:	00ff0b37          	lui	s6,0xff0
d:\PDS\test\Sparrow_RISC-V\MRS\obj/../app/main.c:81
    for(int y=0;y<TARGET_H;y++)
    1a38:	c2878793          	addi	a5,a5,-984 # 3c28 <_data_lma+0x1d4>
d:\PDS\test\Sparrow_RISC-V\MRS\obj/../app/main.c:87
                if(r>120)word|=(255<<(k*8));
    1a3c:	fffa8d13          	addi	s10,s5,-1 # ff00ffff <_sp+0xdefcffff>
    1a40:	fffa0493          	addi	s1,s4,-1 # ffffff <_app_prog_size+0xfbffff>
    1a44:	fff98c93          	addi	s9,s3,-1 # ffff <__stack_size+0xbfff>
d:\PDS\test\Sparrow_RISC-V\MRS\obj/../app/main.c:78
    printf("[2/5] 蓝牌二值化...\r\n");
    1a48:	a19008b7          	lui	a7,0xa1900
    1a4c:	00000e13          	li	t3,0
d:\PDS\test\Sparrow_RISC-V\MRS\obj/../app/main.c:87
                if(r>120)word|=(255<<(k*8));
    1a50:	07800513          	li	a0,120
    1a54:	0ffc0c13          	addi	s8,s8,255 # ff0000ff <_sp+0xdefc00ff>
    1a58:	0ffb8b93          	addi	s7,s7,255 # ffff00ff <_sp+0xdffb00ff>
    1a5c:	0ffb0b13          	addi	s6,s6,255 # ff00ff <_app_prog_size+0xfb00ff>
    1a60:	f00a8a93          	addi	s5,s5,-256
    1a64:	f00a0a13          	addi	s4,s4,-256
    1a68:	f0098993          	addi	s3,s3,-256
d:\PDS\test\Sparrow_RISC-V\MRS\obj/../app/main.c:89
            bw[y*wpl+(x>>2)]=word;
    1a6c:	a1a00eb7          	lui	t4,0xa1a00
d:\PDS\test\Sparrow_RISC-V\MRS\obj/../app/main.c:81
    for(int y=0;y<TARGET_H;y++)
    1a70:	00f12823          	sw	a5,16(sp)
d:\PDS\test\Sparrow_RISC-V\MRS\obj/../app/main.c:89
            bw[y*wpl+(x>>2)]=word;
    1a74:	00088613          	mv	a2,a7
d:\PDS\test\Sparrow_RISC-V\MRS\obj/../app/main.c:82
        for(int x=0;x<TARGET_W;x+=4){
    1a78:	00000593          	li	a1,0
    1a7c:	1b800913          	li	s2,440
d:\PDS\test\Sparrow_RISC-V\MRS\obj/../app/main.c:85
                uint16_t px=dst[y*TARGET_W+x+k];
    1a80:	00065783          	lhu	a5,0(a2) # a4000000 <_sp+0x83fc0000>
d:\PDS\test\Sparrow_RISC-V\MRS\obj/../app/main.c:87
                if(r>120)word|=(255<<(k*8));
    1a84:	fff00313          	li	t1,-1
    1a88:	00048f13          	mv	t5,s1
d:\PDS\test\Sparrow_RISC-V\MRS\obj/../app/main.c:86
                int r=(px>>11)&0x1F;r=(r<<3)|(r>>2);
    1a8c:	00b7d713          	srli	a4,a5,0xb
    1a90:	00371713          	slli	a4,a4,0x3
    1a94:	00d7d793          	srli	a5,a5,0xd
    1a98:	00e7e7b3          	or	a5,a5,a4
d:\PDS\test\Sparrow_RISC-V\MRS\obj/../app/main.c:87
                if(r>120)word|=(255<<(k*8));
    1a9c:	44f540e3          	blt	a0,a5,26dc <pipeline+0xf08>
    1aa0:	ff0003b7          	lui	t2,0xff000
    1aa4:	ffff0437          	lui	s0,0xffff0
    1aa8:	00ff00b7          	lui	ra,0xff0
    1aac:	000a8293          	mv	t0,s5
    1ab0:	f0000313          	li	t1,-256
    1ab4:	000a0f13          	mv	t5,s4
    1ab8:	00098f93          	mv	t6,s3
d:\PDS\test\Sparrow_RISC-V\MRS\obj/../app/main.c:83
            uint32_t word=0;
    1abc:	00012623          	sw	zero,12(sp)
d:\PDS\test\Sparrow_RISC-V\MRS\obj/../app/main.c:85
                uint16_t px=dst[y*TARGET_W+x+k];
    1ac0:	00265683          	lhu	a3,2(a2)
d:\PDS\test\Sparrow_RISC-V\MRS\obj/../app/main.c:89
            bw[y*wpl+(x>>2)]=word;
    1ac4:	4025d713          	srai	a4,a1,0x2
    1ac8:	01c70733          	add	a4,a4,t3
d:\PDS\test\Sparrow_RISC-V\MRS\obj/../app/main.c:86
                int r=(px>>11)&0x1F;r=(r<<3)|(r>>2);
    1acc:	00b6d813          	srli	a6,a3,0xb
d:\PDS\test\Sparrow_RISC-V\MRS\obj/../app/main.c:89
            bw[y*wpl+(x>>2)]=word;
    1ad0:	00271713          	slli	a4,a4,0x2
d:\PDS\test\Sparrow_RISC-V\MRS\obj/../app/main.c:86
                int r=(px>>11)&0x1F;r=(r<<3)|(r>>2);
    1ad4:	00d6d693          	srli	a3,a3,0xd
    1ad8:	00381813          	slli	a6,a6,0x3
d:\PDS\test\Sparrow_RISC-V\MRS\obj/../app/main.c:89
            bw[y*wpl+(x>>2)]=word;
    1adc:	00ee8733          	add	a4,t4,a4
d:\PDS\test\Sparrow_RISC-V\MRS\obj/../app/main.c:86
                int r=(px>>11)&0x1F;r=(r<<3)|(r>>2);
    1ae0:	0106e6b3          	or	a3,a3,a6
d:\PDS\test\Sparrow_RISC-V\MRS\obj/../app/main.c:89
            bw[y*wpl+(x>>2)]=word;
    1ae4:	00070793          	mv	a5,a4
d:\PDS\test\Sparrow_RISC-V\MRS\obj/../app/main.c:87
                if(r>120)word|=(255<<(k*8));
    1ae8:	00d54a63          	blt	a0,a3,1afc <pipeline+0x328>
    1aec:	00c12f83          	lw	t6,12(sp)
    1af0:	00040313          	mv	t1,s0
    1af4:	00008f13          	mv	t5,ra
    1af8:	00038293          	mv	t0,t2
d:\PDS\test\Sparrow_RISC-V\MRS\obj/../app/main.c:85
                uint16_t px=dst[y*TARGET_W+x+k];
    1afc:	00465683          	lhu	a3,4(a2)
d:\PDS\test\Sparrow_RISC-V\MRS\obj/../app/main.c:86
                int r=(px>>11)&0x1F;r=(r<<3)|(r>>2);
    1b00:	00b6d813          	srli	a6,a3,0xb
    1b04:	00381813          	slli	a6,a6,0x3
    1b08:	00d6d693          	srli	a3,a3,0xd
    1b0c:	0106e6b3          	or	a3,a3,a6
d:\PDS\test\Sparrow_RISC-V\MRS\obj/../app/main.c:87
                if(r>120)word|=(255<<(k*8));
    1b10:	00d54663          	blt	a0,a3,1b1c <pipeline+0x348>
    1b14:	00028313          	mv	t1,t0
    1b18:	000f8f13          	mv	t5,t6
d:\PDS\test\Sparrow_RISC-V\MRS\obj/../app/main.c:85
                uint16_t px=dst[y*TARGET_W+x+k];
    1b1c:	00665683          	lhu	a3,6(a2)
d:\PDS\test\Sparrow_RISC-V\MRS\obj/../app/main.c:86
                int r=(px>>11)&0x1F;r=(r<<3)|(r>>2);
    1b20:	00b6d813          	srli	a6,a3,0xb
    1b24:	00381813          	slli	a6,a6,0x3
    1b28:	00d6d693          	srli	a3,a3,0xd
    1b2c:	0106e6b3          	or	a3,a3,a6
d:\PDS\test\Sparrow_RISC-V\MRS\obj/../app/main.c:87
                if(r>120)word|=(255<<(k*8));
    1b30:	36d54ee3          	blt	a0,a3,26ac <pipeline+0xed8>
d:\PDS\test\Sparrow_RISC-V\MRS\obj/../app/main.c:89
            bw[y*wpl+(x>>2)]=word;
    1b34:	01e72023          	sw	t5,0(a4)
d:\PDS\test\Sparrow_RISC-V\MRS\obj/../app/main.c:82
        for(int x=0;x<TARGET_W;x+=4){
    1b38:	00458593          	addi	a1,a1,4
    1b3c:	00860613          	addi	a2,a2,8
    1b40:	f52590e3          	bne	a1,s2,1a80 <pipeline+0x2ac>
d:\PDS\test\Sparrow_RISC-V\MRS\obj/../app/main.c:81
    for(int y=0;y<TARGET_H;y++)
    1b44:	01012783          	lw	a5,16(sp)
    1b48:	06ee0e13          	addi	t3,t3,110
    1b4c:	37088893          	addi	a7,a7,880 # a1900370 <_sp+0x818c0370>
    1b50:	f2fe12e3          	bne	t3,a5,1a74 <pipeline+0x2a0>
d:\PDS\test\Sparrow_RISC-V\MRS\obj/../app/main.c:91
    printf("完成\r\n");
    1b54:	05cd8513          	addi	a0,s11,92
    1b58:	9e5ff0ef          	jal	ra,153c <printf_>
d:\PDS\test\Sparrow_RISC-V\MRS\obj/../app/main.c:93
    printf("[3/5] 字符分割...\r\n");
    1b5c:	20000537          	lui	a0,0x20000
    1b60:	0a050513          	addi	a0,a0,160 # 200000a0 <_data+0xa0>
    1b64:	9d9ff0ef          	jal	ra,153c <printf_>
    1b68:	a1a00837          	lui	a6,0xa1a00
d:\PDS\test\Sparrow_RISC-V\MRS\obj/../app/main.c:97
    for(int y=0;y<TARGET_H;y++){int c=0;
    1b6c:	a1a0f337          	lui	t1,0xa1a0f
d:\PDS\test\Sparrow_RISC-V\MRS\obj/../app/main.c:93
    printf("[3/5] 字符分割...\r\n");
    1b70:	1b880813          	addi	a6,a6,440 # a1a001b8 <_sp+0x819c01b8>
    1b74:	a1c00e37          	lui	t3,0xa1c00
d:\PDS\test\Sparrow_RISC-V\MRS\obj/../app/main.c:96
    int mh=0;
    1b78:	00000893          	li	a7,0
d:\PDS\test\Sparrow_RISC-V\MRS\obj/../app/main.c:97
    for(int y=0;y<TARGET_H;y++){int c=0;
    1b7c:	25830313          	addi	t1,t1,600 # a1a0f258 <_sp+0x819cf258>
d:\PDS\test\Sparrow_RISC-V\MRS\obj/../app/main.c:98
        for(int w=0;w<wpl;w++){uint32_t v=bw[y*wpl+w];
    1b80:	e4880593          	addi	a1,a6,-440
d:\PDS\test\Sparrow_RISC-V\MRS\obj/../app/main.c:97
    for(int y=0;y<TARGET_H;y++){int c=0;
    1b84:	00000713          	li	a4,0
d:\PDS\test\Sparrow_RISC-V\MRS\obj/../app/main.c:98
        for(int w=0;w<wpl;w++){uint32_t v=bw[y*wpl+w];
    1b88:	0005a783          	lw	a5,0(a1)
    1b8c:	00458593          	addi	a1,a1,4
d:\PDS\test\Sparrow_RISC-V\MRS\obj/../app/main.c:99
            for(int k=0;k<4;k++)if((v>>(k*8))&0xFF)c++;}
    1b90:	0ff7f513          	zext.b	a0,a5
    1b94:	0087d613          	srli	a2,a5,0x8
    1b98:	0107d693          	srli	a3,a5,0x10
    1b9c:	00a03533          	snez	a0,a0
    1ba0:	0ff67613          	zext.b	a2,a2
    1ba4:	00a70733          	add	a4,a4,a0
    1ba8:	00c03633          	snez	a2,a2
    1bac:	0ff6f693          	zext.b	a3,a3
    1bb0:	00c70733          	add	a4,a4,a2
    1bb4:	00d036b3          	snez	a3,a3
    1bb8:	0187d793          	srli	a5,a5,0x18
    1bbc:	00d70733          	add	a4,a4,a3
    1bc0:	00f037b3          	snez	a5,a5
    1bc4:	00f70733          	add	a4,a4,a5
d:\PDS\test\Sparrow_RISC-V\MRS\obj/../app/main.c:98
        for(int w=0;w<wpl;w++){uint32_t v=bw[y*wpl+w];
    1bc8:	fd0590e3          	bne	a1,a6,1b88 <pipeline+0x3b4>
d:\PDS\test\Sparrow_RISC-V\MRS\obj/../app/main.c:100
        ph[y]=c;if(c>mh)mh=c;
    1bcc:	01071793          	slli	a5,a4,0x10
    1bd0:	0107d793          	srli	a5,a5,0x10
    1bd4:	00fe1023          	sh	a5,0(t3) # a1c00000 <_sp+0x81bc0000>
    1bd8:	00e8d463          	bge	a7,a4,1be0 <pipeline+0x40c>
    1bdc:	00070893          	mv	a7,a4
d:\PDS\test\Sparrow_RISC-V\MRS\obj/../app/main.c:97
    for(int y=0;y<TARGET_H;y++){int c=0;
    1be0:	1b880813          	addi	a6,a6,440
    1be4:	002e0e13          	addi	t3,t3,2
    1be8:	f8681ce3          	bne	a6,t1,1b80 <pipeline+0x3ac>
d:\PDS\test\Sparrow_RISC-V\MRS\obj/../app/main.c:102
    int ht=(mh*153)>>10;if(ht<2)ht=2;
    1bec:	00389793          	slli	a5,a7,0x3
    1bf0:	011787b3          	add	a5,a5,a7
    1bf4:	00479713          	slli	a4,a5,0x4
    1bf8:	00e787b3          	add	a5,a5,a4
    1bfc:	40a7d713          	srai	a4,a5,0xa
    1c00:	00200793          	li	a5,2
    1c04:	00f75463          	bge	a4,a5,1c0c <pipeline+0x438>
    1c08:	00200713          	li	a4,2
    1c0c:	a1c005b7          	lui	a1,0xa1c00
d:\PDS\test\Sparrow_RISC-V\MRS\obj/../app/main.c:104
    for(int y=0;y<TARGET_H;y++){
    1c10:	00000693          	li	a3,0
d:\PDS\test\Sparrow_RISC-V\MRS\obj/../app/main.c:103
    int yt=-1,yb=-1,cs=-1,ml=0;
    1c14:	00000613          	li	a2,0
    1c18:	fff00793          	li	a5,-1
    1c1c:	fff00413          	li	s0,-1
    1c20:	fff00d93          	li	s11,-1
d:\PDS\test\Sparrow_RISC-V\MRS\obj/../app/main.c:106
        else if(cs>=0){int l=y-cs;if(l>ml){ml=l;yt=cs;yb=y-1;}cs=-1;}
    1c24:	fff00513          	li	a0,-1
d:\PDS\test\Sparrow_RISC-V\MRS\obj/../app/main.c:104
    for(int y=0;y<TARGET_H;y++){
    1c28:	08c00893          	li	a7,140
    1c2c:	0180006f          	j	1c44 <pipeline+0x470>
d:\PDS\test\Sparrow_RISC-V\MRS\obj/../app/main.c:105 (discriminator 1)
        if(ph[y]>ht){if(cs<0)cs=y;}
    1c30:	00a79463          	bne	a5,a0,1c38 <pipeline+0x464>
d:\PDS\test\Sparrow_RISC-V\MRS\obj/../app/main.c:105
    1c34:	00068793          	mv	a5,a3
d:\PDS\test\Sparrow_RISC-V\MRS\obj/../app/main.c:104 (discriminator 2)
    for(int y=0;y<TARGET_H;y++){
    1c38:	00168693          	addi	a3,a3,1
    1c3c:	00258593          	addi	a1,a1,2 # a1c00002 <_sp+0x81bc0002>
    1c40:	03168a63          	beq	a3,a7,1c74 <pipeline+0x4a0>
d:\PDS\test\Sparrow_RISC-V\MRS\obj/../app/main.c:105
        if(ph[y]>ht){if(cs<0)cs=y;}
    1c44:	0005d803          	lhu	a6,0(a1)
    1c48:	ff0744e3          	blt	a4,a6,1c30 <pipeline+0x45c>
d:\PDS\test\Sparrow_RISC-V\MRS\obj/../app/main.c:106
        else if(cs>=0){int l=y-cs;if(l>ml){ml=l;yt=cs;yb=y-1;}cs=-1;}
    1c4c:	40f68833          	sub	a6,a3,a5
    1c50:	fea784e3          	beq	a5,a0,1c38 <pipeline+0x464>
d:\PDS\test\Sparrow_RISC-V\MRS\obj/../app/main.c:106 (discriminator 1)
    1c54:	2d065ae3          	bge	a2,a6,2728 <pipeline+0xf54>
d:\PDS\test\Sparrow_RISC-V\MRS\obj/../app/main.c:106 (discriminator 2)
    1c58:	fff68413          	addi	s0,a3,-1
d:\PDS\test\Sparrow_RISC-V\MRS\obj/../app/main.c:104 (discriminator 2)
    for(int y=0;y<TARGET_H;y++){
    1c5c:	00168693          	addi	a3,a3,1
d:\PDS\test\Sparrow_RISC-V\MRS\obj/../app/main.c:106 (discriminator 2)
        else if(cs>=0){int l=y-cs;if(l>ml){ml=l;yt=cs;yb=y-1;}cs=-1;}
    1c60:	00078d93          	mv	s11,a5
    1c64:	00080613          	mv	a2,a6
    1c68:	fff00793          	li	a5,-1
d:\PDS\test\Sparrow_RISC-V\MRS\obj/../app/main.c:104 (discriminator 2)
    for(int y=0;y<TARGET_H;y++){
    1c6c:	00258593          	addi	a1,a1,2
    1c70:	fd169ae3          	bne	a3,a7,1c44 <pipeline+0x470>
d:\PDS\test\Sparrow_RISC-V\MRS\obj/../app/main.c:108
    if(cs>=0){int l=TARGET_H-cs;if(l>ml){ml=l;yt=cs;yb=TARGET_H-1;}}
    1c74:	fff00713          	li	a4,-1
    1c78:	00e78663          	beq	a5,a4,1c84 <pipeline+0x4b0>
d:\PDS\test\Sparrow_RISC-V\MRS\obj/../app/main.c:108 (discriminator 1)
    1c7c:	40f686b3          	sub	a3,a3,a5
    1c80:	2ad648e3          	blt	a2,a3,2730 <pipeline+0xf5c>
d:\PDS\test\Sparrow_RISC-V\MRS\obj/../app/main.c:109
    if(yt<0||yb-yt<5){printf("未找到字符行\r\n");return;}
    1c84:	fff00793          	li	a5,-1
    1c88:	2afd8ee3          	beq	s11,a5,2744 <pipeline+0xf70>
d:\PDS\test\Sparrow_RISC-V\MRS\obj/../app/main.c:109 (discriminator 2)
    1c8c:	41b40bb3          	sub	s7,s0,s11
    1c90:	00400793          	li	a5,4
    1c94:	2b77d8e3          	bge	a5,s7,2744 <pipeline+0xf70>
    1c98:	06e00493          	li	s1,110
    1c9c:	029408b3          	mul	a7,s0,s1
    1ca0:	28680737          	lui	a4,0x28680
    1ca4:	06e70713          	addi	a4,a4,110 # 2868006e <_sp+0x864006e>
d:\PDS\test\Sparrow_RISC-V\MRS\obj/../app/main.c:109
    1ca8:	a1c01337          	lui	t1,0xa1c01
d:\PDS\test\Sparrow_RISC-V\MRS\obj/../app/main.c:112
    for(int x=0;x<TARGET_W;x++){int c=0;
    1cac:	00000513          	li	a0,0
d:\PDS\test\Sparrow_RISC-V\MRS\obj/../app/main.c:111
    int mv=0;
    1cb0:	00000793          	li	a5,0
    1cb4:	a1a00eb7          	lui	t4,0xa1a00
d:\PDS\test\Sparrow_RISC-V\MRS\obj/../app/main.c:112
    for(int x=0;x<TARGET_W;x++){int c=0;
    1cb8:	1b800e13          	li	t3,440
    1cbc:	029d86b3          	mul	a3,s11,s1
    1cc0:	00e888b3          	add	a7,a7,a4
    1cc4:	00d12623          	sw	a3,12(sp)
d:\PDS\test\Sparrow_RISC-V\MRS\obj/../app/main.c:113
        for(int y=yt;y<=yb;y++){uint32_t v=bw[y*wpl+(x>>2)];
    1cc8:	00000713          	li	a4,0
d:\PDS\test\Sparrow_RISC-V\MRS\obj/../app/main.c:112
    for(int x=0;x<TARGET_W;x++){int c=0;
    1ccc:	00000613          	li	a2,0
d:\PDS\test\Sparrow_RISC-V\MRS\obj/../app/main.c:113
        for(int y=yt;y<=yb;y++){uint32_t v=bw[y*wpl+(x>>2)];
    1cd0:	05b44863          	blt	s0,s11,1d20 <pipeline+0x54c>
    1cd4:	00c12703          	lw	a4,12(sp)
    1cd8:	40255693          	srai	a3,a0,0x2
d:\PDS\test\Sparrow_RISC-V\MRS\obj/../app/main.c:114
            if((v>>((x&3)*8))&0xFF)c++;}
    1cdc:	00357813          	andi	a6,a0,3
    1ce0:	00e68733          	add	a4,a3,a4
    1ce4:	00271713          	slli	a4,a4,0x2
    1ce8:	00d886b3          	add	a3,a7,a3
    1cec:	00381813          	slli	a6,a6,0x3
    1cf0:	00ee8733          	add	a4,t4,a4
    1cf4:	00269593          	slli	a1,a3,0x2
d:\PDS\test\Sparrow_RISC-V\MRS\obj/../app/main.c:112
    for(int x=0;x<TARGET_W;x++){int c=0;
    1cf8:	00000613          	li	a2,0
d:\PDS\test\Sparrow_RISC-V\MRS\obj/../app/main.c:113
        for(int y=yt;y<=yb;y++){uint32_t v=bw[y*wpl+(x>>2)];
    1cfc:	00072683          	lw	a3,0(a4)
    1d00:	1b870713          	addi	a4,a4,440
d:\PDS\test\Sparrow_RISC-V\MRS\obj/../app/main.c:114
            if((v>>((x&3)*8))&0xFF)c++;}
    1d04:	0106d6b3          	srl	a3,a3,a6
    1d08:	0ff6f693          	zext.b	a3,a3
    1d0c:	00d036b3          	snez	a3,a3
    1d10:	00d60633          	add	a2,a2,a3
d:\PDS\test\Sparrow_RISC-V\MRS\obj/../app/main.c:113
        for(int y=yt;y<=yb;y++){uint32_t v=bw[y*wpl+(x>>2)];
    1d14:	fee594e3          	bne	a1,a4,1cfc <pipeline+0x528>
d:\PDS\test\Sparrow_RISC-V\MRS\obj/../app/main.c:115
        pv[x]=c;if(c>mv)mv=c;
    1d18:	01061713          	slli	a4,a2,0x10
    1d1c:	01075713          	srli	a4,a4,0x10
    1d20:	00e31023          	sh	a4,0(t1) # a1c01000 <_sp+0x81bc1000>
    1d24:	00c7d463          	bge	a5,a2,1d2c <pipeline+0x558>
    1d28:	00060793          	mv	a5,a2
d:\PDS\test\Sparrow_RISC-V\MRS\obj/../app/main.c:112
    for(int x=0;x<TARGET_W;x++){int c=0;
    1d2c:	00150513          	addi	a0,a0,1
    1d30:	00230313          	addi	t1,t1,2
    1d34:	f9c51ae3          	bne	a0,t3,1cc8 <pipeline+0x4f4>
d:\PDS\test\Sparrow_RISC-V\MRS\obj/../app/main.c:117
    int vt=(mv*102)>>10;if(vt<1)vt=1;
    1d38:	06600713          	li	a4,102
    1d3c:	02e787b3          	mul	a5,a5,a4
    1d40:	40a7d793          	srai	a5,a5,0xa
    1d44:	24f052e3          	blez	a5,2788 <pipeline+0xfb4>
    1d48:	a1c01537          	lui	a0,0xa1c01
d:\PDS\test\Sparrow_RISC-V\MRS\obj/../app/main.c:120
    for(int x=0;x<TARGET_W;x++){
    1d4c:	00000713          	li	a4,0
d:\PDS\test\Sparrow_RISC-V\MRS\obj/../app/main.c:119
    int xs[30],xe[30],cc=0,in=0;
    1d50:	00000613          	li	a2,0
    1d54:	00000d13          	li	s10,0
d:\PDS\test\Sparrow_RISC-V\MRS\obj/../app/main.c:122
        else if(in){xe[cc]=x-1;if(xe[cc]-xs[cc]+1>=4)cc++;in=0;}
    1d58:	00200893          	li	a7,2
d:\PDS\test\Sparrow_RISC-V\MRS\obj/../app/main.c:120
    for(int x=0;x<TARGET_W;x++){
    1d5c:	1b800813          	li	a6,440
    1d60:	02c0006f          	j	1d8c <pipeline+0x5b8>
d:\PDS\test\Sparrow_RISC-V\MRS\obj/../app/main.c:121 (discriminator 1)
        if(pv[x]>=vt){if(!in){xs[cc]=x;in=1;}}
    1d64:	002d1693          	slli	a3,s10,0x2
    1d68:	19068693          	addi	a3,a3,400
    1d6c:	03010593          	addi	a1,sp,48
    1d70:	00b686b3          	add	a3,a3,a1
    1d74:	00061663          	bnez	a2,1d80 <pipeline+0x5ac>
d:\PDS\test\Sparrow_RISC-V\MRS\obj/../app/main.c:121 (discriminator 2)
    1d78:	f0e6a823          	sw	a4,-240(a3)
    1d7c:	00100613          	li	a2,1
d:\PDS\test\Sparrow_RISC-V\MRS\obj/../app/main.c:120 (discriminator 2)
    for(int x=0;x<TARGET_W;x++){
    1d80:	00170713          	addi	a4,a4,1
    1d84:	00250513          	addi	a0,a0,2 # a1c01002 <_sp+0x81bc1002>
    1d88:	05070463          	beq	a4,a6,1dd0 <pipeline+0x5fc>
d:\PDS\test\Sparrow_RISC-V\MRS\obj/../app/main.c:121
        if(pv[x]>=vt){if(!in){xs[cc]=x;in=1;}}
    1d8c:	00055683          	lhu	a3,0(a0)
    1d90:	fcf6dae3          	bge	a3,a5,1d64 <pipeline+0x590>
d:\PDS\test\Sparrow_RISC-V\MRS\obj/../app/main.c:122
        else if(in){xe[cc]=x-1;if(xe[cc]-xs[cc]+1>=4)cc++;in=0;}
    1d94:	002d1593          	slli	a1,s10,0x2
    1d98:	19058693          	addi	a3,a1,400
    1d9c:	03010593          	addi	a1,sp,48
    1da0:	00b685b3          	add	a1,a3,a1
    1da4:	fff70693          	addi	a3,a4,-1
    1da8:	fc060ce3          	beqz	a2,1d80 <pipeline+0x5ac>
d:\PDS\test\Sparrow_RISC-V\MRS\obj/../app/main.c:122 (discriminator 1)
    1dac:	f105a303          	lw	t1,-240(a1)
    1db0:	f8d5a423          	sw	a3,-120(a1)
d:\PDS\test\Sparrow_RISC-V\MRS\obj/../app/main.c:120 (discriminator 1)
    for(int x=0;x<TARGET_W;x++){
    1db4:	00170713          	addi	a4,a4,1
d:\PDS\test\Sparrow_RISC-V\MRS\obj/../app/main.c:122 (discriminator 1)
        else if(in){xe[cc]=x-1;if(xe[cc]-xs[cc]+1>=4)cc++;in=0;}
    1db8:	406686b3          	sub	a3,a3,t1
    1dbc:	00d8a6b3          	slt	a3,a7,a3
    1dc0:	00000613          	li	a2,0
    1dc4:	00dd0d33          	add	s10,s10,a3
d:\PDS\test\Sparrow_RISC-V\MRS\obj/../app/main.c:120 (discriminator 1)
    for(int x=0;x<TARGET_W;x++){
    1dc8:	00250513          	addi	a0,a0,2
    1dcc:	fd0710e3          	bne	a4,a6,1d8c <pipeline+0x5b8>
d:\PDS\test\Sparrow_RISC-V\MRS\obj/../app/main.c:124
    if(in&&(TARGET_W-1-xs[cc]+1>=4)){xe[cc]=TARGET_W-1;cc++;}
    1dd0:	02060863          	beqz	a2,1e00 <pipeline+0x62c>
d:\PDS\test\Sparrow_RISC-V\MRS\obj/../app/main.c:124 (discriminator 1)
    1dd4:	002d1793          	slli	a5,s10,0x2
    1dd8:	03010693          	addi	a3,sp,48
    1ddc:	19078793          	addi	a5,a5,400
    1de0:	00d787b3          	add	a5,a5,a3
    1de4:	f107a603          	lw	a2,-240(a5)
    1de8:	00300693          	li	a3,3
    1dec:	40c70733          	sub	a4,a4,a2
    1df0:	00e6d863          	bge	a3,a4,1e00 <pipeline+0x62c>
d:\PDS\test\Sparrow_RISC-V\MRS\obj/../app/main.c:124 (discriminator 2)
    1df4:	1b700713          	li	a4,439
    1df8:	f8e7a423          	sw	a4,-120(a5)
    1dfc:	001d0d13          	addi	s10,s10,1
d:\PDS\test\Sparrow_RISC-V\MRS\obj/../app/main.c:125
    printf("字符:%d个\r\n",cc);
    1e00:	20000537          	lui	a0,0x20000
    1e04:	000d0593          	mv	a1,s10
    1e08:	0d050513          	addi	a0,a0,208 # 200000d0 <_data+0xd0>
    1e0c:	f30ff0ef          	jal	ra,153c <printf_>
d:\PDS\test\Sparrow_RISC-V\MRS\obj/../app/main.c:129
    printf("[4/5] 串口发送图像数据...\r\n");
    1e10:	20000537          	lui	a0,0x20000
    1e14:	0e050513          	addi	a0,a0,224 # 200000e0 <_data+0xe0>
    1e18:	f24ff0ef          	jal	ra,153c <printf_>
delay():
d:\PDS\test\Sparrow_RISC-V\MRS\obj/../app/main.c:28
void delay(uint32_t c){for(volatile uint32_t i=0;i<c;i++);}
    1e1c:	04012223          	sw	zero,68(sp)
    1e20:	04412703          	lw	a4,68(sp)
    1e24:	0007a7b7          	lui	a5,0x7a
    1e28:	11f78793          	addi	a5,a5,287 # 7a11f <_app_prog_size+0x3a11f>
pipeline():
d:\PDS\test\Sparrow_RISC-V\MRS\obj/../app/main.c:126
    int ch=yb-yt+1;
    1e2c:	001b8b93          	addi	s7,s7,1
delay():
d:\PDS\test\Sparrow_RISC-V\MRS\obj/../app/main.c:28
void delay(uint32_t c){for(volatile uint32_t i=0;i<c;i++);}
    1e30:	00e7ec63          	bltu	a5,a4,1e48 <pipeline+0x674>
    1e34:	04412703          	lw	a4,68(sp)
    1e38:	00170713          	addi	a4,a4,1
    1e3c:	04e12223          	sw	a4,68(sp)
    1e40:	04412703          	lw	a4,68(sp)
    1e44:	fee7f8e3          	bgeu	a5,a4,1e34 <pipeline+0x660>
pipeline():
d:\PDS\test\Sparrow_RISC-V\MRS\obj/../app/main.c:133
    printf("  发送原图...\r\n");
    1e48:	20000537          	lui	a0,0x20000
    1e4c:	10450513          	addi	a0,a0,260 # 20000104 <_data+0x104>
    1e50:	eecff0ef          	jal	ra,153c <printf_>
uart_byte():
d:\PDS\test\Sparrow_RISC-V\MRS\obj/../app/main.c:36
void uart_byte(uint8_t c){uart_send_date(UART0,c);for(volatile int n=0;n<10;n++);}
    1e54:	0aa00593          	li	a1,170
    1e58:	40000537          	lui	a0,0x40000
    1e5c:	c04fe0ef          	jal	ra,260 <uart_send_date>
    1e60:	06012423          	sw	zero,104(sp)
    1e64:	06812703          	lw	a4,104(sp)
    1e68:	00900793          	li	a5,9
    1e6c:	00900693          	li	a3,9
    1e70:	00e7cc63          	blt	a5,a4,1e88 <pipeline+0x6b4>
    1e74:	06812783          	lw	a5,104(sp)
    1e78:	00178793          	addi	a5,a5,1
    1e7c:	06f12423          	sw	a5,104(sp)
    1e80:	06812783          	lw	a5,104(sp)
    1e84:	fef6d8e3          	bge	a3,a5,1e74 <pipeline+0x6a0>
    1e88:	05500593          	li	a1,85
    1e8c:	40000537          	lui	a0,0x40000
    1e90:	bd0fe0ef          	jal	ra,260 <uart_send_date>
    1e94:	06012223          	sw	zero,100(sp)
    1e98:	06412703          	lw	a4,100(sp)
    1e9c:	00900793          	li	a5,9
    1ea0:	00900693          	li	a3,9
    1ea4:	00e7cc63          	blt	a5,a4,1ebc <pipeline+0x6e8>
    1ea8:	06412783          	lw	a5,100(sp)
    1eac:	00178793          	addi	a5,a5,1
    1eb0:	06f12223          	sw	a5,100(sp)
    1eb4:	06412783          	lw	a5,100(sp)
    1eb8:	fef6d8e3          	bge	a3,a5,1ea8 <pipeline+0x6d4>
    1ebc:	00100593          	li	a1,1
    1ec0:	40000537          	lui	a0,0x40000
    1ec4:	b9cfe0ef          	jal	ra,260 <uart_send_date>
    1ec8:	06012023          	sw	zero,96(sp)
    1ecc:	06012703          	lw	a4,96(sp)
    1ed0:	00900793          	li	a5,9
    1ed4:	00900693          	li	a3,9
    1ed8:	00e7cc63          	blt	a5,a4,1ef0 <pipeline+0x71c>
    1edc:	06012783          	lw	a5,96(sp)
    1ee0:	00178793          	addi	a5,a5,1
    1ee4:	06f12023          	sw	a5,96(sp)
    1ee8:	06012783          	lw	a5,96(sp)
    1eec:	fef6d8e3          	bge	a3,a5,1edc <pipeline+0x708>
    1ef0:	00100593          	li	a1,1
    1ef4:	40000537          	lui	a0,0x40000
    1ef8:	b68fe0ef          	jal	ra,260 <uart_send_date>
    1efc:	04012e23          	sw	zero,92(sp)
    1f00:	05c12703          	lw	a4,92(sp)
    1f04:	00900793          	li	a5,9
    1f08:	00900693          	li	a3,9
    1f0c:	00e7cc63          	blt	a5,a4,1f24 <pipeline+0x750>
    1f10:	05c12783          	lw	a5,92(sp)
    1f14:	00178793          	addi	a5,a5,1
    1f18:	04f12e23          	sw	a5,92(sp)
    1f1c:	05c12783          	lw	a5,92(sp)
    1f20:	fef6d8e3          	bge	a3,a5,1f10 <pipeline+0x73c>
    1f24:	0b800593          	li	a1,184
    1f28:	40000537          	lui	a0,0x40000
    1f2c:	b34fe0ef          	jal	ra,260 <uart_send_date>
    1f30:	04012c23          	sw	zero,88(sp)
    1f34:	05812703          	lw	a4,88(sp)
    1f38:	00900793          	li	a5,9
    1f3c:	00900693          	li	a3,9
    1f40:	00e7cc63          	blt	a5,a4,1f58 <pipeline+0x784>
    1f44:	05812783          	lw	a5,88(sp)
    1f48:	00178793          	addi	a5,a5,1
    1f4c:	04f12c23          	sw	a5,88(sp)
    1f50:	05812783          	lw	a5,88(sp)
    1f54:	fef6d8e3          	bge	a3,a5,1f44 <pipeline+0x770>
    1f58:	00000593          	li	a1,0
    1f5c:	40000537          	lui	a0,0x40000
    1f60:	b00fe0ef          	jal	ra,260 <uart_send_date>
    1f64:	04012a23          	sw	zero,84(sp)
    1f68:	05412703          	lw	a4,84(sp)
    1f6c:	00900793          	li	a5,9
    1f70:	00900693          	li	a3,9
    1f74:	00e7cc63          	blt	a5,a4,1f8c <pipeline+0x7b8>
    1f78:	05412783          	lw	a5,84(sp)
    1f7c:	00178793          	addi	a5,a5,1
    1f80:	04f12a23          	sw	a5,84(sp)
    1f84:	05412783          	lw	a5,84(sp)
    1f88:	fef6d8e3          	bge	a3,a5,1f78 <pipeline+0x7a4>
    1f8c:	08c00593          	li	a1,140
    1f90:	40000537          	lui	a0,0x40000
    1f94:	accfe0ef          	jal	ra,260 <uart_send_date>
    1f98:	04012823          	sw	zero,80(sp)
    1f9c:	05012703          	lw	a4,80(sp)
    1fa0:	00900793          	li	a5,9
    1fa4:	00900693          	li	a3,9
    1fa8:	00e7cc63          	blt	a5,a4,1fc0 <pipeline+0x7ec>
    1fac:	05012783          	lw	a5,80(sp)
    1fb0:	00178793          	addi	a5,a5,1
    1fb4:	04f12823          	sw	a5,80(sp)
    1fb8:	05012783          	lw	a5,80(sp)
    1fbc:	fef6d8e3          	bge	a3,a5,1fac <pipeline+0x7d8>
pipeline():
d:\PDS\test\Sparrow_RISC-V\MRS\obj/../app/main.c:122
        else if(in){xe[cc]=x-1;if(xe[cc]-xs[cc]+1>=4)cc++;in=0;}
    1fc0:	a1900937          	lui	s2,0xa1900
d:\PDS\test\Sparrow_RISC-V\MRS\obj/../app/main.c:136
    for(int y=0;y<TARGET_H;y++)
    1fc4:	0000f9b7          	lui	s3,0xf
d:\PDS\test\Sparrow_RISC-V\MRS\obj/../app/main.c:122
        else if(in){xe[cc]=x-1;if(xe[cc]-xs[cc]+1>=4)cc++;in=0;}
    1fc8:	00000a13          	li	s4,0
    1fcc:	37090913          	addi	s2,s2,880 # a1900370 <_sp+0x818c0370>
uart_byte():
d:\PDS\test\Sparrow_RISC-V\MRS\obj/../app/main.c:36
void uart_byte(uint8_t c){uart_send_date(UART0,c);for(volatile int n=0;n<10;n++);}
    1fd0:	00900a93          	li	s5,9
pipeline():
d:\PDS\test\Sparrow_RISC-V\MRS\obj/../app/main.c:136
    for(int y=0;y<TARGET_H;y++)
    1fd4:	0a098993          	addi	s3,s3,160 # f0a0 <__stack_size+0xb0a0>
d:\PDS\test\Sparrow_RISC-V\MRS\obj/../app/main.c:137
        for(int x=0;x<TARGET_W;x++){
    1fd8:	c9090b13          	addi	s6,s2,-880
d:\PDS\test\Sparrow_RISC-V\MRS\obj/../app/main.c:138 (discriminator 3)
            uint16_t px=dst[y*TARGET_W+x];
    1fdc:	000b5783          	lhu	a5,0(s6)
uart_byte():
d:\PDS\test\Sparrow_RISC-V\MRS\obj/../app/main.c:36 (discriminator 3)
void uart_byte(uint8_t c){uart_send_date(UART0,c);for(volatile int n=0;n<10;n++);}
    1fe0:	40000537          	lui	a0,0x40000
    1fe4:	0087d593          	srli	a1,a5,0x8
pipeline():
d:\PDS\test\Sparrow_RISC-V\MRS\obj/../app/main.c:138 (discriminator 3)
            uint16_t px=dst[y*TARGET_W+x];
    1fe8:	01079493          	slli	s1,a5,0x10
uart_byte():
d:\PDS\test\Sparrow_RISC-V\MRS\obj/../app/main.c:36 (discriminator 3)
void uart_byte(uint8_t c){uart_send_date(UART0,c);for(volatile int n=0;n<10;n++);}
    1fec:	a74fe0ef          	jal	ra,260 <uart_send_date>
    1ff0:	06012823          	sw	zero,112(sp)
    1ff4:	07012783          	lw	a5,112(sp)
pipeline():
d:\PDS\test\Sparrow_RISC-V\MRS\obj/../app/main.c:138 (discriminator 3)
            uint16_t px=dst[y*TARGET_W+x];
    1ff8:	0104d493          	srli	s1,s1,0x10
uart_byte():
d:\PDS\test\Sparrow_RISC-V\MRS\obj/../app/main.c:36 (discriminator 3)
void uart_byte(uint8_t c){uart_send_date(UART0,c);for(volatile int n=0;n<10;n++);}
    1ffc:	00facc63          	blt	s5,a5,2014 <pipeline+0x840>
d:\PDS\test\Sparrow_RISC-V\MRS\obj/../app/main.c:36
    2000:	07012783          	lw	a5,112(sp)
    2004:	00178793          	addi	a5,a5,1
    2008:	06f12823          	sw	a5,112(sp)
    200c:	07012783          	lw	a5,112(sp)
    2010:	fefad8e3          	bge	s5,a5,2000 <pipeline+0x82c>
    2014:	0ff4f593          	zext.b	a1,s1
    2018:	40000537          	lui	a0,0x40000
    201c:	a44fe0ef          	jal	ra,260 <uart_send_date>
    2020:	06012623          	sw	zero,108(sp)
    2024:	06c12783          	lw	a5,108(sp)
    2028:	00facc63          	blt	s5,a5,2040 <pipeline+0x86c>
    202c:	06c12783          	lw	a5,108(sp)
    2030:	00178793          	addi	a5,a5,1
    2034:	06f12623          	sw	a5,108(sp)
    2038:	06c12783          	lw	a5,108(sp)
    203c:	fefad8e3          	bge	s5,a5,202c <pipeline+0x858>
pipeline():
d:\PDS\test\Sparrow_RISC-V\MRS\obj/../app/main.c:137
        for(int x=0;x<TARGET_W;x++){
    2040:	002b0b13          	addi	s6,s6,2
    2044:	f92b1ce3          	bne	s6,s2,1fdc <pipeline+0x808>
d:\PDS\test\Sparrow_RISC-V\MRS\obj/../app/main.c:136 (discriminator 2)
    for(int y=0;y<TARGET_H;y++)
    2048:	1b8a0a13          	addi	s4,s4,440
    204c:	370b0913          	addi	s2,s6,880
    2050:	f93a14e3          	bne	s4,s3,1fd8 <pipeline+0x804>
uart_byte():
d:\PDS\test\Sparrow_RISC-V\MRS\obj/../app/main.c:36
void uart_byte(uint8_t c){uart_send_date(UART0,c);for(volatile int n=0;n<10;n++);}
    2054:	05500593          	li	a1,85
    2058:	40000537          	lui	a0,0x40000
    205c:	a04fe0ef          	jal	ra,260 <uart_send_date>
    2060:	06012c23          	sw	zero,120(sp)
    2064:	07812703          	lw	a4,120(sp)
    2068:	00900793          	li	a5,9
    206c:	00900693          	li	a3,9
    2070:	00e7cc63          	blt	a5,a4,2088 <pipeline+0x8b4>
    2074:	07812783          	lw	a5,120(sp)
    2078:	00178793          	addi	a5,a5,1
    207c:	06f12c23          	sw	a5,120(sp)
    2080:	07812783          	lw	a5,120(sp)
    2084:	fef6d8e3          	bge	a3,a5,2074 <pipeline+0x8a0>
    2088:	0aa00593          	li	a1,170
    208c:	40000537          	lui	a0,0x40000
    2090:	9d0fe0ef          	jal	ra,260 <uart_send_date>
    2094:	06012a23          	sw	zero,116(sp)
    2098:	07412703          	lw	a4,116(sp)
    209c:	00900793          	li	a5,9
    20a0:	00900693          	li	a3,9
    20a4:	00e7cc63          	blt	a5,a4,20bc <pipeline+0x8e8>
    20a8:	07412783          	lw	a5,116(sp)
    20ac:	00178793          	addi	a5,a5,1
    20b0:	06f12a23          	sw	a5,116(sp)
    20b4:	07412783          	lw	a5,116(sp)
    20b8:	fef6d8e3          	bge	a3,a5,20a8 <pipeline+0x8d4>
delay():
d:\PDS\test\Sparrow_RISC-V\MRS\obj/../app/main.c:28
void delay(uint32_t c){for(volatile uint32_t i=0;i<c;i++);}
    20bc:	04012423          	sw	zero,72(sp)
    20c0:	04812703          	lw	a4,72(sp)
    20c4:	0007a7b7          	lui	a5,0x7a
    20c8:	11f78793          	addi	a5,a5,287 # 7a11f <_app_prog_size+0x3a11f>
    20cc:	00e7ec63          	bltu	a5,a4,20e4 <pipeline+0x910>
    20d0:	04812703          	lw	a4,72(sp)
    20d4:	00170713          	addi	a4,a4,1
    20d8:	04e12423          	sw	a4,72(sp)
    20dc:	04812703          	lw	a4,72(sp)
    20e0:	fee7f8e3          	bgeu	a5,a4,20d0 <pipeline+0x8fc>
pipeline():
d:\PDS\test\Sparrow_RISC-V\MRS\obj/../app/main.c:145
    printf("  发送二值图...\r\n");
    20e4:	20000537          	lui	a0,0x20000
    20e8:	11850513          	addi	a0,a0,280 # 20000118 <_data+0x118>
    20ec:	c50ff0ef          	jal	ra,153c <printf_>
uart_byte():
d:\PDS\test\Sparrow_RISC-V\MRS\obj/../app/main.c:36
void uart_byte(uint8_t c){uart_send_date(UART0,c);for(volatile int n=0;n<10;n++);}
    20f0:	0aa00593          	li	a1,170
    20f4:	40000537          	lui	a0,0x40000
    20f8:	968fe0ef          	jal	ra,260 <uart_send_date>
    20fc:	08012a23          	sw	zero,148(sp)
    2100:	09412703          	lw	a4,148(sp)
    2104:	00900793          	li	a5,9
    2108:	00900693          	li	a3,9
    210c:	00e7cc63          	blt	a5,a4,2124 <pipeline+0x950>
    2110:	09412783          	lw	a5,148(sp)
    2114:	00178793          	addi	a5,a5,1
    2118:	08f12a23          	sw	a5,148(sp)
    211c:	09412783          	lw	a5,148(sp)
    2120:	fef6d8e3          	bge	a3,a5,2110 <pipeline+0x93c>
    2124:	05500593          	li	a1,85
    2128:	40000537          	lui	a0,0x40000
    212c:	934fe0ef          	jal	ra,260 <uart_send_date>
    2130:	08012823          	sw	zero,144(sp)
    2134:	09012703          	lw	a4,144(sp)
    2138:	00900793          	li	a5,9
    213c:	00900693          	li	a3,9
    2140:	00e7cc63          	blt	a5,a4,2158 <pipeline+0x984>
    2144:	09012783          	lw	a5,144(sp)
    2148:	00178793          	addi	a5,a5,1
    214c:	08f12823          	sw	a5,144(sp)
    2150:	09012783          	lw	a5,144(sp)
    2154:	fef6d8e3          	bge	a3,a5,2144 <pipeline+0x970>
    2158:	00200593          	li	a1,2
    215c:	40000537          	lui	a0,0x40000
    2160:	900fe0ef          	jal	ra,260 <uart_send_date>
    2164:	08012623          	sw	zero,140(sp)
    2168:	08c12703          	lw	a4,140(sp)
    216c:	00900793          	li	a5,9
    2170:	00900693          	li	a3,9
    2174:	00e7cc63          	blt	a5,a4,218c <pipeline+0x9b8>
    2178:	08c12783          	lw	a5,140(sp)
    217c:	00178793          	addi	a5,a5,1
    2180:	08f12623          	sw	a5,140(sp)
    2184:	08c12783          	lw	a5,140(sp)
    2188:	fef6d8e3          	bge	a3,a5,2178 <pipeline+0x9a4>
    218c:	00100593          	li	a1,1
    2190:	40000537          	lui	a0,0x40000
    2194:	8ccfe0ef          	jal	ra,260 <uart_send_date>
    2198:	08012423          	sw	zero,136(sp)
    219c:	08812703          	lw	a4,136(sp)
    21a0:	00900793          	li	a5,9
    21a4:	00900693          	li	a3,9
    21a8:	00e7cc63          	blt	a5,a4,21c0 <pipeline+0x9ec>
    21ac:	08812783          	lw	a5,136(sp)
    21b0:	00178793          	addi	a5,a5,1
    21b4:	08f12423          	sw	a5,136(sp)
    21b8:	08812783          	lw	a5,136(sp)
    21bc:	fef6d8e3          	bge	a3,a5,21ac <pipeline+0x9d8>
    21c0:	0b800593          	li	a1,184
    21c4:	40000537          	lui	a0,0x40000
    21c8:	898fe0ef          	jal	ra,260 <uart_send_date>
    21cc:	08012223          	sw	zero,132(sp)
    21d0:	08412703          	lw	a4,132(sp)
    21d4:	00900793          	li	a5,9
    21d8:	00900693          	li	a3,9
    21dc:	00e7cc63          	blt	a5,a4,21f4 <pipeline+0xa20>
    21e0:	08412783          	lw	a5,132(sp)
    21e4:	00178793          	addi	a5,a5,1
    21e8:	08f12223          	sw	a5,132(sp)
    21ec:	08412783          	lw	a5,132(sp)
    21f0:	fef6d8e3          	bge	a3,a5,21e0 <pipeline+0xa0c>
    21f4:	00000593          	li	a1,0
    21f8:	40000537          	lui	a0,0x40000
    21fc:	864fe0ef          	jal	ra,260 <uart_send_date>
    2200:	08012023          	sw	zero,128(sp)
    2204:	08012703          	lw	a4,128(sp)
    2208:	00900793          	li	a5,9
    220c:	00900693          	li	a3,9
    2210:	00e7cc63          	blt	a5,a4,2228 <pipeline+0xa54>
    2214:	08012783          	lw	a5,128(sp)
    2218:	00178793          	addi	a5,a5,1
    221c:	08f12023          	sw	a5,128(sp)
    2220:	08012783          	lw	a5,128(sp)
    2224:	fef6d8e3          	bge	a3,a5,2214 <pipeline+0xa40>
    2228:	08c00593          	li	a1,140
    222c:	40000537          	lui	a0,0x40000
    2230:	830fe0ef          	jal	ra,260 <uart_send_date>
    2234:	06012e23          	sw	zero,124(sp)
    2238:	07c12703          	lw	a4,124(sp)
    223c:	00900793          	li	a5,9
    2240:	00900693          	li	a3,9
    2244:	00e7cc63          	blt	a5,a4,225c <pipeline+0xa88>
    2248:	07c12783          	lw	a5,124(sp)
    224c:	00178793          	addi	a5,a5,1
    2250:	06f12e23          	sw	a5,124(sp)
    2254:	07c12783          	lw	a5,124(sp)
    2258:	fef6d8e3          	bge	a3,a5,2248 <pipeline+0xa74>
pipeline():
d:\PDS\test\Sparrow_RISC-V\MRS\obj/../app/main.c:148
    for(int y=0;y<TARGET_H;y++)
    225c:	00004cb7          	lui	s9,0x4
d:\PDS\test\Sparrow_RISC-V\MRS\obj/../app/main.c:150
            uint32_t v=bw[y*wpl+(x>>2)];
    2260:	00000a93          	li	s5,0
    2264:	a1a00c37          	lui	s8,0xa1a00
uart_byte():
d:\PDS\test\Sparrow_RISC-V\MRS\obj/../app/main.c:36
void uart_byte(uint8_t c){uart_send_date(UART0,c);for(volatile int n=0;n<10;n++);}
    2268:	00900493          	li	s1,9
pipeline():
d:\PDS\test\Sparrow_RISC-V\MRS\obj/../app/main.c:151
            for(int k=0;k<4;k++)uart_byte((v>>(k*8))&0xFF);
    226c:	02000993          	li	s3,32
d:\PDS\test\Sparrow_RISC-V\MRS\obj/../app/main.c:149
        for(int x=0;x<TARGET_W;x+=4){
    2270:	1b800b13          	li	s6,440
d:\PDS\test\Sparrow_RISC-V\MRS\obj/../app/main.c:148
    for(int y=0;y<TARGET_H;y++)
    2274:	c28c8c93          	addi	s9,s9,-984 # 3c28 <_data_lma+0x1d4>
    2278:	00812823          	sw	s0,16(sp)
d:\PDS\test\Sparrow_RISC-V\MRS\obj/../app/main.c:149
        for(int x=0;x<TARGET_W;x+=4){
    227c:	00000a13          	li	s4,0
d:\PDS\test\Sparrow_RISC-V\MRS\obj/../app/main.c:150
            uint32_t v=bw[y*wpl+(x>>2)];
    2280:	402a5793          	srai	a5,s4,0x2
    2284:	015787b3          	add	a5,a5,s5
    2288:	00279793          	slli	a5,a5,0x2
    228c:	00fc07b3          	add	a5,s8,a5
    2290:	0007a903          	lw	s2,0(a5)
    2294:	00000413          	li	s0,0
d:\PDS\test\Sparrow_RISC-V\MRS\obj/../app/main.c:151 (discriminator 3)
            for(int k=0;k<4;k++)uart_byte((v>>(k*8))&0xFF);
    2298:	008955b3          	srl	a1,s2,s0
uart_byte():
d:\PDS\test\Sparrow_RISC-V\MRS\obj/../app/main.c:36 (discriminator 3)
void uart_byte(uint8_t c){uart_send_date(UART0,c);for(volatile int n=0;n<10;n++);}
    229c:	0ff5f593          	zext.b	a1,a1
    22a0:	40000537          	lui	a0,0x40000
    22a4:	fbdfd0ef          	jal	ra,260 <uart_send_date>
    22a8:	08012c23          	sw	zero,152(sp)
    22ac:	09812783          	lw	a5,152(sp)
    22b0:	00f4cc63          	blt	s1,a5,22c8 <pipeline+0xaf4>
d:\PDS\test\Sparrow_RISC-V\MRS\obj/../app/main.c:36
    22b4:	09812783          	lw	a5,152(sp)
    22b8:	00178793          	addi	a5,a5,1
    22bc:	08f12c23          	sw	a5,152(sp)
    22c0:	09812783          	lw	a5,152(sp)
    22c4:	fef4d8e3          	bge	s1,a5,22b4 <pipeline+0xae0>
pipeline():
d:\PDS\test\Sparrow_RISC-V\MRS\obj/../app/main.c:151
            for(int k=0;k<4;k++)uart_byte((v>>(k*8))&0xFF);
    22c8:	00840413          	addi	s0,s0,8 # ffff0008 <_sp+0xdffb0008>
    22cc:	fd3416e3          	bne	s0,s3,2298 <pipeline+0xac4>
d:\PDS\test\Sparrow_RISC-V\MRS\obj/../app/main.c:149 (discriminator 2)
        for(int x=0;x<TARGET_W;x+=4){
    22d0:	004a0a13          	addi	s4,s4,4
    22d4:	fb6a16e3          	bne	s4,s6,2280 <pipeline+0xaac>
d:\PDS\test\Sparrow_RISC-V\MRS\obj/../app/main.c:148 (discriminator 2)
    for(int y=0;y<TARGET_H;y++)
    22d8:	06ea8a93          	addi	s5,s5,110
    22dc:	fb9a90e3          	bne	s5,s9,227c <pipeline+0xaa8>
uart_byte():
d:\PDS\test\Sparrow_RISC-V\MRS\obj/../app/main.c:36
void uart_byte(uint8_t c){uart_send_date(UART0,c);for(volatile int n=0;n<10;n++);}
    22e0:	05500593          	li	a1,85
    22e4:	40000537          	lui	a0,0x40000
    22e8:	01012403          	lw	s0,16(sp)
    22ec:	f75fd0ef          	jal	ra,260 <uart_send_date>
    22f0:	0a012023          	sw	zero,160(sp)
    22f4:	0a012703          	lw	a4,160(sp)
    22f8:	00900793          	li	a5,9
    22fc:	00900693          	li	a3,9
    2300:	00e7cc63          	blt	a5,a4,2318 <pipeline+0xb44>
    2304:	0a012783          	lw	a5,160(sp)
    2308:	00178793          	addi	a5,a5,1
    230c:	0af12023          	sw	a5,160(sp)
    2310:	0a012783          	lw	a5,160(sp)
    2314:	fef6d8e3          	bge	a3,a5,2304 <pipeline+0xb30>
    2318:	0aa00593          	li	a1,170
    231c:	40000537          	lui	a0,0x40000
    2320:	f41fd0ef          	jal	ra,260 <uart_send_date>
    2324:	08012e23          	sw	zero,156(sp)
    2328:	09c12703          	lw	a4,156(sp)
    232c:	00900793          	li	a5,9
    2330:	00900693          	li	a3,9
    2334:	00e7cc63          	blt	a5,a4,234c <pipeline+0xb78>
    2338:	09c12783          	lw	a5,156(sp)
    233c:	00178793          	addi	a5,a5,1
    2340:	08f12e23          	sw	a5,156(sp)
    2344:	09c12783          	lw	a5,156(sp)
    2348:	fef6d8e3          	bge	a3,a5,2338 <pipeline+0xb64>
delay():
d:\PDS\test\Sparrow_RISC-V\MRS\obj/../app/main.c:28
void delay(uint32_t c){for(volatile uint32_t i=0;i<c;i++);}
    234c:	04012623          	sw	zero,76(sp)
    2350:	04c12703          	lw	a4,76(sp)
    2354:	0007a7b7          	lui	a5,0x7a
    2358:	11f78793          	addi	a5,a5,287 # 7a11f <_app_prog_size+0x3a11f>
    235c:	00e7ec63          	bltu	a5,a4,2374 <pipeline+0xba0>
    2360:	04c12703          	lw	a4,76(sp)
    2364:	00170713          	addi	a4,a4,1
    2368:	04e12623          	sw	a4,76(sp)
    236c:	04c12703          	lw	a4,76(sp)
    2370:	fee7f8e3          	bgeu	a5,a4,2360 <pipeline+0xb8c>
pipeline():
d:\PDS\test\Sparrow_RISC-V\MRS\obj/../app/main.c:157
    printf("  发送%d个字符...\r\n",cc);
    2374:	20000537          	lui	a0,0x20000
    2378:	000d0593          	mv	a1,s10
    237c:	13050513          	addi	a0,a0,304 # 20000130 <_data+0x130>
    2380:	9bcff0ef          	jal	ra,153c <printf_>
d:\PDS\test\Sparrow_RISC-V\MRS\obj/../app/main.c:158
    for(int i=0;i<cc;i++){
    2384:	760d0e63          	beqz	s10,2b00 <pipeline+0x132c>
uart16():
d:\PDS\test\Sparrow_RISC-V\MRS\obj/../app/main.c:37
void uart16(uint16_t v){uart_byte((v>>8)&0xFF);uart_byte(v&0xFF);}
    2388:	010b9793          	slli	a5,s7,0x10
    238c:	0107d793          	srli	a5,a5,0x10
    2390:	0087d793          	srli	a5,a5,0x8
    2394:	0d010913          	addi	s2,sp,208
    2398:	14810a13          	addi	s4,sp,328
    239c:	00f12823          	sw	a5,16(sp)
    23a0:	0ffbf793          	zext.b	a5,s7
    23a4:	00f12a23          	sw	a5,20(sp)
    23a8:	00090b13          	mv	s6,s2
    23ac:	000a0a93          	mv	s5,s4
    23b0:	00100993          	li	s3,1
uart_byte():
d:\PDS\test\Sparrow_RISC-V\MRS\obj/../app/main.c:36
void uart_byte(uint8_t c){uart_send_date(UART0,c);for(volatile int n=0;n<10;n++);}
    23b4:	00900c13          	li	s8,9
pipeline():
d:\PDS\test\Sparrow_RISC-V\MRS\obj/../app/main.c:165
                uint32_t v=bw[y*wpl+(x>>2)];
    23b8:	a1a00cb7          	lui	s9,0xa1a00
    23bc:	01712c23          	sw	s7,24(sp)
    23c0:	01212e23          	sw	s2,28(sp)
d:\PDS\test\Sparrow_RISC-V\MRS\obj/../app/main.c:159
        int cw=xe[i]-xs[i]+1;
    23c4:	000aa483          	lw	s1,0(s5)
    23c8:	000b2b83          	lw	s7,0(s6)
uart_byte():
d:\PDS\test\Sparrow_RISC-V\MRS\obj/../app/main.c:36
void uart_byte(uint8_t c){uart_send_date(UART0,c);for(volatile int n=0;n<10;n++);}
    23cc:	0aa00593          	li	a1,170
    23d0:	40000537          	lui	a0,0x40000
pipeline():
d:\PDS\test\Sparrow_RISC-V\MRS\obj/../app/main.c:159
        int cw=xe[i]-xs[i]+1;
    23d4:	417487b3          	sub	a5,s1,s7
    23d8:	00178913          	addi	s2,a5,1
uart_byte():
d:\PDS\test\Sparrow_RISC-V\MRS\obj/../app/main.c:36
void uart_byte(uint8_t c){uart_send_date(UART0,c);for(volatile int n=0;n<10;n++);}
    23dc:	e85fd0ef          	jal	ra,260 <uart_send_date>
    23e0:	0c012023          	sw	zero,192(sp)
    23e4:	0c012783          	lw	a5,192(sp)
    23e8:	00fc4c63          	blt	s8,a5,2400 <pipeline+0xc2c>
    23ec:	0c012783          	lw	a5,192(sp)
    23f0:	00178793          	addi	a5,a5,1
    23f4:	0cf12023          	sw	a5,192(sp)
    23f8:	0c012783          	lw	a5,192(sp)
    23fc:	fefc58e3          	bge	s8,a5,23ec <pipeline+0xc18>
    2400:	05500593          	li	a1,85
    2404:	40000537          	lui	a0,0x40000
    2408:	e59fd0ef          	jal	ra,260 <uart_send_date>
    240c:	0a012e23          	sw	zero,188(sp)
    2410:	0bc12783          	lw	a5,188(sp)
    2414:	00fc4c63          	blt	s8,a5,242c <pipeline+0xc58>
    2418:	0bc12783          	lw	a5,188(sp)
    241c:	00178793          	addi	a5,a5,1
    2420:	0af12e23          	sw	a5,188(sp)
    2424:	0bc12783          	lw	a5,188(sp)
    2428:	fefc58e3          	bge	s8,a5,2418 <pipeline+0xc44>
    242c:	00300593          	li	a1,3
    2430:	40000537          	lui	a0,0x40000
    2434:	e2dfd0ef          	jal	ra,260 <uart_send_date>
    2438:	0a012c23          	sw	zero,184(sp)
    243c:	0b812783          	lw	a5,184(sp)
    2440:	00fc4c63          	blt	s8,a5,2458 <pipeline+0xc84>
    2444:	0b812783          	lw	a5,184(sp)
    2448:	00178793          	addi	a5,a5,1
    244c:	0af12c23          	sw	a5,184(sp)
    2450:	0b812783          	lw	a5,184(sp)
    2454:	fefc58e3          	bge	s8,a5,2444 <pipeline+0xc70>
    2458:	0ff9f593          	zext.b	a1,s3
    245c:	40000537          	lui	a0,0x40000
    2460:	e01fd0ef          	jal	ra,260 <uart_send_date>
    2464:	0a012a23          	sw	zero,180(sp)
    2468:	0b412783          	lw	a5,180(sp)
    246c:	00fc4c63          	blt	s8,a5,2484 <pipeline+0xcb0>
    2470:	0b412783          	lw	a5,180(sp)
    2474:	00178793          	addi	a5,a5,1
    2478:	0af12a23          	sw	a5,180(sp)
    247c:	0b412783          	lw	a5,180(sp)
    2480:	fefc58e3          	bge	s8,a5,2470 <pipeline+0xc9c>
uart16():
d:\PDS\test\Sparrow_RISC-V\MRS\obj/../app/main.c:37
void uart16(uint16_t v){uart_byte((v>>8)&0xFF);uart_byte(v&0xFF);}
    2484:	01091593          	slli	a1,s2,0x10
    2488:	0105d593          	srli	a1,a1,0x10
uart_byte():
d:\PDS\test\Sparrow_RISC-V\MRS\obj/../app/main.c:36
void uart_byte(uint8_t c){uart_send_date(UART0,c);for(volatile int n=0;n<10;n++);}
    248c:	0085d593          	srli	a1,a1,0x8
    2490:	40000537          	lui	a0,0x40000
    2494:	dcdfd0ef          	jal	ra,260 <uart_send_date>
    2498:	0a012823          	sw	zero,176(sp)
    249c:	0b012783          	lw	a5,176(sp)
    24a0:	00fc4c63          	blt	s8,a5,24b8 <pipeline+0xce4>
    24a4:	0b012783          	lw	a5,176(sp)
    24a8:	00178793          	addi	a5,a5,1
    24ac:	0af12823          	sw	a5,176(sp)
    24b0:	0b012783          	lw	a5,176(sp)
    24b4:	fefc58e3          	bge	s8,a5,24a4 <pipeline+0xcd0>
    24b8:	0ff97593          	zext.b	a1,s2
    24bc:	40000537          	lui	a0,0x40000
    24c0:	da1fd0ef          	jal	ra,260 <uart_send_date>
    24c4:	0a012623          	sw	zero,172(sp)
    24c8:	0ac12783          	lw	a5,172(sp)
    24cc:	00fc4c63          	blt	s8,a5,24e4 <pipeline+0xd10>
    24d0:	0ac12783          	lw	a5,172(sp)
    24d4:	00178793          	addi	a5,a5,1
    24d8:	0af12623          	sw	a5,172(sp)
    24dc:	0ac12783          	lw	a5,172(sp)
    24e0:	fefc58e3          	bge	s8,a5,24d0 <pipeline+0xcfc>
    24e4:	01012583          	lw	a1,16(sp)
    24e8:	40000537          	lui	a0,0x40000
    24ec:	d75fd0ef          	jal	ra,260 <uart_send_date>
    24f0:	0a012423          	sw	zero,168(sp)
    24f4:	0a812783          	lw	a5,168(sp)
    24f8:	00fc4c63          	blt	s8,a5,2510 <pipeline+0xd3c>
    24fc:	0a812783          	lw	a5,168(sp)
    2500:	00178793          	addi	a5,a5,1
    2504:	0af12423          	sw	a5,168(sp)
    2508:	0a812783          	lw	a5,168(sp)
    250c:	fefc58e3          	bge	s8,a5,24fc <pipeline+0xd28>
    2510:	01412583          	lw	a1,20(sp)
    2514:	40000537          	lui	a0,0x40000
    2518:	d49fd0ef          	jal	ra,260 <uart_send_date>
    251c:	0a012223          	sw	zero,164(sp)
    2520:	0a412783          	lw	a5,164(sp)
    2524:	00fc4c63          	blt	s8,a5,253c <pipeline+0xd68>
    2528:	0a412783          	lw	a5,164(sp)
    252c:	00178793          	addi	a5,a5,1
    2530:	0af12223          	sw	a5,164(sp)
    2534:	0a412783          	lw	a5,164(sp)
    2538:	fefc58e3          	bge	s8,a5,2528 <pipeline+0xd54>
pipeline():
d:\PDS\test\Sparrow_RISC-V\MRS\obj/../app/main.c:163
        for(int y=yt;y<=yb;y++)
    253c:	0bb44663          	blt	s0,s11,25e8 <pipeline+0xe14>
    2540:	00c12803          	lw	a6,12(sp)
    2544:	000d8613          	mv	a2,s11
    2548:	0b74c063          	blt	s1,s7,25e8 <pipeline+0xe14>
d:\PDS\test\Sparrow_RISC-V\MRS\obj/../app/main.c:164
            for(int x=xs[i];x<=xe[i];x+=4){
    254c:	000b8913          	mv	s2,s7
d:\PDS\test\Sparrow_RISC-V\MRS\obj/../app/main.c:165
                uint32_t v=bw[y*wpl+(x>>2)];
    2550:	40295793          	srai	a5,s2,0x2
    2554:	010787b3          	add	a5,a5,a6
    2558:	00279793          	slli	a5,a5,0x2
    255c:	00fc87b3          	add	a5,s9,a5
    2560:	0007a883          	lw	a7,0(a5)
d:\PDS\test\Sparrow_RISC-V\MRS\obj/../app/main.c:166
                for(int k=0;k<4&&(x+k)<=xe[i];k++)uart_byte((v>>(k*8))&0xFF);
    2564:	00000693          	li	a3,0
    2568:	0724c663          	blt	s1,s2,25d4 <pipeline+0xe00>
d:\PDS\test\Sparrow_RISC-V\MRS\obj/../app/main.c:166 (discriminator 4)
    256c:	00369593          	slli	a1,a3,0x3
    2570:	00b8d5b3          	srl	a1,a7,a1
uart_byte():
d:\PDS\test\Sparrow_RISC-V\MRS\obj/../app/main.c:36 (discriminator 4)
void uart_byte(uint8_t c){uart_send_date(UART0,c);for(volatile int n=0;n<10;n++);}
    2574:	0ff5f593          	zext.b	a1,a1
    2578:	40000537          	lui	a0,0x40000
    257c:	03012623          	sw	a6,44(sp)
    2580:	02c12423          	sw	a2,40(sp)
pipeline():
d:\PDS\test\Sparrow_RISC-V\MRS\obj/../app/main.c:166 (discriminator 4)
                for(int k=0;k<4&&(x+k)<=xe[i];k++)uart_byte((v>>(k*8))&0xFF);
    2584:	02d12223          	sw	a3,36(sp)
    2588:	03112023          	sw	a7,32(sp)
uart_byte():
d:\PDS\test\Sparrow_RISC-V\MRS\obj/../app/main.c:36 (discriminator 4)
void uart_byte(uint8_t c){uart_send_date(UART0,c);for(volatile int n=0;n<10;n++);}
    258c:	cd5fd0ef          	jal	ra,260 <uart_send_date>
    2590:	0c012223          	sw	zero,196(sp)
    2594:	0c412783          	lw	a5,196(sp)
    2598:	02012883          	lw	a7,32(sp)
    259c:	02412683          	lw	a3,36(sp)
    25a0:	02812603          	lw	a2,40(sp)
    25a4:	02c12803          	lw	a6,44(sp)
    25a8:	00fc4c63          	blt	s8,a5,25c0 <pipeline+0xdec>
d:\PDS\test\Sparrow_RISC-V\MRS\obj/../app/main.c:36
    25ac:	0c412783          	lw	a5,196(sp)
    25b0:	00178793          	addi	a5,a5,1
    25b4:	0cf12223          	sw	a5,196(sp)
    25b8:	0c412783          	lw	a5,196(sp)
    25bc:	fefc58e3          	bge	s8,a5,25ac <pipeline+0xdd8>
pipeline():
d:\PDS\test\Sparrow_RISC-V\MRS\obj/../app/main.c:166
                for(int k=0;k<4&&(x+k)<=xe[i];k++)uart_byte((v>>(k*8))&0xFF);
    25c0:	00168693          	addi	a3,a3,1
    25c4:	00400793          	li	a5,4
    25c8:	00f68663          	beq	a3,a5,25d4 <pipeline+0xe00>
d:\PDS\test\Sparrow_RISC-V\MRS\obj/../app/main.c:166 (discriminator 3)
    25cc:	00d907b3          	add	a5,s2,a3
    25d0:	f8f4dee3          	bge	s1,a5,256c <pipeline+0xd98>
d:\PDS\test\Sparrow_RISC-V\MRS\obj/../app/main.c:164
            for(int x=xs[i];x<=xe[i];x+=4){
    25d4:	00490913          	addi	s2,s2,4
    25d8:	f724dce3          	bge	s1,s2,2550 <pipeline+0xd7c>
d:\PDS\test\Sparrow_RISC-V\MRS\obj/../app/main.c:163
        for(int y=yt;y<=yb;y++)
    25dc:	00160613          	addi	a2,a2,1
    25e0:	06e80813          	addi	a6,a6,110
    25e4:	f6c454e3          	bge	s0,a2,254c <pipeline+0xd78>
uart_byte():
d:\PDS\test\Sparrow_RISC-V\MRS\obj/../app/main.c:36
void uart_byte(uint8_t c){uart_send_date(UART0,c);for(volatile int n=0;n<10;n++);}
    25e8:	05500593          	li	a1,85
    25ec:	40000537          	lui	a0,0x40000
    25f0:	c71fd0ef          	jal	ra,260 <uart_send_date>
    25f4:	0c012623          	sw	zero,204(sp)
    25f8:	0cc12783          	lw	a5,204(sp)
    25fc:	00fc4c63          	blt	s8,a5,2614 <pipeline+0xe40>
    2600:	0cc12783          	lw	a5,204(sp)
    2604:	00178793          	addi	a5,a5,1
    2608:	0cf12623          	sw	a5,204(sp)
    260c:	0cc12783          	lw	a5,204(sp)
    2610:	fefc58e3          	bge	s8,a5,2600 <pipeline+0xe2c>
    2614:	0aa00593          	li	a1,170
    2618:	40000537          	lui	a0,0x40000
    261c:	c45fd0ef          	jal	ra,260 <uart_send_date>
    2620:	0c012423          	sw	zero,200(sp)
    2624:	0c812783          	lw	a5,200(sp)
    2628:	00fc4c63          	blt	s8,a5,2640 <pipeline+0xe6c>
    262c:	0c812783          	lw	a5,200(sp)
    2630:	00178793          	addi	a5,a5,1
    2634:	0cf12423          	sw	a5,200(sp)
    2638:	0c812783          	lw	a5,200(sp)
    263c:	fefc58e3          	bge	s8,a5,262c <pipeline+0xe58>
pipeline():
d:\PDS\test\Sparrow_RISC-V\MRS\obj/../app/main.c:169
        for(volatile int n=0;n<5000;n++);
    2640:	04012023          	sw	zero,64(sp)
    2644:	04012703          	lw	a4,64(sp)
    2648:	000017b7          	lui	a5,0x1
    264c:	38778793          	addi	a5,a5,903 # 1387 <_vsnprintf+0xc13>
    2650:	00e7cc63          	blt	a5,a4,2668 <pipeline+0xe94>
d:\PDS\test\Sparrow_RISC-V\MRS\obj/../app/main.c:169 (discriminator 3)
    2654:	04012703          	lw	a4,64(sp)
    2658:	00170713          	addi	a4,a4,1
    265c:	04e12023          	sw	a4,64(sp)
    2660:	04012703          	lw	a4,64(sp)
    2664:	fee7d8e3          	bge	a5,a4,2654 <pipeline+0xe80>
d:\PDS\test\Sparrow_RISC-V\MRS\obj/../app/main.c:158
    for(int i=0;i<cc;i++){
    2668:	00198793          	addi	a5,s3,1
    266c:	004a8a93          	addi	s5,s5,4
    2670:	004b0b13          	addi	s6,s6,4
    2674:	113d0e63          	beq	s10,s3,2790 <pipeline+0xfbc>
    2678:	00078993          	mv	s3,a5
    267c:	d49ff06f          	j	23c4 <pipeline+0xbf0>
safe_div():
d:\PDS\test\Sparrow_RISC-V\MRS\obj/../app/main.c:32
    while(n>=d){int t=d,m=1;while(n>=(t<<1)&&(t<<1)>t){t<<=1;m<<=1;}n-=t;r+=m;}
    2680:	00000793          	li	a5,0
    2684:	00000313          	li	t1,0
    2688:	00000993          	li	s3,0
    268c:	00000a13          	li	s4,0
    2690:	10000513          	li	a0,256
    2694:	a98ff06f          	j	192c <pipeline+0x158>
    2698:	001e8e93          	addi	t4,t4,1 # a1a00001 <_sp+0x819c0001>
    269c:	a6cff06f          	j	1908 <pipeline+0x134>
    26a0:	001f0f13          	addi	t5,t5,1
pipeline():
d:\PDS\test\Sparrow_RISC-V\MRS\obj/../app/main.c:65
        int fy=safe_div(y*FIXED_SCALE,TARGET_H-1),iv_fy=FIXED_SCALE-fy;
    26a4:	41ea82b3          	sub	t0,s5,t5
    26a8:	a08ff06f          	j	18b0 <pipeline+0xdc>
d:\PDS\test\Sparrow_RISC-V\MRS\obj/../app/main.c:89
            bw[y*wpl+(x>>2)]=word;
    26ac:	0067a023          	sw	t1,0(a5)
d:\PDS\test\Sparrow_RISC-V\MRS\obj/../app/main.c:82
        for(int x=0;x<TARGET_W;x+=4){
    26b0:	00458593          	addi	a1,a1,4
    26b4:	00860613          	addi	a2,a2,8
    26b8:	c9258663          	beq	a1,s2,1b44 <pipeline+0x370>
d:\PDS\test\Sparrow_RISC-V\MRS\obj/../app/main.c:85
                uint16_t px=dst[y*TARGET_W+x+k];
    26bc:	00065783          	lhu	a5,0(a2)
d:\PDS\test\Sparrow_RISC-V\MRS\obj/../app/main.c:87
                if(r>120)word|=(255<<(k*8));
    26c0:	fff00313          	li	t1,-1
    26c4:	00048f13          	mv	t5,s1
d:\PDS\test\Sparrow_RISC-V\MRS\obj/../app/main.c:86
                int r=(px>>11)&0x1F;r=(r<<3)|(r>>2);
    26c8:	00b7d713          	srli	a4,a5,0xb
    26cc:	00371713          	slli	a4,a4,0x3
    26d0:	00d7d793          	srli	a5,a5,0xd
    26d4:	00e7e7b3          	or	a5,a5,a4
d:\PDS\test\Sparrow_RISC-V\MRS\obj/../app/main.c:87
                if(r>120)word|=(255<<(k*8));
    26d8:	bcf55463          	bge	a0,a5,1aa0 <pipeline+0x2cc>
    26dc:	0ff00793          	li	a5,255
    26e0:	000d0293          	mv	t0,s10
    26e4:	000c8f93          	mv	t6,s9
    26e8:	000c0393          	mv	t2,s8
    26ec:	000b8413          	mv	s0,s7
    26f0:	000b0093          	mv	ra,s6
    26f4:	00f12623          	sw	a5,12(sp)
    26f8:	bc8ff06f          	j	1ac0 <pipeline+0x2ec>
d:\PDS\test\Sparrow_RISC-V\MRS\obj/../app/main.c:74 (discriminator 1)
        if((y&31)==0)for(volatile int n=0;n<10;n++);
    26fc:	02012e23          	sw	zero,60(sp)
    2700:	03c12603          	lw	a2,60(sp)
    2704:	00900793          	li	a5,9
    2708:	aec7c463          	blt	a5,a2,19f0 <pipeline+0x21c>
d:\PDS\test\Sparrow_RISC-V\MRS\obj/../app/main.c:74
    270c:	00900613          	li	a2,9
d:\PDS\test\Sparrow_RISC-V\MRS\obj/../app/main.c:74 (discriminator 4)
    2710:	03c12783          	lw	a5,60(sp)
    2714:	00178793          	addi	a5,a5,1
    2718:	02f12e23          	sw	a5,60(sp)
    271c:	03c12783          	lw	a5,60(sp)
    2720:	fef658e3          	bge	a2,a5,2710 <pipeline+0xf3c>
    2724:	accff06f          	j	19f0 <pipeline+0x21c>
d:\PDS\test\Sparrow_RISC-V\MRS\obj/../app/main.c:106
        else if(cs>=0){int l=y-cs;if(l>ml){ml=l;yt=cs;yb=y-1;}cs=-1;}
    2728:	fff00793          	li	a5,-1
    272c:	d0cff06f          	j	1c38 <pipeline+0x464>
    2730:	00078d93          	mv	s11,a5
d:\PDS\test\Sparrow_RISC-V\MRS\obj/../app/main.c:108
    if(cs>=0){int l=TARGET_H-cs;if(l>ml){ml=l;yt=cs;yb=TARGET_H-1;}}
    2734:	08b00413          	li	s0,139
d:\PDS\test\Sparrow_RISC-V\MRS\obj/../app/main.c:109
    if(yt<0||yb-yt<5){printf("未找到字符行\r\n");return;}
    2738:	41b40bb3          	sub	s7,s0,s11
    273c:	00400793          	li	a5,4
    2740:	d577cc63          	blt	a5,s7,1c98 <pipeline+0x4c4>
d:\PDS\test\Sparrow_RISC-V\MRS\obj/../app/main.c:109 (discriminator 3)
    2744:	20000537          	lui	a0,0x20000
    2748:	0b850513          	addi	a0,a0,184 # 200000b8 <_data+0xb8>
d:\PDS\test\Sparrow_RISC-V\MRS\obj/../app/main.c:202
}
    274c:	1f812403          	lw	s0,504(sp)
    2750:	1fc12083          	lw	ra,508(sp)
    2754:	1f412483          	lw	s1,500(sp)
    2758:	1f012903          	lw	s2,496(sp)
    275c:	1ec12983          	lw	s3,492(sp)
    2760:	1e812a03          	lw	s4,488(sp)
    2764:	1e412a83          	lw	s5,484(sp)
    2768:	1e012b03          	lw	s6,480(sp)
    276c:	1dc12b83          	lw	s7,476(sp)
    2770:	1d812c03          	lw	s8,472(sp)
    2774:	1d412c83          	lw	s9,468(sp)
    2778:	1d012d03          	lw	s10,464(sp)
    277c:	1cc12d83          	lw	s11,460(sp)
    2780:	20010113          	addi	sp,sp,512
d:\PDS\test\Sparrow_RISC-V\MRS\obj/../app/main.c:201
    printf("完成!\r\n");
    2784:	db9fe06f          	j	153c <printf_>
d:\PDS\test\Sparrow_RISC-V\MRS\obj/../app/main.c:117
    int vt=(mv*102)>>10;if(vt<1)vt=1;
    2788:	00100793          	li	a5,1
    278c:	dbcff06f          	j	1d48 <pipeline+0x574>
d:\PDS\test\Sparrow_RISC-V\MRS\obj/../app/main.c:173
    printf("[5/5] 模板匹配...\r\n");
    2790:	20000537          	lui	a0,0x20000
    2794:	01812b83          	lw	s7,24(sp)
    2798:	14c50513          	addi	a0,a0,332 # 2000014c <_data+0x14c>
    279c:	01c12903          	lw	s2,28(sp)
    27a0:	d9dfe0ef          	jal	ra,153c <printf_>
d:\PDS\test\Sparrow_RISC-V\MRS\obj/../app/main.c:178
        if(cw<6||(cw*100<ch*15)||(cw*100>ch*180))continue;
    27a4:	0b400793          	li	a5,180
    27a8:	02fb8c33          	mul	s8,s7,a5
    27ac:	004b9793          	slli	a5,s7,0x4
    27b0:	a1b00b37          	lui	s6,0xa1b00
    27b4:	41778cb3          	sub	s9,a5,s7
    27b8:	00100993          	li	s3,1
safe_div():
d:\PDS\test\Sparrow_RISC-V\MRS\obj/../app/main.c:32
    while(n>=d){int t=d,m=1;while(n>=(t<<1)&&(t<<1)>t){t<<=1;m<<=1;}n-=t;r+=m;}
    27bc:	00f00493          	li	s1,15
    27c0:	0380006f          	j	27f8 <pipeline+0x1024>
pipeline():
d:\PDS\test\Sparrow_RISC-V\MRS\obj/../app/main.c:176 (discriminator 2)
        int is_cn=(i==0||cw>25);
    27c4:	01900793          	li	a5,25
    27c8:	00000a93          	li	s5,0
    27cc:	04e7d463          	bge	a5,a4,2814 <pipeline+0x1040>
d:\PDS\test\Sparrow_RISC-V\MRS\obj/../app/main.c:176
    27d0:	00100a93          	li	s5,1
d:\PDS\test\Sparrow_RISC-V\MRS\obj/../app/main.c:178 (discriminator 2)
        if(cw<6||(cw*100<ch*15)||(cw*100>ch*180))continue;
    27d4:	06400793          	li	a5,100
    27d8:	02f707b3          	mul	a5,a4,a5
d:\PDS\test\Sparrow_RISC-V\MRS\obj/../app/main.c:199 (discriminator 2)
        printf("  字符%d: %s\r\n",i+1,(best>100&&id>=0)?template_lib[id].name:"?");
    27dc:	00098413          	mv	s0,s3
d:\PDS\test\Sparrow_RISC-V\MRS\obj/../app/main.c:178 (discriminator 2)
        if(cw<6||(cw*100<ch*15)||(cw*100>ch*180))continue;
    27e0:	0197c463          	blt	a5,s9,27e8 <pipeline+0x1014>
d:\PDS\test\Sparrow_RISC-V\MRS\obj/../app/main.c:178 (discriminator 4)
    27e4:	04fc5c63          	bge	s8,a5,283c <pipeline+0x1068>
d:\PDS\test\Sparrow_RISC-V\MRS\obj/../app/main.c:174 (discriminator 2)
    for(int i=0;i<cc;i++){
    27e8:	004a0a13          	addi	s4,s4,4
    27ec:	00490913          	addi	s2,s2,4
    27f0:	00198993          	addi	s3,s3,1
    27f4:	03a45e63          	bge	s0,s10,2830 <pipeline+0x105c>
d:\PDS\test\Sparrow_RISC-V\MRS\obj/../app/main.c:175
        int cw=xe[i]-xs[i]+1;
    27f8:	00092303          	lw	t1,0(s2)
    27fc:	000a2703          	lw	a4,0(s4)
d:\PDS\test\Sparrow_RISC-V\MRS\obj/../app/main.c:176
        int is_cn=(i==0||cw>25);
    2800:	00100793          	li	a5,1
d:\PDS\test\Sparrow_RISC-V\MRS\obj/../app/main.c:175
        int cw=xe[i]-xs[i]+1;
    2804:	40670733          	sub	a4,a4,t1
    2808:	00170713          	addi	a4,a4,1
d:\PDS\test\Sparrow_RISC-V\MRS\obj/../app/main.c:176
        int is_cn=(i==0||cw>25);
    280c:	faf99ce3          	bne	s3,a5,27c4 <pipeline+0xff0>
    2810:	00100a93          	li	s5,1
d:\PDS\test\Sparrow_RISC-V\MRS\obj/../app/main.c:178 (discriminator 6)
        if(cw<6||(cw*100<ch*15)||(cw*100>ch*180))continue;
    2814:	00500793          	li	a5,5
d:\PDS\test\Sparrow_RISC-V\MRS\obj/../app/main.c:199 (discriminator 6)
        printf("  字符%d: %s\r\n",i+1,(best>100&&id>=0)?template_lib[id].name:"?");
    2818:	00098413          	mv	s0,s3
d:\PDS\test\Sparrow_RISC-V\MRS\obj/../app/main.c:178 (discriminator 6)
        if(cw<6||(cw*100<ch*15)||(cw*100>ch*180))continue;
    281c:	fae7cce3          	blt	a5,a4,27d4 <pipeline+0x1000>
d:\PDS\test\Sparrow_RISC-V\MRS\obj/../app/main.c:174
    for(int i=0;i<cc;i++){
    2820:	004a0a13          	addi	s4,s4,4
    2824:	00490913          	addi	s2,s2,4
    2828:	00198993          	addi	s3,s3,1
    282c:	fda446e3          	blt	s0,s10,27f8 <pipeline+0x1024>
d:\PDS\test\Sparrow_RISC-V\MRS\obj/../app/main.c:201
    printf("完成!\r\n");
    2830:	20000537          	lui	a0,0x20000
    2834:	17850513          	addi	a0,a0,376 # 20000178 <_data+0x178>
    2838:	f15ff06f          	j	274c <pipeline+0xf78>
    283c:	fff00e93          	li	t4,-1
    2840:	010b0593          	addi	a1,s6,16 # a1b00010 <_sp+0x81ac0010>
    2844:	00000693          	li	a3,0
safe_div():
d:\PDS\test\Sparrow_RISC-V\MRS\obj/../app/main.c:32
    while(n>=d){int t=d,m=1;while(n>=(t<<1)&&(t<<1)>t){t<<=1;m<<=1;}n-=t;r+=m;}
    2848:	01f00893          	li	a7,31
    284c:	03f00f13          	li	t5,63
pipeline():
d:\PDS\test\Sparrow_RISC-V\MRS\obj/../app/main.c:184
                uint32_t v=bw[sy*wpl+(sx>>2)];
    2850:	06e00f93          	li	t6,110
    2854:	a1a002b7          	lui	t0,0xa1a00
d:\PDS\test\Sparrow_RISC-V\MRS\obj/../app/main.c:186
                if(ty<1||ty>30)test[ty*16+tx]=0;
    2858:	01d00393          	li	t2,29
d:\PDS\test\Sparrow_RISC-V\MRS\obj/../app/main.c:181
            int sy=yt+safe_div(ty*ch,32);
    285c:	00068813          	mv	a6,a3
safe_div():
d:\PDS\test\Sparrow_RISC-V\MRS\obj/../app/main.c:31
    if(d==0)return 0;int r=0;
    2860:	00000613          	li	a2,0
d:\PDS\test\Sparrow_RISC-V\MRS\obj/../app/main.c:32
    while(n>=d){int t=d,m=1;while(n>=(t<<1)&&(t<<1)>t){t<<=1;m<<=1;}n-=t;r+=m;}
    2864:	24d8d863          	bge	a7,a3,2ab4 <pipeline+0x12e0>
    2868:	050f5063          	bge	t5,a6,28a8 <pipeline+0x10d4>
    286c:	01900513          	li	a0,25
    2870:	04000793          	li	a5,64
    2874:	00100e13          	li	t3,1
    2878:	0080006f          	j	2880 <pipeline+0x10ac>
    287c:	00050c63          	beqz	a0,2894 <pipeline+0x10c0>
    2880:	00078093          	mv	ra,a5
    2884:	00179793          	slli	a5,a5,0x1
    2888:	fff50513          	addi	a0,a0,-1
    288c:	001e1e13          	slli	t3,t3,0x1
    2890:	fef856e3          	bge	a6,a5,287c <pipeline+0x10a8>
    2894:	40180833          	sub	a6,a6,ra
    2898:	01c60633          	add	a2,a2,t3
    289c:	fd08c6e3          	blt	a7,a6,2868 <pipeline+0x1094>
pipeline():
d:\PDS\test\Sparrow_RISC-V\MRS\obj/../app/main.c:181
            int sy=yt+safe_div(ty*ch,32);
    28a0:	00cd8633          	add	a2,s11,a2
    28a4:	00c0006f          	j	28b0 <pipeline+0x10dc>
safe_div():
d:\PDS\test\Sparrow_RISC-V\MRS\obj/../app/main.c:32
    while(n>=d){int t=d,m=1;while(n>=(t<<1)&&(t<<1)>t){t<<=1;m<<=1;}n-=t;r+=m;}
    28a8:	00160613          	addi	a2,a2,1
pipeline():
d:\PDS\test\Sparrow_RISC-V\MRS\obj/../app/main.c:181
            int sy=yt+safe_div(ty*ch,32);
    28ac:	01b60633          	add	a2,a2,s11
d:\PDS\test\Sparrow_RISC-V\MRS\obj/../app/main.c:184
                uint32_t v=bw[sy*wpl+(sx>>2)];
    28b0:	03f60e33          	mul	t3,a2,t6
    28b4:	ff058793          	addi	a5,a1,-16
    28b8:	00000613          	li	a2,0
    28bc:	01812a23          	sw	s8,20(sp)
    28c0:	000d8513          	mv	a0,s11
d:\PDS\test\Sparrow_RISC-V\MRS\obj/../app/main.c:183
                int sx=xs[i]+safe_div(tx*cw,16);
    28c4:	00060c13          	mv	s8,a2
safe_div():
d:\PDS\test\Sparrow_RISC-V\MRS\obj/../app/main.c:31
    if(d==0)return 0;int r=0;
    28c8:	00000d93          	li	s11,0
d:\PDS\test\Sparrow_RISC-V\MRS\obj/../app/main.c:32
    while(n>=d){int t=d,m=1;while(n>=(t<<1)&&(t<<1)>t){t<<=1;m<<=1;}n-=t;r+=m;}
    28cc:	1ec4d063          	bge	s1,a2,2aac <pipeline+0x12d8>
    28d0:	00612623          	sw	t1,12(sp)
    28d4:	01912823          	sw	s9,16(sp)
    28d8:	1d88d063          	bge	a7,s8,2a98 <pipeline+0x12c4>
    28dc:	01a00313          	li	t1,26
    28e0:	02000813          	li	a6,32
    28e4:	00100093          	li	ra,1
    28e8:	0080006f          	j	28f0 <pipeline+0x111c>
    28ec:	00030c63          	beqz	t1,2904 <pipeline+0x1130>
    28f0:	00080c93          	mv	s9,a6
    28f4:	00181813          	slli	a6,a6,0x1
    28f8:	fff30313          	addi	t1,t1,-1
    28fc:	00109093          	slli	ra,ra,0x1
    2900:	ff0c56e3          	bge	s8,a6,28ec <pipeline+0x1118>
    2904:	419c0c33          	sub	s8,s8,s9
    2908:	001d8db3          	add	s11,s11,ra
    290c:	fd84c6e3          	blt	s1,s8,28d8 <pipeline+0x1104>
pipeline():
d:\PDS\test\Sparrow_RISC-V\MRS\obj/../app/main.c:183
                int sx=xs[i]+safe_div(tx*cw,16);
    2910:	00c12303          	lw	t1,12(sp)
    2914:	01012c83          	lw	s9,16(sp)
    2918:	01b30db3          	add	s11,t1,s11
d:\PDS\test\Sparrow_RISC-V\MRS\obj/../app/main.c:184
                uint32_t v=bw[sy*wpl+(sx>>2)];
    291c:	402dd093          	srai	ra,s11,0x2
    2920:	01c080b3          	add	ra,ra,t3
    2924:	00209093          	slli	ra,ra,0x2
    2928:	001280b3          	add	ra,t0,ra
    292c:	0000a083          	lw	ra,0(ra) # ff0000 <_app_prog_size+0xfb0000>
d:\PDS\test\Sparrow_RISC-V\MRS\obj/../app/main.c:185
                test[ty*16+tx]=((v>>((sx&3)*8))&0xFF)>128?1:0;
    2930:	003dfd93          	andi	s11,s11,3
    2934:	003d9c13          	slli	s8,s11,0x3
    2938:	0180d0b3          	srl	ra,ra,s8
    293c:	0ff0f093          	zext.b	ra,ra
    2940:	0810b093          	sltiu	ra,ra,129
    2944:	0010c093          	xori	ra,ra,1
    2948:	00178023          	sb	ra,0(a5)
d:\PDS\test\Sparrow_RISC-V\MRS\obj/../app/main.c:186
                if(ty<1||ty>30)test[ty*16+tx]=0;
    294c:	1dd3e263          	bltu	t2,t4,2b10 <pipeline+0x133c>
d:\PDS\test\Sparrow_RISC-V\MRS\obj/../app/main.c:182 (discriminator 2)
            for(int tx=0;tx<16;tx++){
    2950:	00178793          	addi	a5,a5,1
    2954:	00e60633          	add	a2,a2,a4
    2958:	f6f596e3          	bne	a1,a5,28c4 <pipeline+0x10f0>
d:\PDS\test\Sparrow_RISC-V\MRS\obj/../app/main.c:180 (discriminator 2)
        for(int ty=0;ty<32;ty++){
    295c:	a1b007b7          	lui	a5,0xa1b00
    2960:	01058593          	addi	a1,a1,16
    2964:	21078793          	addi	a5,a5,528 # a1b00210 <_sp+0x81ac0210>
    2968:	01412c03          	lw	s8,20(sp)
    296c:	00050d93          	mv	s11,a0
    2970:	017686b3          	add	a3,a3,s7
    2974:	001e8e93          	addi	t4,t4,1
    2978:	eef592e3          	bne	a1,a5,285c <pipeline+0x1088>
d:\PDS\test\Sparrow_RISC-V\MRS\obj/../app/main.c:189
        for(int t=0;t<num_templates;t++){
    297c:	200217b7          	lui	a5,0x20021
    2980:	6807ae03          	lw	t3,1664(a5) # 20021680 <num_templates>
    2984:	17c05863          	blez	t3,2af4 <pipeline+0x1320>
    2988:	200217b7          	lui	a5,0x20021
d:\PDS\test\Sparrow_RISC-V\MRS\obj/../app/main.c:177
        long best=-10000;int id=-1;
    298c:	ffffe637          	lui	a2,0xffffe
    2990:	47078313          	addi	t1,a5,1136 # 20021470 <template_lib>
d:\PDS\test\Sparrow_RISC-V\MRS\obj/../app/main.c:189
        for(int t=0;t<num_templates;t++){
    2994:	00000893          	li	a7,0
    2998:	47078793          	addi	a5,a5,1136
d:\PDS\test\Sparrow_RISC-V\MRS\obj/../app/main.c:177
        long best=-10000;int id=-1;
    299c:	fff00693          	li	a3,-1
    29a0:	8f060613          	addi	a2,a2,-1808 # ffffd8f0 <_sp+0xdffbd8f0>
    29a4:	01712623          	sw	s7,12(sp)
    29a8:	01312823          	sw	s3,16(sp)
    29ac:	01212a23          	sw	s2,20(sp)
    29b0:	01412c23          	sw	s4,24(sp)
    29b4:	00812e23          	sw	s0,28(sp)
d:\PDS\test\Sparrow_RISC-V\MRS\obj/../app/main.c:195
                else s-=(template_lib[t].data[j]==1)?5:10;
    29b8:	00100813          	li	a6,1
d:\PDS\test\Sparrow_RISC-V\MRS\obj/../app/main.c:193
            for(int j=0;j<512;j++){
    29bc:	200b0e93          	addi	t4,s6,512
    29c0:	00068b93          	mv	s7,a3
    29c4:	00060993          	mv	s3,a2
    29c8:	000e0a13          	mv	s4,t3
    29cc:	00078913          	mv	s2,a5
    29d0:	00088413          	mv	s0,a7
d:\PDS\test\Sparrow_RISC-V\MRS\obj/../app/main.c:190
            int nl=0;while(template_lib[t].name[nl]!='\0')nl++;
    29d4:	00092503          	lw	a0,0(s2)
    29d8:	00054783          	lbu	a5,0(a0)
    29dc:	10078863          	beqz	a5,2aec <pipeline+0x1318>
    29e0:	00150513          	addi	a0,a0,1
    29e4:	05c010ef          	jal	ra,3a40 <strlen>
d:\PDS\test\Sparrow_RISC-V\MRS\obj/../app/main.c:191
            if(is_cn&&nl<=1)continue;if(!is_cn&&nl>1)continue;
    29e8:	200217b7          	lui	a5,0x20021
    29ec:	47078313          	addi	t1,a5,1136 # 20021470 <template_lib>
    29f0:	a1b007b7          	lui	a5,0xa1b00
    29f4:	00150713          	addi	a4,a0,1
    29f8:	00100813          	li	a6,1
    29fc:	20078e93          	addi	t4,a5,512 # a1b00200 <_sp+0x81ac0200>
    2a00:	0e0a8263          	beqz	s5,2ae4 <pipeline+0x1310>
d:\PDS\test\Sparrow_RISC-V\MRS\obj/../app/main.c:191 (discriminator 1)
    2a04:	05070063          	beq	a4,a6,2a44 <pipeline+0x1270>
    2a08:	00492783          	lw	a5,4(s2)
d:\PDS\test\Sparrow_RISC-V\MRS\obj/../app/main.c:194
                if(test[j]==template_lib[t].data[j])s+=(test[j]==1)?10:1;
    2a0c:	a1b005b7          	lui	a1,0xa1b00
    2a10:	00000713          	li	a4,0
    2a14:	0005c283          	lbu	t0,0(a1) # a1b00000 <_sp+0x81ac0000>
    2a18:	0007af83          	lw	t6,0(a5)
d:\PDS\test\Sparrow_RISC-V\MRS\obj/../app/main.c:195
                else s-=(template_lib[t].data[j]==1)?5:10;
    2a1c:	00a00513          	li	a0,10
d:\PDS\test\Sparrow_RISC-V\MRS\obj/../app/main.c:194
                if(test[j]==template_lib[t].data[j])s+=(test[j]==1)?10:1;
    2a20:	0bf28263          	beq	t0,t6,2ac4 <pipeline+0x12f0>
d:\PDS\test\Sparrow_RISC-V\MRS\obj/../app/main.c:195
                else s-=(template_lib[t].data[j]==1)?5:10;
    2a24:	090f8c63          	beq	t6,a6,2abc <pipeline+0x12e8>
d:\PDS\test\Sparrow_RISC-V\MRS\obj/../app/main.c:195 (discriminator 4)
    2a28:	40a70733          	sub	a4,a4,a0
d:\PDS\test\Sparrow_RISC-V\MRS\obj/../app/main.c:193 (discriminator 2)
            for(int j=0;j<512;j++){
    2a2c:	00158593          	addi	a1,a1,1
    2a30:	00478793          	addi	a5,a5,4
    2a34:	ffd590e3          	bne	a1,t4,2a14 <pipeline+0x1240>
d:\PDS\test\Sparrow_RISC-V\MRS\obj/../app/main.c:197
            if(s>best){best=s;id=t;}
    2a38:	00e9d663          	bge	s3,a4,2a44 <pipeline+0x1270>
    2a3c:	00040b93          	mv	s7,s0
    2a40:	00070993          	mv	s3,a4
d:\PDS\test\Sparrow_RISC-V\MRS\obj/../app/main.c:189 (discriminator 2)
        for(int t=0;t<num_templates;t++){
    2a44:	00140413          	addi	s0,s0,1
    2a48:	00890913          	addi	s2,s2,8
    2a4c:	f88a14e3          	bne	s4,s0,29d4 <pipeline+0x1200>
d:\PDS\test\Sparrow_RISC-V\MRS\obj/../app/main.c:199
        printf("  字符%d: %s\r\n",i+1,(best>100&&id>=0)?template_lib[id].name:"?");
    2a50:	00098613          	mv	a2,s3
    2a54:	06400793          	li	a5,100
    2a58:	000b8693          	mv	a3,s7
    2a5c:	01012983          	lw	s3,16(sp)
    2a60:	00c12b83          	lw	s7,12(sp)
    2a64:	01412903          	lw	s2,20(sp)
    2a68:	01812a03          	lw	s4,24(sp)
    2a6c:	01c12403          	lw	s0,28(sp)
    2a70:	08c7d263          	bge	a5,a2,2af4 <pipeline+0x1320>
d:\PDS\test\Sparrow_RISC-V\MRS\obj/../app/main.c:199 (discriminator 1)
    2a74:	0806c063          	bltz	a3,2af4 <pipeline+0x1320>
d:\PDS\test\Sparrow_RISC-V\MRS\obj/../app/main.c:199 (discriminator 3)
    2a78:	00369693          	slli	a3,a3,0x3
    2a7c:	00d307b3          	add	a5,t1,a3
    2a80:	0007a603          	lw	a2,0(a5)
d:\PDS\test\Sparrow_RISC-V\MRS\obj/../app/main.c:199 (discriminator 6)
    2a84:	20000537          	lui	a0,0x20000
    2a88:	00098593          	mv	a1,s3
    2a8c:	16450513          	addi	a0,a0,356 # 20000164 <_data+0x164>
    2a90:	aadfe0ef          	jal	ra,153c <printf_>
    2a94:	d55ff06f          	j	27e8 <pipeline+0x1014>
    2a98:	00c12303          	lw	t1,12(sp)
safe_div():
d:\PDS\test\Sparrow_RISC-V\MRS\obj/../app/main.c:32
    while(n>=d){int t=d,m=1;while(n>=(t<<1)&&(t<<1)>t){t<<=1;m<<=1;}n-=t;r+=m;}
    2a9c:	001d8d93          	addi	s11,s11,1
    2aa0:	01012c83          	lw	s9,16(sp)
pipeline():
d:\PDS\test\Sparrow_RISC-V\MRS\obj/../app/main.c:183
                int sx=xs[i]+safe_div(tx*cw,16);
    2aa4:	006d8db3          	add	s11,s11,t1
    2aa8:	e75ff06f          	j	291c <pipeline+0x1148>
safe_div():
d:\PDS\test\Sparrow_RISC-V\MRS\obj/../app/main.c:32
    while(n>=d){int t=d,m=1;while(n>=(t<<1)&&(t<<1)>t){t<<=1;m<<=1;}n-=t;r+=m;}
    2aac:	00030d93          	mv	s11,t1
    2ab0:	e6dff06f          	j	291c <pipeline+0x1148>
    2ab4:	000d8613          	mv	a2,s11
    2ab8:	df9ff06f          	j	28b0 <pipeline+0x10dc>
pipeline():
d:\PDS\test\Sparrow_RISC-V\MRS\obj/../app/main.c:195
                else s-=(template_lib[t].data[j]==1)?5:10;
    2abc:	00500513          	li	a0,5
    2ac0:	f69ff06f          	j	2a28 <pipeline+0x1254>
d:\PDS\test\Sparrow_RISC-V\MRS\obj/../app/main.c:194 (discriminator 1)
                if(test[j]==template_lib[t].data[j])s+=(test[j]==1)?10:1;
    2ac4:	0005cf83          	lbu	t6,0(a1)
    2ac8:	00100513          	li	a0,1
    2acc:	010f8663          	beq	t6,a6,2ad8 <pipeline+0x1304>
d:\PDS\test\Sparrow_RISC-V\MRS\obj/../app/main.c:194 (discriminator 5)
    2ad0:	00a70733          	add	a4,a4,a0
    2ad4:	f59ff06f          	j	2a2c <pipeline+0x1258>
d:\PDS\test\Sparrow_RISC-V\MRS\obj/../app/main.c:194
    2ad8:	00a00513          	li	a0,10
    2adc:	00a70733          	add	a4,a4,a0
    2ae0:	f4dff06f          	j	2a2c <pipeline+0x1258>
d:\PDS\test\Sparrow_RISC-V\MRS\obj/../app/main.c:191 (discriminator 5)
            if(is_cn&&nl<=1)continue;if(!is_cn&&nl>1)continue;
    2ae4:	f70710e3          	bne	a4,a6,2a44 <pipeline+0x1270>
    2ae8:	f21ff06f          	j	2a08 <pipeline+0x1234>
d:\PDS\test\Sparrow_RISC-V\MRS\obj/../app/main.c:191
    2aec:	f40a9ce3          	bnez	s5,2a44 <pipeline+0x1270>
    2af0:	f19ff06f          	j	2a08 <pipeline+0x1234>
d:\PDS\test\Sparrow_RISC-V\MRS\obj/../app/main.c:199
        printf("  字符%d: %s\r\n",i+1,(best>100&&id>=0)?template_lib[id].name:"?");
    2af4:	20000637          	lui	a2,0x20000
    2af8:	06860613          	addi	a2,a2,104 # 20000068 <_data+0x68>
    2afc:	f89ff06f          	j	2a84 <pipeline+0x12b0>
d:\PDS\test\Sparrow_RISC-V\MRS\obj/../app/main.c:173
    printf("[5/5] 模板匹配...\r\n");
    2b00:	20000537          	lui	a0,0x20000
    2b04:	14c50513          	addi	a0,a0,332 # 2000014c <_data+0x14c>
    2b08:	a35fe0ef          	jal	ra,153c <printf_>
d:\PDS\test\Sparrow_RISC-V\MRS\obj/../app/main.c:174
    for(int i=0;i<cc;i++){
    2b0c:	d25ff06f          	j	2830 <pipeline+0x105c>
d:\PDS\test\Sparrow_RISC-V\MRS\obj/../app/main.c:186 (discriminator 1)
                if(ty<1||ty>30)test[ty*16+tx]=0;
    2b10:	00078023          	sb	zero,0(a5)
    2b14:	e3dff06f          	j	2950 <pipeline+0x117c>

00002b18 <SysTick_Handler>:
SysTick_Handler():
d:\PDS\test\Sparrow_RISC-V\MRS\obj/../app/trap_handler.c:23
//定时器中断服务程序
void SysTick_Handler() __attribute__((interrupt("machine")));
void SysTick_Handler()
{
    //printf("interrupt tcmp in original function\n");
}
    2b18:	30200073          	mret

00002b1c <HardFault_Handler>:
HardFault_Handler():
d:\PDS\test\Sparrow_RISC-V\MRS\obj/../app/trap_handler.c:38 (discriminator 1)

//硬件错误引发异常
void HardFault_Handler() __attribute__((interrupt("machine")));
void HardFault_Handler()
{
    while(1);
    2b1c:	0000006f          	j	2b1c <HardFault_Handler>

00002b20 <PLIC1_FPIOA_ELI0_Handler>:
PLIC1_FPIOA_ELI0_Handler():
d:\PDS\test\Sparrow_RISC-V\MRS\obj/../app/trap_handler.c:43
}

void PLIC1_FPIOA_ELI0_Handler() __attribute__((interrupt("machine")));
void PLIC1_FPIOA_ELI0_Handler()
{
    2b20:	fc010113          	addi	sp,sp,-64
    2b24:	02a12623          	sw	a0,44(sp)
d:\PDS\test\Sparrow_RISC-V\MRS\obj/../app/trap_handler.c:44
    csr_msprint_string("PLIC1_Hdler\n");
    2b28:	20021537          	lui	a0,0x20021
    2b2c:	2d050513          	addi	a0,a0,720 # 200212d0 <template_data_0+0x800>
d:\PDS\test\Sparrow_RISC-V\MRS\obj/../app/trap_handler.c:43
{
    2b30:	02112e23          	sw	ra,60(sp)
    2b34:	02512c23          	sw	t0,56(sp)
    2b38:	02612a23          	sw	t1,52(sp)
    2b3c:	02712823          	sw	t2,48(sp)
    2b40:	02b12423          	sw	a1,40(sp)
    2b44:	02c12223          	sw	a2,36(sp)
    2b48:	02d12023          	sw	a3,32(sp)
    2b4c:	00e12e23          	sw	a4,28(sp)
    2b50:	00f12c23          	sw	a5,24(sp)
    2b54:	01012a23          	sw	a6,20(sp)
    2b58:	01112823          	sw	a7,16(sp)
    2b5c:	01c12623          	sw	t3,12(sp)
    2b60:	01d12423          	sw	t4,8(sp)
    2b64:	01e12223          	sw	t5,4(sp)
    2b68:	01f12023          	sw	t6,0(sp)
d:\PDS\test\Sparrow_RISC-V\MRS\obj/../app/trap_handler.c:44
    csr_msprint_string("PLIC1_Hdler\n");
    2b6c:	e94fd0ef          	jal	ra,200 <csr_msprint_string>
d:\PDS\test\Sparrow_RISC-V\MRS\obj/../app/trap_handler.c:45
}
    2b70:	03c12083          	lw	ra,60(sp)
    2b74:	03812283          	lw	t0,56(sp)
    2b78:	03412303          	lw	t1,52(sp)
    2b7c:	03012383          	lw	t2,48(sp)
    2b80:	02c12503          	lw	a0,44(sp)
    2b84:	02812583          	lw	a1,40(sp)
    2b88:	02412603          	lw	a2,36(sp)
    2b8c:	02012683          	lw	a3,32(sp)
    2b90:	01c12703          	lw	a4,28(sp)
    2b94:	01812783          	lw	a5,24(sp)
    2b98:	01412803          	lw	a6,20(sp)
    2b9c:	01012883          	lw	a7,16(sp)
    2ba0:	00c12e03          	lw	t3,12(sp)
    2ba4:	00812e83          	lw	t4,8(sp)
    2ba8:	00412f03          	lw	t5,4(sp)
    2bac:	00012f83          	lw	t6,0(sp)
    2bb0:	04010113          	addi	sp,sp,64
    2bb4:	30200073          	mret

00002bb8 <PLIC2_FPIOA_ELI1_Handler>:
PLIC2_FPIOA_ELI1_Handler():
d:\PDS\test\Sparrow_RISC-V\MRS\obj/../app/trap_handler.c:49

void PLIC2_FPIOA_ELI1_Handler() __attribute__((interrupt("machine")));
void PLIC2_FPIOA_ELI1_Handler()
{
    2bb8:	fc010113          	addi	sp,sp,-64
    2bbc:	02a12623          	sw	a0,44(sp)
d:\PDS\test\Sparrow_RISC-V\MRS\obj/../app/trap_handler.c:50
    csr_msprint_string("PLIC2_Hdler\n");
    2bc0:	20021537          	lui	a0,0x20021
    2bc4:	2e050513          	addi	a0,a0,736 # 200212e0 <template_data_0+0x810>
d:\PDS\test\Sparrow_RISC-V\MRS\obj/../app/trap_handler.c:49
{
    2bc8:	02112e23          	sw	ra,60(sp)
    2bcc:	02512c23          	sw	t0,56(sp)
    2bd0:	02612a23          	sw	t1,52(sp)
    2bd4:	02712823          	sw	t2,48(sp)
    2bd8:	02b12423          	sw	a1,40(sp)
    2bdc:	02c12223          	sw	a2,36(sp)
    2be0:	02d12023          	sw	a3,32(sp)
    2be4:	00e12e23          	sw	a4,28(sp)
    2be8:	00f12c23          	sw	a5,24(sp)
    2bec:	01012a23          	sw	a6,20(sp)
    2bf0:	01112823          	sw	a7,16(sp)
    2bf4:	01c12623          	sw	t3,12(sp)
    2bf8:	01d12423          	sw	t4,8(sp)
    2bfc:	01e12223          	sw	t5,4(sp)
    2c00:	01f12023          	sw	t6,0(sp)
d:\PDS\test\Sparrow_RISC-V\MRS\obj/../app/trap_handler.c:50
    csr_msprint_string("PLIC2_Hdler\n");
    2c04:	dfcfd0ef          	jal	ra,200 <csr_msprint_string>
d:\PDS\test\Sparrow_RISC-V\MRS\obj/../app/trap_handler.c:51
}
    2c08:	03c12083          	lw	ra,60(sp)
    2c0c:	03812283          	lw	t0,56(sp)
    2c10:	03412303          	lw	t1,52(sp)
    2c14:	03012383          	lw	t2,48(sp)
    2c18:	02c12503          	lw	a0,44(sp)
    2c1c:	02812583          	lw	a1,40(sp)
    2c20:	02412603          	lw	a2,36(sp)
    2c24:	02012683          	lw	a3,32(sp)
    2c28:	01c12703          	lw	a4,28(sp)
    2c2c:	01812783          	lw	a5,24(sp)
    2c30:	01412803          	lw	a6,20(sp)
    2c34:	01012883          	lw	a7,16(sp)
    2c38:	00c12e03          	lw	t3,12(sp)
    2c3c:	00812e83          	lw	t4,8(sp)
    2c40:	00412f03          	lw	t5,4(sp)
    2c44:	00012f83          	lw	t6,0(sp)
    2c48:	04010113          	addi	sp,sp,64
    2c4c:	30200073          	mret

00002c50 <PLIC3_FPIOA_ELI2_Handler>:
PLIC3_FPIOA_ELI2_Handler():
d:\PDS\test\Sparrow_RISC-V\MRS\obj/../app/trap_handler.c:55

void PLIC3_FPIOA_ELI2_Handler() __attribute__((interrupt("machine")));
void PLIC3_FPIOA_ELI2_Handler()
{
    2c50:	fc010113          	addi	sp,sp,-64
    2c54:	02a12623          	sw	a0,44(sp)
d:\PDS\test\Sparrow_RISC-V\MRS\obj/../app/trap_handler.c:56
    csr_msprint_string("PLIC3_Hdler\n");
    2c58:	20021537          	lui	a0,0x20021
    2c5c:	2f050513          	addi	a0,a0,752 # 200212f0 <template_data_0+0x820>
d:\PDS\test\Sparrow_RISC-V\MRS\obj/../app/trap_handler.c:55
{
    2c60:	02112e23          	sw	ra,60(sp)
    2c64:	02512c23          	sw	t0,56(sp)
    2c68:	02612a23          	sw	t1,52(sp)
    2c6c:	02712823          	sw	t2,48(sp)
    2c70:	02b12423          	sw	a1,40(sp)
    2c74:	02c12223          	sw	a2,36(sp)
    2c78:	02d12023          	sw	a3,32(sp)
    2c7c:	00e12e23          	sw	a4,28(sp)
    2c80:	00f12c23          	sw	a5,24(sp)
    2c84:	01012a23          	sw	a6,20(sp)
    2c88:	01112823          	sw	a7,16(sp)
    2c8c:	01c12623          	sw	t3,12(sp)
    2c90:	01d12423          	sw	t4,8(sp)
    2c94:	01e12223          	sw	t5,4(sp)
    2c98:	01f12023          	sw	t6,0(sp)
d:\PDS\test\Sparrow_RISC-V\MRS\obj/../app/trap_handler.c:56
    csr_msprint_string("PLIC3_Hdler\n");
    2c9c:	d64fd0ef          	jal	ra,200 <csr_msprint_string>
d:\PDS\test\Sparrow_RISC-V\MRS\obj/../app/trap_handler.c:57
}
    2ca0:	03c12083          	lw	ra,60(sp)
    2ca4:	03812283          	lw	t0,56(sp)
    2ca8:	03412303          	lw	t1,52(sp)
    2cac:	03012383          	lw	t2,48(sp)
    2cb0:	02c12503          	lw	a0,44(sp)
    2cb4:	02812583          	lw	a1,40(sp)
    2cb8:	02412603          	lw	a2,36(sp)
    2cbc:	02012683          	lw	a3,32(sp)
    2cc0:	01c12703          	lw	a4,28(sp)
    2cc4:	01812783          	lw	a5,24(sp)
    2cc8:	01412803          	lw	a6,20(sp)
    2ccc:	01012883          	lw	a7,16(sp)
    2cd0:	00c12e03          	lw	t3,12(sp)
    2cd4:	00812e83          	lw	t4,8(sp)
    2cd8:	00412f03          	lw	t5,4(sp)
    2cdc:	00012f83          	lw	t6,0(sp)
    2ce0:	04010113          	addi	sp,sp,64
    2ce4:	30200073          	mret

00002ce8 <PLIC4_FPIOA_ELI3_Handler>:
PLIC4_FPIOA_ELI3_Handler():
d:\PDS\test\Sparrow_RISC-V\MRS\obj/../app/trap_handler.c:61

void PLIC4_FPIOA_ELI3_Handler() __attribute__((interrupt("machine")));
void PLIC4_FPIOA_ELI3_Handler()
{
    2ce8:	fc010113          	addi	sp,sp,-64
    2cec:	02a12623          	sw	a0,44(sp)
d:\PDS\test\Sparrow_RISC-V\MRS\obj/../app/trap_handler.c:62
    csr_msprint_string("PLIC4_Hdler\n");
    2cf0:	20021537          	lui	a0,0x20021
    2cf4:	30050513          	addi	a0,a0,768 # 20021300 <template_data_0+0x830>
d:\PDS\test\Sparrow_RISC-V\MRS\obj/../app/trap_handler.c:61
{
    2cf8:	02112e23          	sw	ra,60(sp)
    2cfc:	02512c23          	sw	t0,56(sp)
    2d00:	02612a23          	sw	t1,52(sp)
    2d04:	02712823          	sw	t2,48(sp)
    2d08:	02b12423          	sw	a1,40(sp)
    2d0c:	02c12223          	sw	a2,36(sp)
    2d10:	02d12023          	sw	a3,32(sp)
    2d14:	00e12e23          	sw	a4,28(sp)
    2d18:	00f12c23          	sw	a5,24(sp)
    2d1c:	01012a23          	sw	a6,20(sp)
    2d20:	01112823          	sw	a7,16(sp)
    2d24:	01c12623          	sw	t3,12(sp)
    2d28:	01d12423          	sw	t4,8(sp)
    2d2c:	01e12223          	sw	t5,4(sp)
    2d30:	01f12023          	sw	t6,0(sp)
d:\PDS\test\Sparrow_RISC-V\MRS\obj/../app/trap_handler.c:62
    csr_msprint_string("PLIC4_Hdler\n");
    2d34:	cccfd0ef          	jal	ra,200 <csr_msprint_string>
d:\PDS\test\Sparrow_RISC-V\MRS\obj/../app/trap_handler.c:63
}
    2d38:	03c12083          	lw	ra,60(sp)
    2d3c:	03812283          	lw	t0,56(sp)
    2d40:	03412303          	lw	t1,52(sp)
    2d44:	03012383          	lw	t2,48(sp)
    2d48:	02c12503          	lw	a0,44(sp)
    2d4c:	02812583          	lw	a1,40(sp)
    2d50:	02412603          	lw	a2,36(sp)
    2d54:	02012683          	lw	a3,32(sp)
    2d58:	01c12703          	lw	a4,28(sp)
    2d5c:	01812783          	lw	a5,24(sp)
    2d60:	01412803          	lw	a6,20(sp)
    2d64:	01012883          	lw	a7,16(sp)
    2d68:	00c12e03          	lw	t3,12(sp)
    2d6c:	00812e83          	lw	t4,8(sp)
    2d70:	00412f03          	lw	t5,4(sp)
    2d74:	00012f83          	lw	t6,0(sp)
    2d78:	04010113          	addi	sp,sp,64
    2d7c:	30200073          	mret

00002d80 <PLIC5_UART0_TX_Handler>:
PLIC5_UART0_TX_Handler():
d:\PDS\test\Sparrow_RISC-V\MRS\obj/../app/trap_handler.c:67

void PLIC5_UART0_TX_Handler()   __attribute__((interrupt("machine")));
void PLIC5_UART0_TX_Handler()
{
    2d80:	fc010113          	addi	sp,sp,-64
    2d84:	02a12623          	sw	a0,44(sp)
d:\PDS\test\Sparrow_RISC-V\MRS\obj/../app/trap_handler.c:68
    csr_msprint_string("PLIC5_Hdler\n");
    2d88:	20021537          	lui	a0,0x20021
    2d8c:	31050513          	addi	a0,a0,784 # 20021310 <template_data_0+0x840>
d:\PDS\test\Sparrow_RISC-V\MRS\obj/../app/trap_handler.c:67
{
    2d90:	02112e23          	sw	ra,60(sp)
    2d94:	02512c23          	sw	t0,56(sp)
    2d98:	02612a23          	sw	t1,52(sp)
    2d9c:	02712823          	sw	t2,48(sp)
    2da0:	02b12423          	sw	a1,40(sp)
    2da4:	02c12223          	sw	a2,36(sp)
    2da8:	02d12023          	sw	a3,32(sp)
    2dac:	00e12e23          	sw	a4,28(sp)
    2db0:	00f12c23          	sw	a5,24(sp)
    2db4:	01012a23          	sw	a6,20(sp)
    2db8:	01112823          	sw	a7,16(sp)
    2dbc:	01c12623          	sw	t3,12(sp)
    2dc0:	01d12423          	sw	t4,8(sp)
    2dc4:	01e12223          	sw	t5,4(sp)
    2dc8:	01f12023          	sw	t6,0(sp)
d:\PDS\test\Sparrow_RISC-V\MRS\obj/../app/trap_handler.c:68
    csr_msprint_string("PLIC5_Hdler\n");
    2dcc:	c34fd0ef          	jal	ra,200 <csr_msprint_string>
d:\PDS\test\Sparrow_RISC-V\MRS\obj/../app/trap_handler.c:69
}
    2dd0:	03c12083          	lw	ra,60(sp)
    2dd4:	03812283          	lw	t0,56(sp)
    2dd8:	03412303          	lw	t1,52(sp)
    2ddc:	03012383          	lw	t2,48(sp)
    2de0:	02c12503          	lw	a0,44(sp)
    2de4:	02812583          	lw	a1,40(sp)
    2de8:	02412603          	lw	a2,36(sp)
    2dec:	02012683          	lw	a3,32(sp)
    2df0:	01c12703          	lw	a4,28(sp)
    2df4:	01812783          	lw	a5,24(sp)
    2df8:	01412803          	lw	a6,20(sp)
    2dfc:	01012883          	lw	a7,16(sp)
    2e00:	00c12e03          	lw	t3,12(sp)
    2e04:	00812e83          	lw	t4,8(sp)
    2e08:	00412f03          	lw	t5,4(sp)
    2e0c:	00012f83          	lw	t6,0(sp)
    2e10:	04010113          	addi	sp,sp,64
    2e14:	30200073          	mret

00002e18 <PLIC6_UART0_RX_Handler>:
PLIC6_UART0_RX_Handler():
d:\PDS\test\Sparrow_RISC-V\MRS\obj/../app/trap_handler.c:73

void PLIC6_UART0_RX_Handler()   __attribute__((interrupt("machine")));
void PLIC6_UART0_RX_Handler()
{
    2e18:	fc010113          	addi	sp,sp,-64
    2e1c:	02a12623          	sw	a0,44(sp)
d:\PDS\test\Sparrow_RISC-V\MRS\obj/../app/trap_handler.c:74
    csr_msprint_string("PLIC6_Hdler\n");
    2e20:	20021537          	lui	a0,0x20021
    2e24:	32050513          	addi	a0,a0,800 # 20021320 <template_data_0+0x850>
d:\PDS\test\Sparrow_RISC-V\MRS\obj/../app/trap_handler.c:73
{
    2e28:	02112e23          	sw	ra,60(sp)
    2e2c:	02512c23          	sw	t0,56(sp)
    2e30:	02612a23          	sw	t1,52(sp)
    2e34:	02712823          	sw	t2,48(sp)
    2e38:	02b12423          	sw	a1,40(sp)
    2e3c:	02c12223          	sw	a2,36(sp)
    2e40:	02d12023          	sw	a3,32(sp)
    2e44:	00e12e23          	sw	a4,28(sp)
    2e48:	00f12c23          	sw	a5,24(sp)
    2e4c:	01012a23          	sw	a6,20(sp)
    2e50:	01112823          	sw	a7,16(sp)
    2e54:	01c12623          	sw	t3,12(sp)
    2e58:	01d12423          	sw	t4,8(sp)
    2e5c:	01e12223          	sw	t5,4(sp)
    2e60:	01f12023          	sw	t6,0(sp)
d:\PDS\test\Sparrow_RISC-V\MRS\obj/../app/trap_handler.c:74
    csr_msprint_string("PLIC6_Hdler\n");
    2e64:	b9cfd0ef          	jal	ra,200 <csr_msprint_string>
d:\PDS\test\Sparrow_RISC-V\MRS\obj/../app/trap_handler.c:75
}
    2e68:	03c12083          	lw	ra,60(sp)
    2e6c:	03812283          	lw	t0,56(sp)
    2e70:	03412303          	lw	t1,52(sp)
    2e74:	03012383          	lw	t2,48(sp)
    2e78:	02c12503          	lw	a0,44(sp)
    2e7c:	02812583          	lw	a1,40(sp)
    2e80:	02412603          	lw	a2,36(sp)
    2e84:	02012683          	lw	a3,32(sp)
    2e88:	01c12703          	lw	a4,28(sp)
    2e8c:	01812783          	lw	a5,24(sp)
    2e90:	01412803          	lw	a6,20(sp)
    2e94:	01012883          	lw	a7,16(sp)
    2e98:	00c12e03          	lw	t3,12(sp)
    2e9c:	00812e83          	lw	t4,8(sp)
    2ea0:	00412f03          	lw	t5,4(sp)
    2ea4:	00012f83          	lw	t6,0(sp)
    2ea8:	04010113          	addi	sp,sp,64
    2eac:	30200073          	mret

00002eb0 <PLIC7_UART1_TX_Handler>:
PLIC7_UART1_TX_Handler():
d:\PDS\test\Sparrow_RISC-V\MRS\obj/../app/trap_handler.c:79

void PLIC7_UART1_TX_Handler()   __attribute__((interrupt("machine")));
void PLIC7_UART1_TX_Handler()
{
    2eb0:	fc010113          	addi	sp,sp,-64
    2eb4:	02a12623          	sw	a0,44(sp)
d:\PDS\test\Sparrow_RISC-V\MRS\obj/../app/trap_handler.c:80
    csr_msprint_string("PLIC7_Hdler\n");
    2eb8:	20021537          	lui	a0,0x20021
    2ebc:	33050513          	addi	a0,a0,816 # 20021330 <template_data_0+0x860>
d:\PDS\test\Sparrow_RISC-V\MRS\obj/../app/trap_handler.c:79
{
    2ec0:	02112e23          	sw	ra,60(sp)
    2ec4:	02512c23          	sw	t0,56(sp)
    2ec8:	02612a23          	sw	t1,52(sp)
    2ecc:	02712823          	sw	t2,48(sp)
    2ed0:	02b12423          	sw	a1,40(sp)
    2ed4:	02c12223          	sw	a2,36(sp)
    2ed8:	02d12023          	sw	a3,32(sp)
    2edc:	00e12e23          	sw	a4,28(sp)
    2ee0:	00f12c23          	sw	a5,24(sp)
    2ee4:	01012a23          	sw	a6,20(sp)
    2ee8:	01112823          	sw	a7,16(sp)
    2eec:	01c12623          	sw	t3,12(sp)
    2ef0:	01d12423          	sw	t4,8(sp)
    2ef4:	01e12223          	sw	t5,4(sp)
    2ef8:	01f12023          	sw	t6,0(sp)
d:\PDS\test\Sparrow_RISC-V\MRS\obj/../app/trap_handler.c:80
    csr_msprint_string("PLIC7_Hdler\n");
    2efc:	b04fd0ef          	jal	ra,200 <csr_msprint_string>
d:\PDS\test\Sparrow_RISC-V\MRS\obj/../app/trap_handler.c:81
}
    2f00:	03c12083          	lw	ra,60(sp)
    2f04:	03812283          	lw	t0,56(sp)
    2f08:	03412303          	lw	t1,52(sp)
    2f0c:	03012383          	lw	t2,48(sp)
    2f10:	02c12503          	lw	a0,44(sp)
    2f14:	02812583          	lw	a1,40(sp)
    2f18:	02412603          	lw	a2,36(sp)
    2f1c:	02012683          	lw	a3,32(sp)
    2f20:	01c12703          	lw	a4,28(sp)
    2f24:	01812783          	lw	a5,24(sp)
    2f28:	01412803          	lw	a6,20(sp)
    2f2c:	01012883          	lw	a7,16(sp)
    2f30:	00c12e03          	lw	t3,12(sp)
    2f34:	00812e83          	lw	t4,8(sp)
    2f38:	00412f03          	lw	t5,4(sp)
    2f3c:	00012f83          	lw	t6,0(sp)
    2f40:	04010113          	addi	sp,sp,64
    2f44:	30200073          	mret

00002f48 <PLIC8_UART1_RX_Handler>:
PLIC8_UART1_RX_Handler():
d:\PDS\test\Sparrow_RISC-V\MRS\obj/../app/trap_handler.c:85

void PLIC8_UART1_RX_Handler()   __attribute__((interrupt("machine")));
void PLIC8_UART1_RX_Handler()
{
    2f48:	fc010113          	addi	sp,sp,-64
    2f4c:	02a12623          	sw	a0,44(sp)
d:\PDS\test\Sparrow_RISC-V\MRS\obj/../app/trap_handler.c:86
    csr_msprint_string("PLIC8_Hdler\n");
    2f50:	20021537          	lui	a0,0x20021
    2f54:	34050513          	addi	a0,a0,832 # 20021340 <template_data_0+0x870>
d:\PDS\test\Sparrow_RISC-V\MRS\obj/../app/trap_handler.c:85
{
    2f58:	02112e23          	sw	ra,60(sp)
    2f5c:	02512c23          	sw	t0,56(sp)
    2f60:	02612a23          	sw	t1,52(sp)
    2f64:	02712823          	sw	t2,48(sp)
    2f68:	02b12423          	sw	a1,40(sp)
    2f6c:	02c12223          	sw	a2,36(sp)
    2f70:	02d12023          	sw	a3,32(sp)
    2f74:	00e12e23          	sw	a4,28(sp)
    2f78:	00f12c23          	sw	a5,24(sp)
    2f7c:	01012a23          	sw	a6,20(sp)
    2f80:	01112823          	sw	a7,16(sp)
    2f84:	01c12623          	sw	t3,12(sp)
    2f88:	01d12423          	sw	t4,8(sp)
    2f8c:	01e12223          	sw	t5,4(sp)
    2f90:	01f12023          	sw	t6,0(sp)
d:\PDS\test\Sparrow_RISC-V\MRS\obj/../app/trap_handler.c:86
    csr_msprint_string("PLIC8_Hdler\n");
    2f94:	a6cfd0ef          	jal	ra,200 <csr_msprint_string>
d:\PDS\test\Sparrow_RISC-V\MRS\obj/../app/trap_handler.c:87
}
    2f98:	03c12083          	lw	ra,60(sp)
    2f9c:	03812283          	lw	t0,56(sp)
    2fa0:	03412303          	lw	t1,52(sp)
    2fa4:	03012383          	lw	t2,48(sp)
    2fa8:	02c12503          	lw	a0,44(sp)
    2fac:	02812583          	lw	a1,40(sp)
    2fb0:	02412603          	lw	a2,36(sp)
    2fb4:	02012683          	lw	a3,32(sp)
    2fb8:	01c12703          	lw	a4,28(sp)
    2fbc:	01812783          	lw	a5,24(sp)
    2fc0:	01412803          	lw	a6,20(sp)
    2fc4:	01012883          	lw	a7,16(sp)
    2fc8:	00c12e03          	lw	t3,12(sp)
    2fcc:	00812e83          	lw	t4,8(sp)
    2fd0:	00412f03          	lw	t5,4(sp)
    2fd4:	00012f83          	lw	t6,0(sp)
    2fd8:	04010113          	addi	sp,sp,64
    2fdc:	30200073          	mret

00002fe0 <PLIC9_TIMER0_OF_Handler>:
PLIC9_TIMER0_OF_Handler():
d:\PDS\test\Sparrow_RISC-V\MRS\obj/../app/trap_handler.c:91

void PLIC9_TIMER0_OF_Handler()  __attribute__((interrupt("machine")));
void PLIC9_TIMER0_OF_Handler()
{
    2fe0:	fc010113          	addi	sp,sp,-64
    2fe4:	02a12623          	sw	a0,44(sp)
d:\PDS\test\Sparrow_RISC-V\MRS\obj/../app/trap_handler.c:92
    csr_msprint_string("PLIC9_Hdler\n");
    2fe8:	20021537          	lui	a0,0x20021
    2fec:	35050513          	addi	a0,a0,848 # 20021350 <template_data_0+0x880>
d:\PDS\test\Sparrow_RISC-V\MRS\obj/../app/trap_handler.c:91
{
    2ff0:	02112e23          	sw	ra,60(sp)
    2ff4:	02512c23          	sw	t0,56(sp)
    2ff8:	02612a23          	sw	t1,52(sp)
    2ffc:	02712823          	sw	t2,48(sp)
    3000:	02b12423          	sw	a1,40(sp)
    3004:	02c12223          	sw	a2,36(sp)
    3008:	02d12023          	sw	a3,32(sp)
    300c:	00e12e23          	sw	a4,28(sp)
    3010:	00f12c23          	sw	a5,24(sp)
    3014:	01012a23          	sw	a6,20(sp)
    3018:	01112823          	sw	a7,16(sp)
    301c:	01c12623          	sw	t3,12(sp)
    3020:	01d12423          	sw	t4,8(sp)
    3024:	01e12223          	sw	t5,4(sp)
    3028:	01f12023          	sw	t6,0(sp)
d:\PDS\test\Sparrow_RISC-V\MRS\obj/../app/trap_handler.c:92
    csr_msprint_string("PLIC9_Hdler\n");
    302c:	9d4fd0ef          	jal	ra,200 <csr_msprint_string>
d:\PDS\test\Sparrow_RISC-V\MRS\obj/../app/trap_handler.c:93
}
    3030:	03c12083          	lw	ra,60(sp)
    3034:	03812283          	lw	t0,56(sp)
    3038:	03412303          	lw	t1,52(sp)
    303c:	03012383          	lw	t2,48(sp)
    3040:	02c12503          	lw	a0,44(sp)
    3044:	02812583          	lw	a1,40(sp)
    3048:	02412603          	lw	a2,36(sp)
    304c:	02012683          	lw	a3,32(sp)
    3050:	01c12703          	lw	a4,28(sp)
    3054:	01812783          	lw	a5,24(sp)
    3058:	01412803          	lw	a6,20(sp)
    305c:	01012883          	lw	a7,16(sp)
    3060:	00c12e03          	lw	t3,12(sp)
    3064:	00812e83          	lw	t4,8(sp)
    3068:	00412f03          	lw	t5,4(sp)
    306c:	00012f83          	lw	t6,0(sp)
    3070:	04010113          	addi	sp,sp,64
    3074:	30200073          	mret

00003078 <PLIC10_SPI0_END_Handler>:
PLIC10_SPI0_END_Handler():
d:\PDS\test\Sparrow_RISC-V\MRS\obj/../app/trap_handler.c:97

void PLIC10_SPI0_END_Handler()  __attribute__((interrupt("machine")));
void PLIC10_SPI0_END_Handler()
{
    3078:	fc010113          	addi	sp,sp,-64
    307c:	02a12623          	sw	a0,44(sp)
d:\PDS\test\Sparrow_RISC-V\MRS\obj/../app/trap_handler.c:98
    csr_msprint_string("PLIC10_Hdler\n");
    3080:	20021537          	lui	a0,0x20021
    3084:	36050513          	addi	a0,a0,864 # 20021360 <template_data_0+0x890>
d:\PDS\test\Sparrow_RISC-V\MRS\obj/../app/trap_handler.c:97
{
    3088:	02112e23          	sw	ra,60(sp)
    308c:	02512c23          	sw	t0,56(sp)
    3090:	02612a23          	sw	t1,52(sp)
    3094:	02712823          	sw	t2,48(sp)
    3098:	02b12423          	sw	a1,40(sp)
    309c:	02c12223          	sw	a2,36(sp)
    30a0:	02d12023          	sw	a3,32(sp)
    30a4:	00e12e23          	sw	a4,28(sp)
    30a8:	00f12c23          	sw	a5,24(sp)
    30ac:	01012a23          	sw	a6,20(sp)
    30b0:	01112823          	sw	a7,16(sp)
    30b4:	01c12623          	sw	t3,12(sp)
    30b8:	01d12423          	sw	t4,8(sp)
    30bc:	01e12223          	sw	t5,4(sp)
    30c0:	01f12023          	sw	t6,0(sp)
d:\PDS\test\Sparrow_RISC-V\MRS\obj/../app/trap_handler.c:98
    csr_msprint_string("PLIC10_Hdler\n");
    30c4:	93cfd0ef          	jal	ra,200 <csr_msprint_string>
d:\PDS\test\Sparrow_RISC-V\MRS\obj/../app/trap_handler.c:99
}
    30c8:	03c12083          	lw	ra,60(sp)
    30cc:	03812283          	lw	t0,56(sp)
    30d0:	03412303          	lw	t1,52(sp)
    30d4:	03012383          	lw	t2,48(sp)
    30d8:	02c12503          	lw	a0,44(sp)
    30dc:	02812583          	lw	a1,40(sp)
    30e0:	02412603          	lw	a2,36(sp)
    30e4:	02012683          	lw	a3,32(sp)
    30e8:	01c12703          	lw	a4,28(sp)
    30ec:	01812783          	lw	a5,24(sp)
    30f0:	01412803          	lw	a6,20(sp)
    30f4:	01012883          	lw	a7,16(sp)
    30f8:	00c12e03          	lw	t3,12(sp)
    30fc:	00812e83          	lw	t4,8(sp)
    3100:	00412f03          	lw	t5,4(sp)
    3104:	00012f83          	lw	t6,0(sp)
    3108:	04010113          	addi	sp,sp,64
    310c:	30200073          	mret

00003110 <__udivdi3>:
__udivdi3():
    3110:	00060813          	mv	a6,a2
    3114:	00050893          	mv	a7,a0
    3118:	00058713          	mv	a4,a1
    311c:	0e069263          	bnez	a3,3200 <__udivdi3+0xf0>
    3120:	14c5f263          	bgeu	a1,a2,3264 <__udivdi3+0x154>
    3124:	000107b7          	lui	a5,0x10
    3128:	20f66263          	bltu	a2,a5,332c <__udivdi3+0x21c>
    312c:	010007b7          	lui	a5,0x1000
    3130:	00f637b3          	sltu	a5,a2,a5
    3134:	40f007b3          	neg	a5,a5
    3138:	ff87f793          	andi	a5,a5,-8
    313c:	01878793          	addi	a5,a5,24 # 1000018 <_app_prog_size+0xfc0018>
    3140:	00f65333          	srl	t1,a2,a5
    3144:	2001e697          	auipc	a3,0x2001e
    3148:	22c68693          	addi	a3,a3,556 # 20021370 <__clz_tab>
    314c:	006686b3          	add	a3,a3,t1
    3150:	0006c683          	lbu	a3,0(a3)
    3154:	02000313          	li	t1,32
    3158:	00f687b3          	add	a5,a3,a5
    315c:	40f306b3          	sub	a3,t1,a5
    3160:	00f30c63          	beq	t1,a5,3178 <__udivdi3+0x68>
    3164:	00d59733          	sll	a4,a1,a3
    3168:	00f557b3          	srl	a5,a0,a5
    316c:	00d61833          	sll	a6,a2,a3
    3170:	00e7e733          	or	a4,a5,a4
    3174:	00d518b3          	sll	a7,a0,a3
    3178:	01085613          	srli	a2,a6,0x10
    317c:	02c75533          	divu	a0,a4,a2
    3180:	01081693          	slli	a3,a6,0x10
    3184:	0106d693          	srli	a3,a3,0x10
    3188:	0108d793          	srli	a5,a7,0x10
    318c:	02c77733          	remu	a4,a4,a2
    3190:	02a685b3          	mul	a1,a3,a0
    3194:	01071713          	slli	a4,a4,0x10
    3198:	00e7e7b3          	or	a5,a5,a4
    319c:	00b7fc63          	bgeu	a5,a1,31b4 <__udivdi3+0xa4>
    31a0:	00f807b3          	add	a5,a6,a5
    31a4:	fff50713          	addi	a4,a0,-1
    31a8:	0107e463          	bltu	a5,a6,31b0 <__udivdi3+0xa0>
    31ac:	40b7e263          	bltu	a5,a1,35b0 <__udivdi3+0x4a0>
    31b0:	00070513          	mv	a0,a4
    31b4:	40b787b3          	sub	a5,a5,a1
    31b8:	02c7d733          	divu	a4,a5,a2
    31bc:	01089893          	slli	a7,a7,0x10
    31c0:	0108d893          	srli	a7,a7,0x10
    31c4:	02c7f7b3          	remu	a5,a5,a2
    31c8:	02e686b3          	mul	a3,a3,a4
    31cc:	01079793          	slli	a5,a5,0x10
    31d0:	00f8e8b3          	or	a7,a7,a5
    31d4:	00d8fe63          	bgeu	a7,a3,31f0 <__udivdi3+0xe0>
    31d8:	011808b3          	add	a7,a6,a7
    31dc:	fff70793          	addi	a5,a4,-1
    31e0:	0108e663          	bltu	a7,a6,31ec <__udivdi3+0xdc>
    31e4:	ffe70713          	addi	a4,a4,-2
    31e8:	00d8e463          	bltu	a7,a3,31f0 <__udivdi3+0xe0>
    31ec:	00078713          	mv	a4,a5
    31f0:	01051513          	slli	a0,a0,0x10
    31f4:	00e56533          	or	a0,a0,a4
    31f8:	00000593          	li	a1,0
    31fc:	00008067          	ret
    3200:	00d5f863          	bgeu	a1,a3,3210 <__udivdi3+0x100>
    3204:	00000593          	li	a1,0
    3208:	00000513          	li	a0,0
    320c:	00008067          	ret
    3210:	000107b7          	lui	a5,0x10
    3214:	1ef6ea63          	bltu	a3,a5,3408 <__udivdi3+0x2f8>
    3218:	010007b7          	lui	a5,0x1000
    321c:	00f6b7b3          	sltu	a5,a3,a5
    3220:	40f007b3          	neg	a5,a5
    3224:	ff87f793          	andi	a5,a5,-8
    3228:	01878793          	addi	a5,a5,24 # 1000018 <_app_prog_size+0xfc0018>
    322c:	00f6d833          	srl	a6,a3,a5
    3230:	2001e717          	auipc	a4,0x2001e
    3234:	14070713          	addi	a4,a4,320 # 20021370 <__clz_tab>
    3238:	01070733          	add	a4,a4,a6
    323c:	00074703          	lbu	a4,0(a4)
    3240:	02000893          	li	a7,32
    3244:	00f70733          	add	a4,a4,a5
    3248:	40e88833          	sub	a6,a7,a4
    324c:	1ee89663          	bne	a7,a4,3438 <__udivdi3+0x328>
    3250:	32b6e463          	bltu	a3,a1,3578 <__udivdi3+0x468>
    3254:	00c53533          	sltu	a0,a0,a2
    3258:	00154513          	xori	a0,a0,1
    325c:	00000593          	li	a1,0
    3260:	00008067          	ret
    3264:	0c060c63          	beqz	a2,333c <__udivdi3+0x22c>
    3268:	000107b7          	lui	a5,0x10
    326c:	2ef67c63          	bgeu	a2,a5,3564 <__udivdi3+0x454>
    3270:	10063713          	sltiu	a4,a2,256
    3274:	00174713          	xori	a4,a4,1
    3278:	00371713          	slli	a4,a4,0x3
    327c:	00e656b3          	srl	a3,a2,a4
    3280:	2001e797          	auipc	a5,0x2001e
    3284:	0f078793          	addi	a5,a5,240 # 20021370 <__clz_tab>
    3288:	00d787b3          	add	a5,a5,a3
    328c:	0007c783          	lbu	a5,0(a5)
    3290:	02000693          	li	a3,32
    3294:	00e787b3          	add	a5,a5,a4
    3298:	40f68eb3          	sub	t4,a3,a5
    329c:	0cf69463          	bne	a3,a5,3364 <__udivdi3+0x254>
    32a0:	40c587b3          	sub	a5,a1,a2
    32a4:	01065693          	srli	a3,a2,0x10
    32a8:	01061613          	slli	a2,a2,0x10
    32ac:	01065613          	srli	a2,a2,0x10
    32b0:	00100593          	li	a1,1
    32b4:	02d7d533          	divu	a0,a5,a3
    32b8:	0108d713          	srli	a4,a7,0x10
    32bc:	02d7f7b3          	remu	a5,a5,a3
    32c0:	02c50333          	mul	t1,a0,a2
    32c4:	01079793          	slli	a5,a5,0x10
    32c8:	00f767b3          	or	a5,a4,a5
    32cc:	0067fc63          	bgeu	a5,t1,32e4 <__udivdi3+0x1d4>
    32d0:	00f807b3          	add	a5,a6,a5
    32d4:	fff50713          	addi	a4,a0,-1
    32d8:	0107e463          	bltu	a5,a6,32e0 <__udivdi3+0x1d0>
    32dc:	2c67e463          	bltu	a5,t1,35a4 <__udivdi3+0x494>
    32e0:	00070513          	mv	a0,a4
    32e4:	406787b3          	sub	a5,a5,t1
    32e8:	02d7d733          	divu	a4,a5,a3
    32ec:	01089893          	slli	a7,a7,0x10
    32f0:	0108d893          	srli	a7,a7,0x10
    32f4:	02d7f7b3          	remu	a5,a5,a3
    32f8:	02c70633          	mul	a2,a4,a2
    32fc:	01079793          	slli	a5,a5,0x10
    3300:	00f8e8b3          	or	a7,a7,a5
    3304:	00c8fe63          	bgeu	a7,a2,3320 <__udivdi3+0x210>
    3308:	011808b3          	add	a7,a6,a7
    330c:	fff70793          	addi	a5,a4,-1
    3310:	0108e663          	bltu	a7,a6,331c <__udivdi3+0x20c>
    3314:	ffe70713          	addi	a4,a4,-2
    3318:	00c8e463          	bltu	a7,a2,3320 <__udivdi3+0x210>
    331c:	00078713          	mv	a4,a5
    3320:	01051513          	slli	a0,a0,0x10
    3324:	00e56533          	or	a0,a0,a4
    3328:	00008067          	ret
    332c:	10063793          	sltiu	a5,a2,256
    3330:	0017c793          	xori	a5,a5,1
    3334:	00379793          	slli	a5,a5,0x3
    3338:	e09ff06f          	j	3140 <__udivdi3+0x30>
    333c:	00000693          	li	a3,0
    3340:	2001e797          	auipc	a5,0x2001e
    3344:	03078793          	addi	a5,a5,48 # 20021370 <__clz_tab>
    3348:	00d787b3          	add	a5,a5,a3
    334c:	0007c783          	lbu	a5,0(a5)
    3350:	00000713          	li	a4,0
    3354:	02000693          	li	a3,32
    3358:	00e787b3          	add	a5,a5,a4
    335c:	40f68eb3          	sub	t4,a3,a5
    3360:	f4f680e3          	beq	a3,a5,32a0 <__udivdi3+0x190>
    3364:	01d61833          	sll	a6,a2,t4
    3368:	00f5d333          	srl	t1,a1,a5
    336c:	01085693          	srli	a3,a6,0x10
    3370:	02d35e33          	divu	t3,t1,a3
    3374:	01081613          	slli	a2,a6,0x10
    3378:	01d595b3          	sll	a1,a1,t4
    337c:	01065613          	srli	a2,a2,0x10
    3380:	00f557b3          	srl	a5,a0,a5
    3384:	00b7e7b3          	or	a5,a5,a1
    3388:	0107d713          	srli	a4,a5,0x10
    338c:	01d518b3          	sll	a7,a0,t4
    3390:	02d37333          	remu	t1,t1,a3
    3394:	03c605b3          	mul	a1,a2,t3
    3398:	01031313          	slli	t1,t1,0x10
    339c:	00676733          	or	a4,a4,t1
    33a0:	00b77e63          	bgeu	a4,a1,33bc <__udivdi3+0x2ac>
    33a4:	00e80733          	add	a4,a6,a4
    33a8:	fffe0513          	addi	a0,t3,-1
    33ac:	1f076463          	bltu	a4,a6,3594 <__udivdi3+0x484>
    33b0:	1eb77263          	bgeu	a4,a1,3594 <__udivdi3+0x484>
    33b4:	ffee0e13          	addi	t3,t3,-2
    33b8:	01070733          	add	a4,a4,a6
    33bc:	40b70733          	sub	a4,a4,a1
    33c0:	02d75533          	divu	a0,a4,a3
    33c4:	01079793          	slli	a5,a5,0x10
    33c8:	0107d793          	srli	a5,a5,0x10
    33cc:	02d77733          	remu	a4,a4,a3
    33d0:	02a60333          	mul	t1,a2,a0
    33d4:	01071713          	slli	a4,a4,0x10
    33d8:	00e7e7b3          	or	a5,a5,a4
    33dc:	0067fe63          	bgeu	a5,t1,33f8 <__udivdi3+0x2e8>
    33e0:	00f807b3          	add	a5,a6,a5
    33e4:	fff50713          	addi	a4,a0,-1
    33e8:	1907ee63          	bltu	a5,a6,3584 <__udivdi3+0x474>
    33ec:	1867fc63          	bgeu	a5,t1,3584 <__udivdi3+0x474>
    33f0:	ffe50513          	addi	a0,a0,-2
    33f4:	010787b3          	add	a5,a5,a6
    33f8:	010e1593          	slli	a1,t3,0x10
    33fc:	406787b3          	sub	a5,a5,t1
    3400:	00a5e5b3          	or	a1,a1,a0
    3404:	eb1ff06f          	j	32b4 <__udivdi3+0x1a4>
    3408:	1006b793          	sltiu	a5,a3,256
    340c:	0017c793          	xori	a5,a5,1
    3410:	00379793          	slli	a5,a5,0x3
    3414:	00f6d833          	srl	a6,a3,a5
    3418:	2001e717          	auipc	a4,0x2001e
    341c:	f5870713          	addi	a4,a4,-168 # 20021370 <__clz_tab>
    3420:	01070733          	add	a4,a4,a6
    3424:	00074703          	lbu	a4,0(a4)
    3428:	02000893          	li	a7,32
    342c:	00f70733          	add	a4,a4,a5
    3430:	40e88833          	sub	a6,a7,a4
    3434:	e0e88ee3          	beq	a7,a4,3250 <__udivdi3+0x140>
    3438:	00e65e33          	srl	t3,a2,a4
    343c:	010696b3          	sll	a3,a3,a6
    3440:	00de6e33          	or	t3,t3,a3
    3444:	00e5d8b3          	srl	a7,a1,a4
    3448:	010e5e93          	srli	t4,t3,0x10
    344c:	03d8d7b3          	divu	a5,a7,t4
    3450:	010e1313          	slli	t1,t3,0x10
    3454:	010595b3          	sll	a1,a1,a6
    3458:	01035313          	srli	t1,t1,0x10
    345c:	00e55733          	srl	a4,a0,a4
    3460:	00b76733          	or	a4,a4,a1
    3464:	01075693          	srli	a3,a4,0x10
    3468:	01061633          	sll	a2,a2,a6
    346c:	03d8f8b3          	remu	a7,a7,t4
    3470:	02f305b3          	mul	a1,t1,a5
    3474:	01089893          	slli	a7,a7,0x10
    3478:	0116e6b3          	or	a3,a3,a7
    347c:	00b6fe63          	bgeu	a3,a1,3498 <__udivdi3+0x388>
    3480:	00de06b3          	add	a3,t3,a3
    3484:	fff78893          	addi	a7,a5,-1
    3488:	11c6ea63          	bltu	a3,t3,359c <__udivdi3+0x48c>
    348c:	10b6f863          	bgeu	a3,a1,359c <__udivdi3+0x48c>
    3490:	ffe78793          	addi	a5,a5,-2
    3494:	01c686b3          	add	a3,a3,t3
    3498:	40b686b3          	sub	a3,a3,a1
    349c:	03d6d5b3          	divu	a1,a3,t4
    34a0:	01071713          	slli	a4,a4,0x10
    34a4:	01075713          	srli	a4,a4,0x10
    34a8:	03d6f6b3          	remu	a3,a3,t4
    34ac:	02b308b3          	mul	a7,t1,a1
    34b0:	01069693          	slli	a3,a3,0x10
    34b4:	00d76733          	or	a4,a4,a3
    34b8:	01177e63          	bgeu	a4,a7,34d4 <__udivdi3+0x3c4>
    34bc:	00ee0733          	add	a4,t3,a4
    34c0:	fff58693          	addi	a3,a1,-1
    34c4:	0dc76463          	bltu	a4,t3,358c <__udivdi3+0x47c>
    34c8:	0d177263          	bgeu	a4,a7,358c <__udivdi3+0x47c>
    34cc:	ffe58593          	addi	a1,a1,-2
    34d0:	01c70733          	add	a4,a4,t3
    34d4:	01079793          	slli	a5,a5,0x10
    34d8:	00010eb7          	lui	t4,0x10
    34dc:	00b7e7b3          	or	a5,a5,a1
    34e0:	fffe8693          	addi	a3,t4,-1 # ffff <__stack_size+0xbfff>
    34e4:	00d7f5b3          	and	a1,a5,a3
    34e8:	0107d313          	srli	t1,a5,0x10
    34ec:	00d676b3          	and	a3,a2,a3
    34f0:	01065613          	srli	a2,a2,0x10
    34f4:	02d58e33          	mul	t3,a1,a3
    34f8:	41170733          	sub	a4,a4,a7
    34fc:	02d306b3          	mul	a3,t1,a3
    3500:	010e5893          	srli	a7,t3,0x10
    3504:	02c585b3          	mul	a1,a1,a2
    3508:	00d585b3          	add	a1,a1,a3
    350c:	00b885b3          	add	a1,a7,a1
    3510:	02c30333          	mul	t1,t1,a2
    3514:	00d5f463          	bgeu	a1,a3,351c <__udivdi3+0x40c>
    3518:	01d30333          	add	t1,t1,t4
    351c:	0105d693          	srli	a3,a1,0x10
    3520:	006686b3          	add	a3,a3,t1
    3524:	02d76a63          	bltu	a4,a3,3558 <__udivdi3+0x448>
    3528:	00d70863          	beq	a4,a3,3538 <__udivdi3+0x428>
    352c:	00078513          	mv	a0,a5
    3530:	00000593          	li	a1,0
    3534:	00008067          	ret
    3538:	000106b7          	lui	a3,0x10
    353c:	fff68693          	addi	a3,a3,-1 # ffff <__stack_size+0xbfff>
    3540:	00d5f733          	and	a4,a1,a3
    3544:	01071713          	slli	a4,a4,0x10
    3548:	00de7e33          	and	t3,t3,a3
    354c:	01051533          	sll	a0,a0,a6
    3550:	01c70733          	add	a4,a4,t3
    3554:	fce57ce3          	bgeu	a0,a4,352c <__udivdi3+0x41c>
    3558:	fff78513          	addi	a0,a5,-1
    355c:	00000593          	li	a1,0
    3560:	00008067          	ret
    3564:	010007b7          	lui	a5,0x1000
    3568:	04f67a63          	bgeu	a2,a5,35bc <__udivdi3+0x4ac>
    356c:	01065693          	srli	a3,a2,0x10
    3570:	01000713          	li	a4,16
    3574:	d0dff06f          	j	3280 <__udivdi3+0x170>
    3578:	00000593          	li	a1,0
    357c:	00100513          	li	a0,1
    3580:	00008067          	ret
    3584:	00070513          	mv	a0,a4
    3588:	e71ff06f          	j	33f8 <__udivdi3+0x2e8>
    358c:	00068593          	mv	a1,a3
    3590:	f45ff06f          	j	34d4 <__udivdi3+0x3c4>
    3594:	00050e13          	mv	t3,a0
    3598:	e25ff06f          	j	33bc <__udivdi3+0x2ac>
    359c:	00088793          	mv	a5,a7
    35a0:	ef9ff06f          	j	3498 <__udivdi3+0x388>
    35a4:	ffe50513          	addi	a0,a0,-2
    35a8:	010787b3          	add	a5,a5,a6
    35ac:	d39ff06f          	j	32e4 <__udivdi3+0x1d4>
    35b0:	ffe50513          	addi	a0,a0,-2
    35b4:	010787b3          	add	a5,a5,a6
    35b8:	bfdff06f          	j	31b4 <__udivdi3+0xa4>
    35bc:	01865693          	srli	a3,a2,0x18
    35c0:	01800713          	li	a4,24
    35c4:	cbdff06f          	j	3280 <__udivdi3+0x170>

000035c8 <__umoddi3>:
__umoddi3():
    35c8:	00060813          	mv	a6,a2
    35cc:	00050893          	mv	a7,a0
    35d0:	00058313          	mv	t1,a1
    35d4:	00058713          	mv	a4,a1
    35d8:	0c069a63          	bnez	a3,36ac <__umoddi3+0xe4>
    35dc:	12c5fe63          	bgeu	a1,a2,3718 <__umoddi3+0x150>
    35e0:	000107b7          	lui	a5,0x10
    35e4:	1ef66063          	bltu	a2,a5,37c4 <__umoddi3+0x1fc>
    35e8:	010007b7          	lui	a5,0x1000
    35ec:	00f637b3          	sltu	a5,a2,a5
    35f0:	40f007b3          	neg	a5,a5
    35f4:	ff87f793          	andi	a5,a5,-8
    35f8:	01878793          	addi	a5,a5,24 # 1000018 <_app_prog_size+0xfc0018>
    35fc:	00f65333          	srl	t1,a2,a5
    3600:	2001e697          	auipc	a3,0x2001e
    3604:	d7068693          	addi	a3,a3,-656 # 20021370 <__clz_tab>
    3608:	006686b3          	add	a3,a3,t1
    360c:	0006c683          	lbu	a3,0(a3)
    3610:	02000313          	li	t1,32
    3614:	00f687b3          	add	a5,a3,a5
    3618:	40f306b3          	sub	a3,t1,a5
    361c:	00f30c63          	beq	t1,a5,3634 <__umoddi3+0x6c>
    3620:	00d59733          	sll	a4,a1,a3
    3624:	00f557b3          	srl	a5,a0,a5
    3628:	00d61833          	sll	a6,a2,a3
    362c:	00e7e733          	or	a4,a5,a4
    3630:	00d518b3          	sll	a7,a0,a3
    3634:	01085593          	srli	a1,a6,0x10
    3638:	02b75633          	divu	a2,a4,a1
    363c:	01081313          	slli	t1,a6,0x10
    3640:	01035313          	srli	t1,t1,0x10
    3644:	0108d793          	srli	a5,a7,0x10
    3648:	02b77733          	remu	a4,a4,a1
    364c:	02660633          	mul	a2,a2,t1
    3650:	01071713          	slli	a4,a4,0x10
    3654:	00e7e7b3          	or	a5,a5,a4
    3658:	00c7f863          	bgeu	a5,a2,3668 <__umoddi3+0xa0>
    365c:	00f807b3          	add	a5,a6,a5
    3660:	0107e463          	bltu	a5,a6,3668 <__umoddi3+0xa0>
    3664:	3cc7e463          	bltu	a5,a2,3a2c <__umoddi3+0x464>
    3668:	40c787b3          	sub	a5,a5,a2
    366c:	02b7d733          	divu	a4,a5,a1
    3670:	01089513          	slli	a0,a7,0x10
    3674:	01055513          	srli	a0,a0,0x10
    3678:	02b7f7b3          	remu	a5,a5,a1
    367c:	02670733          	mul	a4,a4,t1
    3680:	01079793          	slli	a5,a5,0x10
    3684:	00f56533          	or	a0,a0,a5
    3688:	00e57a63          	bgeu	a0,a4,369c <__umoddi3+0xd4>
    368c:	00a80533          	add	a0,a6,a0
    3690:	01056663          	bltu	a0,a6,369c <__umoddi3+0xd4>
    3694:	00e57463          	bgeu	a0,a4,369c <__umoddi3+0xd4>
    3698:	01050533          	add	a0,a0,a6
    369c:	40e50533          	sub	a0,a0,a4
    36a0:	00d55533          	srl	a0,a0,a3
    36a4:	00000593          	li	a1,0
    36a8:	00008067          	ret
    36ac:	00d5f463          	bgeu	a1,a3,36b4 <__umoddi3+0xec>
    36b0:	00008067          	ret
    36b4:	000107b7          	lui	a5,0x10
    36b8:	1cf6e863          	bltu	a3,a5,3888 <__umoddi3+0x2c0>
    36bc:	010007b7          	lui	a5,0x1000
    36c0:	00f6b7b3          	sltu	a5,a3,a5
    36c4:	40f007b3          	neg	a5,a5
    36c8:	ff87f793          	andi	a5,a5,-8
    36cc:	01878793          	addi	a5,a5,24 # 1000018 <_app_prog_size+0xfc0018>
    36d0:	00f6d833          	srl	a6,a3,a5
    36d4:	2001e717          	auipc	a4,0x2001e
    36d8:	c9c70713          	addi	a4,a4,-868 # 20021370 <__clz_tab>
    36dc:	01070733          	add	a4,a4,a6
    36e0:	00074703          	lbu	a4,0(a4)
    36e4:	02000e13          	li	t3,32
    36e8:	00f70733          	add	a4,a4,a5
    36ec:	40ee0833          	sub	a6,t3,a4
    36f0:	1cee1463          	bne	t3,a4,38b8 <__umoddi3+0x2f0>
    36f4:	00b6e463          	bltu	a3,a1,36fc <__umoddi3+0x134>
    36f8:	00c56a63          	bltu	a0,a2,370c <__umoddi3+0x144>
    36fc:	40c508b3          	sub	a7,a0,a2
    3700:	40d586b3          	sub	a3,a1,a3
    3704:	01153333          	sltu	t1,a0,a7
    3708:	40668333          	sub	t1,a3,t1
    370c:	00088513          	mv	a0,a7
    3710:	00030593          	mv	a1,t1
    3714:	00008067          	ret
    3718:	0a060e63          	beqz	a2,37d4 <__umoddi3+0x20c>
    371c:	000107b7          	lui	a5,0x10
    3720:	2ef67463          	bgeu	a2,a5,3a08 <__umoddi3+0x440>
    3724:	10063713          	sltiu	a4,a2,256
    3728:	00174713          	xori	a4,a4,1
    372c:	00371713          	slli	a4,a4,0x3
    3730:	00e656b3          	srl	a3,a2,a4
    3734:	2001e797          	auipc	a5,0x2001e
    3738:	c3c78793          	addi	a5,a5,-964 # 20021370 <__clz_tab>
    373c:	00d787b3          	add	a5,a5,a3
    3740:	0007c783          	lbu	a5,0(a5)
    3744:	02000313          	li	t1,32
    3748:	00e787b3          	add	a5,a5,a4
    374c:	40f306b3          	sub	a3,t1,a5
    3750:	0af31663          	bne	t1,a5,37fc <__umoddi3+0x234>
    3754:	40c58733          	sub	a4,a1,a2
    3758:	01065313          	srli	t1,a2,0x10
    375c:	01061613          	slli	a2,a2,0x10
    3760:	01065613          	srli	a2,a2,0x10
    3764:	026755b3          	divu	a1,a4,t1
    3768:	0108d793          	srli	a5,a7,0x10
    376c:	02677733          	remu	a4,a4,t1
    3770:	02c585b3          	mul	a1,a1,a2
    3774:	01071713          	slli	a4,a4,0x10
    3778:	00e7e7b3          	or	a5,a5,a4
    377c:	00b7fa63          	bgeu	a5,a1,3790 <__umoddi3+0x1c8>
    3780:	00f807b3          	add	a5,a6,a5
    3784:	0107e663          	bltu	a5,a6,3790 <__umoddi3+0x1c8>
    3788:	00b7f463          	bgeu	a5,a1,3790 <__umoddi3+0x1c8>
    378c:	010787b3          	add	a5,a5,a6
    3790:	40b787b3          	sub	a5,a5,a1
    3794:	0267d733          	divu	a4,a5,t1
    3798:	01089893          	slli	a7,a7,0x10
    379c:	0108d893          	srli	a7,a7,0x10
    37a0:	0267f7b3          	remu	a5,a5,t1
    37a4:	02c70733          	mul	a4,a4,a2
    37a8:	01079513          	slli	a0,a5,0x10
    37ac:	00a8e533          	or	a0,a7,a0
    37b0:	ece56ee3          	bltu	a0,a4,368c <__umoddi3+0xc4>
    37b4:	40e50533          	sub	a0,a0,a4
    37b8:	00d55533          	srl	a0,a0,a3
    37bc:	00000593          	li	a1,0
    37c0:	00008067          	ret
    37c4:	10063793          	sltiu	a5,a2,256
    37c8:	0017c793          	xori	a5,a5,1
    37cc:	00379793          	slli	a5,a5,0x3
    37d0:	e2dff06f          	j	35fc <__umoddi3+0x34>
    37d4:	00000693          	li	a3,0
    37d8:	2001e797          	auipc	a5,0x2001e
    37dc:	b9878793          	addi	a5,a5,-1128 # 20021370 <__clz_tab>
    37e0:	00d787b3          	add	a5,a5,a3
    37e4:	0007c783          	lbu	a5,0(a5)
    37e8:	00000713          	li	a4,0
    37ec:	02000313          	li	t1,32
    37f0:	00e787b3          	add	a5,a5,a4
    37f4:	40f306b3          	sub	a3,t1,a5
    37f8:	f4f30ee3          	beq	t1,a5,3754 <__umoddi3+0x18c>
    37fc:	00d61833          	sll	a6,a2,a3
    3800:	00f5de33          	srl	t3,a1,a5
    3804:	01085313          	srli	t1,a6,0x10
    3808:	026e5eb3          	divu	t4,t3,t1
    380c:	01081613          	slli	a2,a6,0x10
    3810:	00d595b3          	sll	a1,a1,a3
    3814:	00f55733          	srl	a4,a0,a5
    3818:	01065613          	srli	a2,a2,0x10
    381c:	00b76733          	or	a4,a4,a1
    3820:	01075793          	srli	a5,a4,0x10
    3824:	00d518b3          	sll	a7,a0,a3
    3828:	026e7e33          	remu	t3,t3,t1
    382c:	02ce85b3          	mul	a1,t4,a2
    3830:	010e1e13          	slli	t3,t3,0x10
    3834:	01c7e7b3          	or	a5,a5,t3
    3838:	00b7fa63          	bgeu	a5,a1,384c <__umoddi3+0x284>
    383c:	00f807b3          	add	a5,a6,a5
    3840:	0107e663          	bltu	a5,a6,384c <__umoddi3+0x284>
    3844:	00b7f463          	bgeu	a5,a1,384c <__umoddi3+0x284>
    3848:	010787b3          	add	a5,a5,a6
    384c:	40b787b3          	sub	a5,a5,a1
    3850:	0267d5b3          	divu	a1,a5,t1
    3854:	01071713          	slli	a4,a4,0x10
    3858:	01075713          	srli	a4,a4,0x10
    385c:	0267f7b3          	remu	a5,a5,t1
    3860:	02c585b3          	mul	a1,a1,a2
    3864:	01079793          	slli	a5,a5,0x10
    3868:	00f76733          	or	a4,a4,a5
    386c:	00b77a63          	bgeu	a4,a1,3880 <__umoddi3+0x2b8>
    3870:	00e80733          	add	a4,a6,a4
    3874:	01076663          	bltu	a4,a6,3880 <__umoddi3+0x2b8>
    3878:	00b77463          	bgeu	a4,a1,3880 <__umoddi3+0x2b8>
    387c:	01070733          	add	a4,a4,a6
    3880:	40b70733          	sub	a4,a4,a1
    3884:	ee1ff06f          	j	3764 <__umoddi3+0x19c>
    3888:	1006b793          	sltiu	a5,a3,256
    388c:	0017c793          	xori	a5,a5,1
    3890:	00379793          	slli	a5,a5,0x3
    3894:	00f6d833          	srl	a6,a3,a5
    3898:	2001e717          	auipc	a4,0x2001e
    389c:	ad870713          	addi	a4,a4,-1320 # 20021370 <__clz_tab>
    38a0:	01070733          	add	a4,a4,a6
    38a4:	00074703          	lbu	a4,0(a4)
    38a8:	02000e13          	li	t3,32
    38ac:	00f70733          	add	a4,a4,a5
    38b0:	40ee0833          	sub	a6,t3,a4
    38b4:	e4ee00e3          	beq	t3,a4,36f4 <__umoddi3+0x12c>
    38b8:	010696b3          	sll	a3,a3,a6
    38bc:	00e658b3          	srl	a7,a2,a4
    38c0:	00d8e8b3          	or	a7,a7,a3
    38c4:	00e5de33          	srl	t3,a1,a4
    38c8:	0108df13          	srli	t5,a7,0x10
    38cc:	03ee57b3          	divu	a5,t3,t5
    38d0:	01089e93          	slli	t4,a7,0x10
    38d4:	010ede93          	srli	t4,t4,0x10
    38d8:	00e556b3          	srl	a3,a0,a4
    38dc:	01051333          	sll	t1,a0,a6
    38e0:	010595b3          	sll	a1,a1,a6
    38e4:	00b6e5b3          	or	a1,a3,a1
    38e8:	0105d693          	srli	a3,a1,0x10
    38ec:	01061633          	sll	a2,a2,a6
    38f0:	03ee7e33          	remu	t3,t3,t5
    38f4:	02fe8533          	mul	a0,t4,a5
    38f8:	010e1e13          	slli	t3,t3,0x10
    38fc:	01c6e6b3          	or	a3,a3,t3
    3900:	00a6fe63          	bgeu	a3,a0,391c <__umoddi3+0x354>
    3904:	00d886b3          	add	a3,a7,a3
    3908:	fff78e13          	addi	t3,a5,-1
    390c:	1116ec63          	bltu	a3,a7,3a24 <__umoddi3+0x45c>
    3910:	10a6fa63          	bgeu	a3,a0,3a24 <__umoddi3+0x45c>
    3914:	ffe78793          	addi	a5,a5,-2
    3918:	011686b3          	add	a3,a3,a7
    391c:	40a686b3          	sub	a3,a3,a0
    3920:	03e6d533          	divu	a0,a3,t5
    3924:	01059593          	slli	a1,a1,0x10
    3928:	0105d593          	srli	a1,a1,0x10
    392c:	03e6f6b3          	remu	a3,a3,t5
    3930:	02ae8eb3          	mul	t4,t4,a0
    3934:	01069693          	slli	a3,a3,0x10
    3938:	00d5e5b3          	or	a1,a1,a3
    393c:	01d5fe63          	bgeu	a1,t4,3958 <__umoddi3+0x390>
    3940:	00b885b3          	add	a1,a7,a1
    3944:	fff50693          	addi	a3,a0,-1
    3948:	0d15ea63          	bltu	a1,a7,3a1c <__umoddi3+0x454>
    394c:	0dd5f863          	bgeu	a1,t4,3a1c <__umoddi3+0x454>
    3950:	ffe50513          	addi	a0,a0,-2
    3954:	011585b3          	add	a1,a1,a7
    3958:	01079693          	slli	a3,a5,0x10
    395c:	000102b7          	lui	t0,0x10
    3960:	00a6e6b3          	or	a3,a3,a0
    3964:	fff28513          	addi	a0,t0,-1 # ffff <__stack_size+0xbfff>
    3968:	00a6fe33          	and	t3,a3,a0
    396c:	01065f93          	srli	t6,a2,0x10
    3970:	0106d693          	srli	a3,a3,0x10
    3974:	00a67533          	and	a0,a2,a0
    3978:	02ae0f33          	mul	t5,t3,a0
    397c:	41d585b3          	sub	a1,a1,t4
    3980:	02a68533          	mul	a0,a3,a0
    3984:	010f5793          	srli	a5,t5,0x10
    3988:	03fe0e33          	mul	t3,t3,t6
    398c:	00ae0e33          	add	t3,t3,a0
    3990:	01c787b3          	add	a5,a5,t3
    3994:	03f686b3          	mul	a3,a3,t6
    3998:	00a7f463          	bgeu	a5,a0,39a0 <__umoddi3+0x3d8>
    399c:	005686b3          	add	a3,a3,t0
    39a0:	00010eb7          	lui	t4,0x10
    39a4:	fffe8e93          	addi	t4,t4,-1 # ffff <__stack_size+0xbfff>
    39a8:	01d7f533          	and	a0,a5,t4
    39ac:	0107de13          	srli	t3,a5,0x10
    39b0:	01051513          	slli	a0,a0,0x10
    39b4:	01df7f33          	and	t5,t5,t4
    39b8:	00de07b3          	add	a5,t3,a3
    39bc:	01e50533          	add	a0,a0,t5
    39c0:	02f5e863          	bltu	a1,a5,39f0 <__umoddi3+0x428>
    39c4:	02f58463          	beq	a1,a5,39ec <__umoddi3+0x424>
    39c8:	40a30533          	sub	a0,t1,a0
    39cc:	00a33333          	sltu	t1,t1,a0
    39d0:	40f585b3          	sub	a1,a1,a5
    39d4:	406585b3          	sub	a1,a1,t1
    39d8:	00e59733          	sll	a4,a1,a4
    39dc:	01055533          	srl	a0,a0,a6
    39e0:	00a76533          	or	a0,a4,a0
    39e4:	0105d5b3          	srl	a1,a1,a6
    39e8:	00008067          	ret
    39ec:	fca37ee3          	bgeu	t1,a0,39c8 <__umoddi3+0x400>
    39f0:	40c50633          	sub	a2,a0,a2
    39f4:	00c53533          	sltu	a0,a0,a2
    39f8:	011508b3          	add	a7,a0,a7
    39fc:	411787b3          	sub	a5,a5,a7
    3a00:	00060513          	mv	a0,a2
    3a04:	fc5ff06f          	j	39c8 <__umoddi3+0x400>
    3a08:	010007b7          	lui	a5,0x1000
    3a0c:	02f67463          	bgeu	a2,a5,3a34 <__umoddi3+0x46c>
    3a10:	01065693          	srli	a3,a2,0x10
    3a14:	01000713          	li	a4,16
    3a18:	d1dff06f          	j	3734 <__umoddi3+0x16c>
    3a1c:	00068513          	mv	a0,a3
    3a20:	f39ff06f          	j	3958 <__umoddi3+0x390>
    3a24:	000e0793          	mv	a5,t3
    3a28:	ef5ff06f          	j	391c <__umoddi3+0x354>
    3a2c:	010787b3          	add	a5,a5,a6
    3a30:	c39ff06f          	j	3668 <__umoddi3+0xa0>
    3a34:	01865693          	srli	a3,a2,0x18
    3a38:	01800713          	li	a4,24
    3a3c:	cf9ff06f          	j	3734 <__umoddi3+0x16c>

00003a40 <strlen>:
strlen():
    3a40:	87aa                	mv	a5,a0
    3a42:	0007c703          	lbu	a4,0(a5) # 1000000 <_app_prog_size+0xfc0000>
    3a46:	0785                	addi	a5,a5,1
    3a48:	ff6d                	bnez	a4,3a42 <strlen+0x2>
    3a4a:	40a78533          	sub	a0,a5,a0
    3a4e:	157d                	addi	a0,a0,-1
    3a50:	8082                	ret
